
../kernel/kernel.elf:     file format elf64-x86-64


Disassembly of section .text:

ffff800000100000 <start32>:
ffff800000100000:	ea                   	(bad)  
ffff800000100001:	07                   	(bad)  
ffff800000100002:	00 10                	add    %dl,(%rax)
ffff800000100004:	00 10                	add    %dl,(%rax)
	...

ffff800000100007 <_start32>:
ffff800000100007:	b8 18 00 00 00       	mov    $0x18,%eax
ffff80000010000c:	8e d8                	mov    %eax,%ds
ffff80000010000e:	c7 05 00 10 10 00 07 	movl   $0x102007,0x101000(%rip)        # ffff800000201018 <img_end+0xdd7dc>
ffff800000100015:	20 10 00 
ffff800000100018:	c7 05 00 18 10 00 07 	movl   $0x102007,0x101800(%rip)        # ffff800000201822 <img_end+0xddfe6>
ffff80000010001f:	20 10 00 
ffff800000100022:	c7 05 00 20 10 00 07 	movl   $0x103007,0x102000(%rip)        # ffff80000020202c <img_end+0xde7f0>
ffff800000100029:	30 10 00 
ffff80000010002c:	c7 05 08 20 10 00 07 	movl   $0x104007,0x102008(%rip)        # ffff80000020203e <img_end+0xde802>
ffff800000100033:	40 10 00 
ffff800000100036:	c7 05 10 20 10 00 07 	movl   $0x105007,0x102010(%rip)        # ffff800000202050 <img_end+0xde814>
ffff80000010003d:	50 10 00 
ffff800000100040:	c7 05 18 20 10 00 07 	movl   $0x106007,0x102018(%rip)        # ffff800000202062 <img_end+0xde826>
ffff800000100047:	60 10 00 
ffff80000010004a:	c7 05 20 20 10 00 07 	movl   $0x107007,0x102020(%rip)        # ffff800000202074 <img_end+0xde838>
ffff800000100051:	70 10 00 
ffff800000100054:	c7 05 28 20 10 00 07 	movl   $0x108007,0x102028(%rip)        # ffff800000202086 <img_end+0xde84a>
ffff80000010005b:	80 10 00 
ffff80000010005e:	c7 05 30 20 10 00 07 	movl   $0x109007,0x102030(%rip)        # ffff800000202098 <img_end+0xde85c>
ffff800000100065:	90 10 00 
ffff800000100068:	c7 05 38 20 10 00 07 	movl   $0x10a007,0x102038(%rip)        # ffff8000002020aa <img_end+0xde86e>
ffff80000010006f:	a0 10 00 
ffff800000100072:	b9 00 10 00 00       	mov    $0x1000,%ecx
ffff800000100077:	bf 00 30 10 00       	mov    $0x103000,%edi
ffff80000010007c:	b8 83 00 00 00       	mov    $0x83,%eax

ffff800000100081 <loop>:
ffff800000100081:	89 07                	mov    %eax,(%rdi)
ffff800000100083:	83 c7 08             	add    $0x8,%edi
ffff800000100086:	05 00 00 20 00       	add    $0x200000,%eax
ffff80000010008b:	49 75 f3             	rex.WB jne ffff800000100081 <loop>

ffff80000010008e <prepare64>:
ffff80000010008e:	0f 20 e0             	mov    %cr4,%rax
ffff800000100091:	0d 20 06 00 00       	or     $0x620,%eax
ffff800000100096:	0f 22 e0             	mov    %rax,%cr4
ffff800000100099:	b8 00 10 10 00       	mov    $0x101000,%eax
ffff80000010009e:	0f 22 d8             	mov    %rax,%cr3
ffff8000001000a1:	b9 80 00 00 c0       	mov    $0xc0000080,%ecx
ffff8000001000a6:	0f 32                	rdmsr  
ffff8000001000a8:	0d 01 01 00 00       	or     $0x101,%eax
ffff8000001000ad:	0f 30                	wrmsr  
ffff8000001000af:	0f 20 c0             	mov    %cr0,%rax
ffff8000001000b2:	0d 0e 00 00 e0       	or     $0xe000000e,%eax
ffff8000001000b7:	35 04 00 00 60       	xor    $0x60000004,%eax
ffff8000001000bc:	0f 22 c0             	mov    %rax,%cr0
ffff8000001000bf:	0f 01 15 42 01 10 00 	lgdt   0x100142(%rip)        # ffff800000200208 <img_end+0xdc9cc>
ffff8000001000c6:	ea                   	(bad)  
ffff8000001000c7:	cd 00                	int    $0x0
ffff8000001000c9:	10 00                	adc    %al,(%rax)
ffff8000001000cb:	08 00                	or     %al,(%rax)

ffff8000001000cd <start64>:
ffff8000001000cd:	48 b8 d9 00 10 00 00 	movabs $0xffff8000001000d9,%rax
ffff8000001000d4:	80 ff ff 
ffff8000001000d7:	ff e0                	jmpq   *%rax

ffff8000001000d9 <_start64>:
ffff8000001000d9:	66 b8 10 00          	mov    $0x10,%ax
ffff8000001000dd:	8e d8                	mov    %eax,%ds
ffff8000001000df:	8e c0                	mov    %eax,%es
ffff8000001000e1:	8e e0                	mov    %eax,%fs
ffff8000001000e3:	8e e8                	mov    %eax,%gs
ffff8000001000e5:	8e d0                	mov    %eax,%ss
ffff8000001000e7:	80 3d 3a 29 02 00 01 	cmpb   $0x1,0x2293a(%rip)        # ffff800000122a28 <ap_on_flag>
ffff8000001000ee:	74 19                	je     ffff800000100109 <ap_stack_setting>

ffff8000001000f0 <bp_stack_setting>:
ffff8000001000f0:	48 bc ff cf 10 00 00 	movabs $0xffff80000010cfff,%rsp
ffff8000001000f7:	80 ff ff 
ffff8000001000fa:	48 bd ff cf 10 00 00 	movabs $0xffff80000010cfff,%rbp
ffff800000100101:	80 ff ff 
ffff800000100104:	e9 b8 db 01 00       	jmpq   ffff80000011dcc1 <main_bp>

ffff800000100109 <ap_stack_setting>:
ffff800000100109:	48 31 c0             	xor    %rax,%rax
ffff80000010010c:	48 8b 1d 1d 29 02 00 	mov    0x2291d(%rip),%rbx        # ffff800000122a30 <lapic_vaddr>
ffff800000100113:	8b 03                	mov    (%rbx),%eax
ffff800000100115:	48 c1 e8 18          	shr    $0x18,%rax
ffff800000100119:	bb 00 20 00 00       	mov    $0x2000,%ebx
ffff80000010011e:	48 f7 e3             	mul    %rbx
ffff800000100121:	48 bc ff cf 10 00 00 	movabs $0xffff80000010cfff,%rsp
ffff800000100128:	80 ff ff 
ffff80000010012b:	48 bd ff cf 10 00 00 	movabs $0xffff80000010cfff,%rbp
ffff800000100132:	80 ff ff 
ffff800000100135:	48 01 c4             	add    %rax,%rsp
ffff800000100138:	48 01 c5             	add    %rax,%rbp
ffff80000010013b:	e9 3e dc 01 00       	jmpq   ffff80000011dd7e <main_ap>
	...

ffff800000100142 <EARLYGDTR>:
ffff800000100142:	17                   	(bad)  
ffff800000100143:	00 48 01             	add    %cl,0x1(%rax)
ffff800000100146:	10 00                	adc    %al,(%rax)

ffff800000100148 <GDT>:
	...

ffff800000100150 <CODEDESCRIPTOR64>:
ffff800000100150:	ff                   	(bad)  
ffff800000100151:	ff 00                	incl   (%rax)
ffff800000100153:	00 00                	add    %al,(%rax)
ffff800000100155:	9a                   	(bad)  
ffff800000100156:	af                   	scas   %es:(%rdi),%eax
	...

ffff800000100158 <DATADESCRIPTOR64>:
ffff800000100158:	ff                   	(bad)  
ffff800000100159:	ff 00                	incl   (%rax)
ffff80000010015b:	00 00                	add    %al,(%rax)
ffff80000010015d:	92                   	xchg   %eax,%edx
ffff80000010015e:	af                   	scas   %es:(%rdi),%eax
	...

ffff800000100160 <GDTEND>:
	...

ffff800000101000 <EARLY_PGT>:
	...

ffff80000010b000 <STACK_CORE0>:
	...

ffff80000010d000 <STACK_CORE1>:
	...

ffff80000010f000 <STACK_CORE2>:
	...

ffff800000111000 <STACK_CORE3>:
	...

ffff800000113000 <IST_CORE0>:
	...

ffff800000115000 <IST_CORE1>:
	...

ffff800000117000 <IST_CORE2>:
	...

ffff800000119000 <IST_CORE3>:
	...

ffff80000011b000 <dummy>:
	...

ffff80000011b0ff <device_not_avail_handler>:
ffff80000011b0ff:	55                   	push   %rbp
ffff80000011b100:	48 89 e5             	mov    %rsp,%rbp
ffff80000011b103:	48 83 ec 20          	sub    $0x20,%rsp
ffff80000011b107:	48 b8 18 c7 11 00 00 	movabs $0xffff80000011c718,%rax
ffff80000011b10e:	80 ff ff 
ffff80000011b111:	ff d0                	callq  *%rax
ffff80000011b113:	88 45 ff             	mov    %al,-0x1(%rbp)
ffff80000011b116:	48 b8 c5 13 12 00 00 	movabs $0xffff8000001213c5,%rax
ffff80000011b11d:	80 ff ff 
ffff80000011b120:	ff d0                	callq  *%rax
ffff80000011b122:	0f b6 45 ff          	movzbl -0x1(%rbp),%eax
ffff80000011b126:	89 c7                	mov    %eax,%edi
ffff80000011b128:	48 b8 6b 0d 12 00 00 	movabs $0xffff800000120d6b,%rax
ffff80000011b12f:	80 ff ff 
ffff80000011b132:	ff d0                	callq  *%rax
ffff80000011b134:	48 89 45 f0          	mov    %rax,-0x10(%rbp)
ffff80000011b138:	0f b6 45 ff          	movzbl -0x1(%rbp),%eax
ffff80000011b13c:	89 c7                	mov    %eax,%edi
ffff80000011b13e:	48 b8 c8 0a 12 00 00 	movabs $0xffff800000120ac8,%rax
ffff80000011b145:	80 ff ff 
ffff80000011b148:	ff d0                	callq  *%rax
ffff80000011b14a:	48 89 45 e8          	mov    %rax,-0x18(%rbp)
ffff80000011b14e:	48 8b 45 f0          	mov    -0x10(%rbp),%rax
ffff80000011b152:	48 3b 45 e8          	cmp    -0x18(%rbp),%rax
ffff80000011b156:	0f 84 95 00 00 00    	je     ffff80000011b1f1 <device_not_avail_handler+0xf2>
ffff80000011b15c:	48 83 7d f0 00       	cmpq   $0x0,-0x10(%rbp)
ffff80000011b161:	74 32                	je     ffff80000011b195 <device_not_avail_handler+0x96>
ffff80000011b163:	48 8b 45 f0          	mov    -0x10(%rbp),%rax
ffff80000011b167:	48 89 45 e0          	mov    %rax,-0x20(%rbp)
ffff80000011b16b:	48 83 7d e0 00       	cmpq   $0x0,-0x20(%rbp)
ffff80000011b170:	74 23                	je     ffff80000011b195 <device_not_avail_handler+0x96>
ffff80000011b172:	48 8b 45 e0          	mov    -0x20(%rbp),%rax
ffff80000011b176:	48 3b 45 f0          	cmp    -0x10(%rbp),%rax
ffff80000011b17a:	75 19                	jne    ffff80000011b195 <device_not_avail_handler+0x96>
ffff80000011b17c:	48 8b 45 e0          	mov    -0x20(%rbp),%rax
ffff80000011b180:	48 05 f8 00 00 00    	add    $0xf8,%rax
ffff80000011b186:	48 89 c7             	mov    %rax,%rdi
ffff80000011b189:	48 b8 b0 13 12 00 00 	movabs $0xffff8000001213b0,%rax
ffff80000011b190:	80 ff ff 
ffff80000011b193:	ff d0                	callq  *%rax
ffff80000011b195:	48 8b 45 e8          	mov    -0x18(%rbp),%rax
ffff80000011b199:	0f b6 80 f0 00 00 00 	movzbl 0xf0(%rax),%eax
ffff80000011b1a0:	84 c0                	test   %al,%al
ffff80000011b1a2:	75 19                	jne    ffff80000011b1bd <device_not_avail_handler+0xbe>
ffff80000011b1a4:	48 b8 ac 13 12 00 00 	movabs $0xffff8000001213ac,%rax
ffff80000011b1ab:	80 ff ff 
ffff80000011b1ae:	ff d0                	callq  *%rax
ffff80000011b1b0:	48 8b 45 e8          	mov    -0x18(%rbp),%rax
ffff80000011b1b4:	c6 80 f0 00 00 00 01 	movb   $0x1,0xf0(%rax)
ffff80000011b1bb:	eb 19                	jmp    ffff80000011b1d6 <device_not_avail_handler+0xd7>
ffff80000011b1bd:	48 8b 45 e8          	mov    -0x18(%rbp),%rax
ffff80000011b1c1:	48 05 f8 00 00 00    	add    $0xf8,%rax
ffff80000011b1c7:	48 89 c7             	mov    %rax,%rdi
ffff80000011b1ca:	48 b8 b4 13 12 00 00 	movabs $0xffff8000001213b4,%rax
ffff80000011b1d1:	80 ff ff 
ffff80000011b1d4:	ff d0                	callq  *%rax
ffff80000011b1d6:	0f b6 45 ff          	movzbl -0x1(%rbp),%eax
ffff80000011b1da:	48 8b 55 e8          	mov    -0x18(%rbp),%rdx
ffff80000011b1de:	48 89 d6             	mov    %rdx,%rsi
ffff80000011b1e1:	89 c7                	mov    %eax,%edi
ffff80000011b1e3:	48 b8 90 0d 12 00 00 	movabs $0xffff800000120d90,%rax
ffff80000011b1ea:	80 ff ff 
ffff80000011b1ed:	ff d0                	callq  *%rax
ffff80000011b1ef:	eb 01                	jmp    ffff80000011b1f2 <device_not_avail_handler+0xf3>
ffff80000011b1f1:	90                   	nop
ffff80000011b1f2:	c9                   	leaveq 
ffff80000011b1f3:	c3                   	retq   

ffff80000011b1f4 <gdt_tss_init>:
ffff80000011b1f4:	55                   	push   %rbp
ffff80000011b1f5:	48 89 e5             	mov    %rsp,%rbp
ffff80000011b1f8:	48 83 ec 10          	sub    $0x10,%rsp
ffff80000011b1fc:	48 b8 e0 2b 12 00 00 	movabs $0xffff800000122be0,%rax
ffff80000011b203:	80 ff ff 
ffff80000011b206:	66 c7 00 67 00       	movw   $0x67,(%rax)
ffff80000011b20b:	48 ba f0 2b 12 00 00 	movabs $0xffff800000122bf0,%rdx
ffff80000011b212:	80 ff ff 
ffff80000011b215:	48 b8 e0 2b 12 00 00 	movabs $0xffff800000122be0,%rax
ffff80000011b21c:	80 ff ff 
ffff80000011b21f:	48 89 50 02          	mov    %rdx,0x2(%rax)
ffff80000011b223:	41 b9 00 00 00 00    	mov    $0x0,%r9d
ffff80000011b229:	41 b8 00 00 00 00    	mov    $0x0,%r8d
ffff80000011b22f:	b9 00 00 00 00       	mov    $0x0,%ecx
ffff80000011b234:	ba 00 00 00 00       	mov    $0x0,%edx
ffff80000011b239:	be 00 00 00 00       	mov    $0x0,%esi
ffff80000011b23e:	48 bf f0 2b 12 00 00 	movabs $0xffff800000122bf0,%rdi
ffff80000011b245:	80 ff ff 
ffff80000011b248:	48 b8 07 b4 11 00 00 	movabs $0xffff80000011b407,%rax
ffff80000011b24f:	80 ff ff 
ffff80000011b252:	ff d0                	callq  *%rax
ffff80000011b254:	41 b9 0a 00 00 00    	mov    $0xa,%r9d
ffff80000011b25a:	41 b8 9a 00 00 00    	mov    $0x9a,%r8d
ffff80000011b260:	b9 a0 00 00 00       	mov    $0xa0,%ecx
ffff80000011b265:	ba ff ff 0f 00       	mov    $0xfffff,%edx
ffff80000011b26a:	be 00 00 00 00       	mov    $0x0,%esi
ffff80000011b26f:	48 bf f8 2b 12 00 00 	movabs $0xffff800000122bf8,%rdi
ffff80000011b276:	80 ff ff 
ffff80000011b279:	48 b8 07 b4 11 00 00 	movabs $0xffff80000011b407,%rax
ffff80000011b280:	80 ff ff 
ffff80000011b283:	ff d0                	callq  *%rax
ffff80000011b285:	41 b9 02 00 00 00    	mov    $0x2,%r9d
ffff80000011b28b:	41 b8 92 00 00 00    	mov    $0x92,%r8d
ffff80000011b291:	b9 a0 00 00 00       	mov    $0xa0,%ecx
ffff80000011b296:	ba ff ff 0f 00       	mov    $0xfffff,%edx
ffff80000011b29b:	be 00 00 00 00       	mov    $0x0,%esi
ffff80000011b2a0:	48 bf 00 2c 12 00 00 	movabs $0xffff800000122c00,%rdi
ffff80000011b2a7:	80 ff ff 
ffff80000011b2aa:	48 b8 07 b4 11 00 00 	movabs $0xffff80000011b407,%rax
ffff80000011b2b1:	80 ff ff 
ffff80000011b2b4:	ff d0                	callq  *%rax
ffff80000011b2b6:	41 b9 02 00 00 00    	mov    $0x2,%r9d
ffff80000011b2bc:	41 b8 f2 00 00 00    	mov    $0xf2,%r8d
ffff80000011b2c2:	b9 a0 00 00 00       	mov    $0xa0,%ecx
ffff80000011b2c7:	ba ff ff 0f 00       	mov    $0xfffff,%edx
ffff80000011b2cc:	be 00 00 00 00       	mov    $0x0,%esi
ffff80000011b2d1:	48 bf 08 2c 12 00 00 	movabs $0xffff800000122c08,%rdi
ffff80000011b2d8:	80 ff ff 
ffff80000011b2db:	48 b8 07 b4 11 00 00 	movabs $0xffff80000011b407,%rax
ffff80000011b2e2:	80 ff ff 
ffff80000011b2e5:	ff d0                	callq  *%rax
ffff80000011b2e7:	41 b9 0a 00 00 00    	mov    $0xa,%r9d
ffff80000011b2ed:	41 b8 fa 00 00 00    	mov    $0xfa,%r8d
ffff80000011b2f3:	b9 a0 00 00 00       	mov    $0xa0,%ecx
ffff80000011b2f8:	ba ff ff 0f 00       	mov    $0xfffff,%edx
ffff80000011b2fd:	be 00 00 00 00       	mov    $0x0,%esi
ffff80000011b302:	48 bf 10 2c 12 00 00 	movabs $0xffff800000122c10,%rdi
ffff80000011b309:	80 ff ff 
ffff80000011b30c:	48 b8 07 b4 11 00 00 	movabs $0xffff80000011b407,%rax
ffff80000011b313:	80 ff ff 
ffff80000011b316:	ff d0                	callq  *%rax
ffff80000011b318:	c7 45 fc 00 00 00 00 	movl   $0x0,-0x4(%rbp)
ffff80000011b31f:	eb 7c                	jmp    ffff80000011b39d <gdt_tss_init+0x1a9>
ffff80000011b321:	8b 45 fc             	mov    -0x4(%rbp),%eax
ffff80000011b324:	48 63 d0             	movslq %eax,%rdx
ffff80000011b327:	48 89 d0             	mov    %rdx,%rax
ffff80000011b32a:	48 01 c0             	add    %rax,%rax
ffff80000011b32d:	48 01 d0             	add    %rdx,%rax
ffff80000011b330:	48 c1 e0 02          	shl    $0x2,%rax
ffff80000011b334:	48 01 d0             	add    %rdx,%rax
ffff80000011b337:	48 c1 e0 03          	shl    $0x3,%rax
ffff80000011b33b:	48 8d 50 70          	lea    0x70(%rax),%rdx
ffff80000011b33f:	48 b8 e0 2b 12 00 00 	movabs $0xffff800000122be0,%rax
ffff80000011b346:	80 ff ff 
ffff80000011b349:	48 01 d0             	add    %rdx,%rax
ffff80000011b34c:	48 83 c0 08          	add    $0x8,%rax
ffff80000011b350:	48 89 c6             	mov    %rax,%rsi
ffff80000011b353:	8b 45 fc             	mov    -0x4(%rbp),%eax
ffff80000011b356:	48 98                	cltq   
ffff80000011b358:	48 83 c0 03          	add    $0x3,%rax
ffff80000011b35c:	48 c1 e0 04          	shl    $0x4,%rax
ffff80000011b360:	48 89 c2             	mov    %rax,%rdx
ffff80000011b363:	48 b8 e0 2b 12 00 00 	movabs $0xffff800000122be0,%rax
ffff80000011b36a:	80 ff ff 
ffff80000011b36d:	48 01 d0             	add    %rdx,%rax
ffff80000011b370:	48 83 c0 08          	add    $0x8,%rax
ffff80000011b374:	41 b9 09 00 00 00    	mov    $0x9,%r9d
ffff80000011b37a:	41 b8 80 00 00 00    	mov    $0x80,%r8d
ffff80000011b380:	b9 80 00 00 00       	mov    $0x80,%ecx
ffff80000011b385:	ba 67 00 00 00       	mov    $0x67,%edx
ffff80000011b38a:	48 89 c7             	mov    %rax,%rdi
ffff80000011b38d:	48 b8 82 b4 11 00 00 	movabs $0xffff80000011b482,%rax
ffff80000011b394:	80 ff ff 
ffff80000011b397:	ff d0                	callq  *%rax
ffff80000011b399:	83 45 fc 01          	addl   $0x1,-0x4(%rbp)
ffff80000011b39d:	83 7d fc 03          	cmpl   $0x3,-0x4(%rbp)
ffff80000011b3a1:	0f 8e 7a ff ff ff    	jle    ffff80000011b321 <gdt_tss_init+0x12d>
ffff80000011b3a7:	b8 00 00 00 00       	mov    $0x0,%eax
ffff80000011b3ac:	48 ba 1f b5 11 00 00 	movabs $0xffff80000011b51f,%rdx
ffff80000011b3b3:	80 ff ff 
ffff80000011b3b6:	ff d2                	callq  *%rdx
ffff80000011b3b8:	48 bf e0 2b 12 00 00 	movabs $0xffff800000122be0,%rdi
ffff80000011b3bf:	80 ff ff 
ffff80000011b3c2:	b8 00 00 00 00       	mov    $0x0,%eax
ffff80000011b3c7:	48 ba cd 12 12 00 00 	movabs $0xffff8000001212cd,%rdx
ffff80000011b3ce:	80 ff ff 
ffff80000011b3d1:	ff d2                	callq  *%rdx
ffff80000011b3d3:	bf 28 00 00 00       	mov    $0x28,%edi
ffff80000011b3d8:	b8 00 00 00 00       	mov    $0x0,%eax
ffff80000011b3dd:	48 ba d1 12 12 00 00 	movabs $0xffff8000001212d1,%rdx
ffff80000011b3e4:	80 ff ff 
ffff80000011b3e7:	ff d2                	callq  *%rdx
ffff80000011b3e9:	48 bf e0 13 12 00 00 	movabs $0xffff8000001213e0,%rdi
ffff80000011b3f0:	80 ff ff 
ffff80000011b3f3:	b8 00 00 00 00       	mov    $0x0,%eax
ffff80000011b3f8:	48 ba 32 f8 11 00 00 	movabs $0xffff80000011f832,%rdx
ffff80000011b3ff:	80 ff ff 
ffff80000011b402:	ff d2                	callq  *%rdx
ffff80000011b404:	90                   	nop
ffff80000011b405:	c9                   	leaveq 
ffff80000011b406:	c3                   	retq   

ffff80000011b407 <set_gdt_entry8>:
ffff80000011b407:	55                   	push   %rbp
ffff80000011b408:	48 89 e5             	mov    %rsp,%rbp
ffff80000011b40b:	48 89 7d f8          	mov    %rdi,-0x8(%rbp)
ffff80000011b40f:	89 75 f4             	mov    %esi,-0xc(%rbp)
ffff80000011b412:	89 55 f0             	mov    %edx,-0x10(%rbp)
ffff80000011b415:	89 c8                	mov    %ecx,%eax
ffff80000011b417:	44 89 c1             	mov    %r8d,%ecx
ffff80000011b41a:	44 89 ca             	mov    %r9d,%edx
ffff80000011b41d:	88 45 ec             	mov    %al,-0x14(%rbp)
ffff80000011b420:	88 4d e8             	mov    %cl,-0x18(%rbp)
ffff80000011b423:	88 55 e4             	mov    %dl,-0x1c(%rbp)
ffff80000011b426:	8b 45 f0             	mov    -0x10(%rbp),%eax
ffff80000011b429:	89 c2                	mov    %eax,%edx
ffff80000011b42b:	48 8b 45 f8          	mov    -0x8(%rbp),%rax
ffff80000011b42f:	66 89 10             	mov    %dx,(%rax)
ffff80000011b432:	8b 45 f4             	mov    -0xc(%rbp),%eax
ffff80000011b435:	89 c2                	mov    %eax,%edx
ffff80000011b437:	48 8b 45 f8          	mov    -0x8(%rbp),%rax
ffff80000011b43b:	66 89 50 02          	mov    %dx,0x2(%rax)
ffff80000011b43f:	8b 45 f4             	mov    -0xc(%rbp),%eax
ffff80000011b442:	c1 e8 10             	shr    $0x10,%eax
ffff80000011b445:	89 c2                	mov    %eax,%edx
ffff80000011b447:	48 8b 45 f8          	mov    -0x8(%rbp),%rax
ffff80000011b44b:	88 50 04             	mov    %dl,0x4(%rax)
ffff80000011b44e:	0f b6 45 e8          	movzbl -0x18(%rbp),%eax
ffff80000011b452:	0a 45 e4             	or     -0x1c(%rbp),%al
ffff80000011b455:	89 c2                	mov    %eax,%edx
ffff80000011b457:	48 8b 45 f8          	mov    -0x8(%rbp),%rax
ffff80000011b45b:	88 50 05             	mov    %dl,0x5(%rax)
ffff80000011b45e:	8b 45 f0             	mov    -0x10(%rbp),%eax
ffff80000011b461:	c1 e8 10             	shr    $0x10,%eax
ffff80000011b464:	0a 45 ec             	or     -0x14(%rbp),%al
ffff80000011b467:	89 c2                	mov    %eax,%edx
ffff80000011b469:	48 8b 45 f8          	mov    -0x8(%rbp),%rax
ffff80000011b46d:	88 50 06             	mov    %dl,0x6(%rax)
ffff80000011b470:	8b 45 f4             	mov    -0xc(%rbp),%eax
ffff80000011b473:	c1 e8 18             	shr    $0x18,%eax
ffff80000011b476:	89 c2                	mov    %eax,%edx
ffff80000011b478:	48 8b 45 f8          	mov    -0x8(%rbp),%rax
ffff80000011b47c:	88 50 07             	mov    %dl,0x7(%rax)
ffff80000011b47f:	90                   	nop
ffff80000011b480:	5d                   	pop    %rbp
ffff80000011b481:	c3                   	retq   

ffff80000011b482 <set_gdt_entry16>:
ffff80000011b482:	55                   	push   %rbp
ffff80000011b483:	48 89 e5             	mov    %rsp,%rbp
ffff80000011b486:	48 89 7d f8          	mov    %rdi,-0x8(%rbp)
ffff80000011b48a:	48 89 75 f0          	mov    %rsi,-0x10(%rbp)
ffff80000011b48e:	89 55 ec             	mov    %edx,-0x14(%rbp)
ffff80000011b491:	89 c8                	mov    %ecx,%eax
ffff80000011b493:	44 89 c1             	mov    %r8d,%ecx
ffff80000011b496:	44 89 ca             	mov    %r9d,%edx
ffff80000011b499:	88 45 e8             	mov    %al,-0x18(%rbp)
ffff80000011b49c:	88 4d e4             	mov    %cl,-0x1c(%rbp)
ffff80000011b49f:	88 55 e0             	mov    %dl,-0x20(%rbp)
ffff80000011b4a2:	8b 45 ec             	mov    -0x14(%rbp),%eax
ffff80000011b4a5:	89 c2                	mov    %eax,%edx
ffff80000011b4a7:	48 8b 45 f8          	mov    -0x8(%rbp),%rax
ffff80000011b4ab:	66 89 10             	mov    %dx,(%rax)
ffff80000011b4ae:	48 8b 45 f0          	mov    -0x10(%rbp),%rax
ffff80000011b4b2:	89 c2                	mov    %eax,%edx
ffff80000011b4b4:	48 8b 45 f8          	mov    -0x8(%rbp),%rax
ffff80000011b4b8:	66 89 50 02          	mov    %dx,0x2(%rax)
ffff80000011b4bc:	48 8b 45 f0          	mov    -0x10(%rbp),%rax
ffff80000011b4c0:	48 c1 e8 10          	shr    $0x10,%rax
ffff80000011b4c4:	89 c2                	mov    %eax,%edx
ffff80000011b4c6:	48 8b 45 f8          	mov    -0x8(%rbp),%rax
ffff80000011b4ca:	88 50 04             	mov    %dl,0x4(%rax)
ffff80000011b4cd:	0f b6 45 e4          	movzbl -0x1c(%rbp),%eax
ffff80000011b4d1:	0a 45 e0             	or     -0x20(%rbp),%al
ffff80000011b4d4:	89 c2                	mov    %eax,%edx
ffff80000011b4d6:	48 8b 45 f8          	mov    -0x8(%rbp),%rax
ffff80000011b4da:	88 50 05             	mov    %dl,0x5(%rax)
ffff80000011b4dd:	8b 45 ec             	mov    -0x14(%rbp),%eax
ffff80000011b4e0:	c1 e8 10             	shr    $0x10,%eax
ffff80000011b4e3:	0a 45 e8             	or     -0x18(%rbp),%al
ffff80000011b4e6:	89 c2                	mov    %eax,%edx
ffff80000011b4e8:	48 8b 45 f8          	mov    -0x8(%rbp),%rax
ffff80000011b4ec:	88 50 06             	mov    %dl,0x6(%rax)
ffff80000011b4ef:	48 8b 45 f0          	mov    -0x10(%rbp),%rax
ffff80000011b4f3:	48 c1 e8 18          	shr    $0x18,%rax
ffff80000011b4f7:	89 c2                	mov    %eax,%edx
ffff80000011b4f9:	48 8b 45 f8          	mov    -0x8(%rbp),%rax
ffff80000011b4fd:	88 50 07             	mov    %dl,0x7(%rax)
ffff80000011b500:	48 8b 45 f0          	mov    -0x10(%rbp),%rax
ffff80000011b504:	48 c1 e8 20          	shr    $0x20,%rax
ffff80000011b508:	89 c2                	mov    %eax,%edx
ffff80000011b50a:	48 8b 45 f8          	mov    -0x8(%rbp),%rax
ffff80000011b50e:	89 50 08             	mov    %edx,0x8(%rax)
ffff80000011b511:	48 8b 45 f8          	mov    -0x8(%rbp),%rax
ffff80000011b515:	c7 40 0c 00 00 00 00 	movl   $0x0,0xc(%rax)
ffff80000011b51c:	90                   	nop
ffff80000011b51d:	5d                   	pop    %rbp
ffff80000011b51e:	c3                   	retq   

ffff80000011b51f <tss_init>:
ffff80000011b51f:	55                   	push   %rbp
ffff80000011b520:	48 89 e5             	mov    %rsp,%rbp
ffff80000011b523:	48 83 ec 10          	sub    $0x10,%rsp
ffff80000011b527:	c7 45 fc 00 00 00 00 	movl   $0x0,-0x4(%rbp)
ffff80000011b52e:	e9 cd 00 00 00       	jmpq   ffff80000011b600 <tss_init+0xe1>
ffff80000011b533:	8b 45 fc             	mov    -0x4(%rbp),%eax
ffff80000011b536:	48 63 d0             	movslq %eax,%rdx
ffff80000011b539:	48 89 d0             	mov    %rdx,%rax
ffff80000011b53c:	48 01 c0             	add    %rax,%rax
ffff80000011b53f:	48 01 d0             	add    %rdx,%rax
ffff80000011b542:	48 c1 e0 02          	shl    $0x2,%rax
ffff80000011b546:	48 01 d0             	add    %rdx,%rax
ffff80000011b549:	48 c1 e0 03          	shl    $0x3,%rax
ffff80000011b54d:	48 8d 50 70          	lea    0x70(%rax),%rdx
ffff80000011b551:	48 b8 e0 2b 12 00 00 	movabs $0xffff800000122be0,%rax
ffff80000011b558:	80 ff ff 
ffff80000011b55b:	48 01 d0             	add    %rdx,%rax
ffff80000011b55e:	48 83 c0 08          	add    $0x8,%rax
ffff80000011b562:	ba 68 00 00 00       	mov    $0x68,%edx
ffff80000011b567:	be 00 00 00 00       	mov    $0x0,%esi
ffff80000011b56c:	48 89 c7             	mov    %rax,%rdi
ffff80000011b56f:	48 b8 50 00 12 00 00 	movabs $0xffff800000120050,%rax
ffff80000011b576:	80 ff ff 
ffff80000011b579:	ff d0                	callq  *%rax
ffff80000011b57b:	8b 45 fc             	mov    -0x4(%rbp),%eax
ffff80000011b57e:	83 c0 01             	add    $0x1,%eax
ffff80000011b581:	69 c0 a0 1f 00 00    	imul   $0x1fa0,%eax,%eax
ffff80000011b587:	48 63 d0             	movslq %eax,%rdx
ffff80000011b58a:	48 b8 00 30 11 00 00 	movabs $0xffff800000113000,%rax
ffff80000011b591:	80 ff ff 
ffff80000011b594:	48 8d 0c 02          	lea    (%rdx,%rax,1),%rcx
ffff80000011b598:	48 be e0 2b 12 00 00 	movabs $0xffff800000122be0,%rsi
ffff80000011b59f:	80 ff ff 
ffff80000011b5a2:	8b 45 fc             	mov    -0x4(%rbp),%eax
ffff80000011b5a5:	48 63 d0             	movslq %eax,%rdx
ffff80000011b5a8:	48 89 d0             	mov    %rdx,%rax
ffff80000011b5ab:	48 01 c0             	add    %rax,%rax
ffff80000011b5ae:	48 01 d0             	add    %rdx,%rax
ffff80000011b5b1:	48 c1 e0 02          	shl    $0x2,%rax
ffff80000011b5b5:	48 01 d0             	add    %rdx,%rax
ffff80000011b5b8:	48 c1 e0 03          	shl    $0x3,%rax
ffff80000011b5bc:	48 01 f0             	add    %rsi,%rax
ffff80000011b5bf:	48 05 90 00 00 00    	add    $0x90,%rax
ffff80000011b5c5:	48 89 48 0c          	mov    %rcx,0xc(%rax)
ffff80000011b5c9:	48 b9 e0 2b 12 00 00 	movabs $0xffff800000122be0,%rcx
ffff80000011b5d0:	80 ff ff 
ffff80000011b5d3:	8b 45 fc             	mov    -0x4(%rbp),%eax
ffff80000011b5d6:	48 63 d0             	movslq %eax,%rdx
ffff80000011b5d9:	48 89 d0             	mov    %rdx,%rax
ffff80000011b5dc:	48 01 c0             	add    %rax,%rax
ffff80000011b5df:	48 01 d0             	add    %rdx,%rax
ffff80000011b5e2:	48 c1 e0 02          	shl    $0x2,%rax
ffff80000011b5e6:	48 01 d0             	add    %rdx,%rax
ffff80000011b5e9:	48 c1 e0 03          	shl    $0x3,%rax
ffff80000011b5ed:	48 01 c8             	add    %rcx,%rax
ffff80000011b5f0:	48 05 d0 00 00 00    	add    $0xd0,%rax
ffff80000011b5f6:	66 c7 40 0e ff ff    	movw   $0xffff,0xe(%rax)
ffff80000011b5fc:	83 45 fc 01          	addl   $0x1,-0x4(%rbp)
ffff80000011b600:	83 7d fc 03          	cmpl   $0x3,-0x4(%rbp)
ffff80000011b604:	0f 8e 29 ff ff ff    	jle    ffff80000011b533 <tss_init+0x14>
ffff80000011b60a:	90                   	nop
ffff80000011b60b:	c9                   	leaveq 
ffff80000011b60c:	c3                   	retq   

ffff80000011b60d <ihandler_init>:
ffff80000011b60d:	55                   	push   %rbp
ffff80000011b60e:	48 89 e5             	mov    %rsp,%rbp
ffff80000011b611:	ba 20 03 00 00       	mov    $0x320,%edx
ffff80000011b616:	be 00 00 00 00       	mov    $0x0,%esi
ffff80000011b61b:	48 bf 80 34 12 00 00 	movabs $0xffff800000123480,%rdi
ffff80000011b622:	80 ff ff 
ffff80000011b625:	b8 00 00 00 00       	mov    $0x0,%eax
ffff80000011b62a:	48 b9 50 00 12 00 00 	movabs $0xffff800000120050,%rcx
ffff80000011b631:	80 ff ff 
ffff80000011b634:	ff d1                	callq  *%rcx
ffff80000011b636:	ba 40 06 00 00       	mov    $0x640,%edx
ffff80000011b63b:	be 00 00 00 00       	mov    $0x0,%esi
ffff80000011b640:	48 bf 30 2e 12 00 00 	movabs $0xffff800000122e30,%rdi
ffff80000011b647:	80 ff ff 
ffff80000011b64a:	b8 00 00 00 00       	mov    $0x0,%eax
ffff80000011b64f:	48 b9 50 00 12 00 00 	movabs $0xffff800000120050,%rcx
ffff80000011b656:	80 ff ff 
ffff80000011b659:	ff d1                	callq  *%rcx
ffff80000011b65b:	48 be f0 10 12 00 00 	movabs $0xffff8000001210f0,%rsi
ffff80000011b662:	80 ff ff 
ffff80000011b665:	bf 00 00 00 00       	mov    $0x0,%edi
ffff80000011b66a:	48 b8 67 bc 11 00 00 	movabs $0xffff80000011bc67,%rax
ffff80000011b671:	80 ff ff 
ffff80000011b674:	ff d0                	callq  *%rax
ffff80000011b676:	48 be f9 10 12 00 00 	movabs $0xffff8000001210f9,%rsi
ffff80000011b67d:	80 ff ff 
ffff80000011b680:	bf 01 00 00 00       	mov    $0x1,%edi
ffff80000011b685:	48 b8 67 bc 11 00 00 	movabs $0xffff80000011bc67,%rax
ffff80000011b68c:	80 ff ff 
ffff80000011b68f:	ff d0                	callq  *%rax
ffff80000011b691:	48 be 02 11 12 00 00 	movabs $0xffff800000121102,%rsi
ffff80000011b698:	80 ff ff 
ffff80000011b69b:	bf 02 00 00 00       	mov    $0x2,%edi
ffff80000011b6a0:	48 b8 67 bc 11 00 00 	movabs $0xffff80000011bc67,%rax
ffff80000011b6a7:	80 ff ff 
ffff80000011b6aa:	ff d0                	callq  *%rax
ffff80000011b6ac:	48 be 0b 11 12 00 00 	movabs $0xffff80000012110b,%rsi
ffff80000011b6b3:	80 ff ff 
ffff80000011b6b6:	bf 03 00 00 00       	mov    $0x3,%edi
ffff80000011b6bb:	48 b8 67 bc 11 00 00 	movabs $0xffff80000011bc67,%rax
ffff80000011b6c2:	80 ff ff 
ffff80000011b6c5:	ff d0                	callq  *%rax
ffff80000011b6c7:	48 be 14 11 12 00 00 	movabs $0xffff800000121114,%rsi
ffff80000011b6ce:	80 ff ff 
ffff80000011b6d1:	bf 04 00 00 00       	mov    $0x4,%edi
ffff80000011b6d6:	48 b8 67 bc 11 00 00 	movabs $0xffff80000011bc67,%rax
ffff80000011b6dd:	80 ff ff 
ffff80000011b6e0:	ff d0                	callq  *%rax
ffff80000011b6e2:	48 be 1d 11 12 00 00 	movabs $0xffff80000012111d,%rsi
ffff80000011b6e9:	80 ff ff 
ffff80000011b6ec:	bf 05 00 00 00       	mov    $0x5,%edi
ffff80000011b6f1:	48 b8 67 bc 11 00 00 	movabs $0xffff80000011bc67,%rax
ffff80000011b6f8:	80 ff ff 
ffff80000011b6fb:	ff d0                	callq  *%rax
ffff80000011b6fd:	48 be 26 11 12 00 00 	movabs $0xffff800000121126,%rsi
ffff80000011b704:	80 ff ff 
ffff80000011b707:	bf 06 00 00 00       	mov    $0x6,%edi
ffff80000011b70c:	48 b8 67 bc 11 00 00 	movabs $0xffff80000011bc67,%rax
ffff80000011b713:	80 ff ff 
ffff80000011b716:	ff d0                	callq  *%rax
ffff80000011b718:	48 be 2f 11 12 00 00 	movabs $0xffff80000012112f,%rsi
ffff80000011b71f:	80 ff ff 
ffff80000011b722:	bf 07 00 00 00       	mov    $0x7,%edi
ffff80000011b727:	48 b8 67 bc 11 00 00 	movabs $0xffff80000011bc67,%rax
ffff80000011b72e:	80 ff ff 
ffff80000011b731:	ff d0                	callq  *%rax
ffff80000011b733:	48 be 38 11 12 00 00 	movabs $0xffff800000121138,%rsi
ffff80000011b73a:	80 ff ff 
ffff80000011b73d:	bf 08 00 00 00       	mov    $0x8,%edi
ffff80000011b742:	48 b8 67 bc 11 00 00 	movabs $0xffff80000011bc67,%rax
ffff80000011b749:	80 ff ff 
ffff80000011b74c:	ff d0                	callq  *%rax
ffff80000011b74e:	48 be 3f 11 12 00 00 	movabs $0xffff80000012113f,%rsi
ffff80000011b755:	80 ff ff 
ffff80000011b758:	bf 09 00 00 00       	mov    $0x9,%edi
ffff80000011b75d:	48 b8 67 bc 11 00 00 	movabs $0xffff80000011bc67,%rax
ffff80000011b764:	80 ff ff 
ffff80000011b767:	ff d0                	callq  *%rax
ffff80000011b769:	48 be 48 11 12 00 00 	movabs $0xffff800000121148,%rsi
ffff80000011b770:	80 ff ff 
ffff80000011b773:	bf 0a 00 00 00       	mov    $0xa,%edi
ffff80000011b778:	48 b8 67 bc 11 00 00 	movabs $0xffff80000011bc67,%rax
ffff80000011b77f:	80 ff ff 
ffff80000011b782:	ff d0                	callq  *%rax
ffff80000011b784:	48 be 4f 11 12 00 00 	movabs $0xffff80000012114f,%rsi
ffff80000011b78b:	80 ff ff 
ffff80000011b78e:	bf 0b 00 00 00       	mov    $0xb,%edi
ffff80000011b793:	48 b8 67 bc 11 00 00 	movabs $0xffff80000011bc67,%rax
ffff80000011b79a:	80 ff ff 
ffff80000011b79d:	ff d0                	callq  *%rax
ffff80000011b79f:	48 be 56 11 12 00 00 	movabs $0xffff800000121156,%rsi
ffff80000011b7a6:	80 ff ff 
ffff80000011b7a9:	bf 0c 00 00 00       	mov    $0xc,%edi
ffff80000011b7ae:	48 b8 67 bc 11 00 00 	movabs $0xffff80000011bc67,%rax
ffff80000011b7b5:	80 ff ff 
ffff80000011b7b8:	ff d0                	callq  *%rax
ffff80000011b7ba:	48 be 5d 11 12 00 00 	movabs $0xffff80000012115d,%rsi
ffff80000011b7c1:	80 ff ff 
ffff80000011b7c4:	bf 0d 00 00 00       	mov    $0xd,%edi
ffff80000011b7c9:	48 b8 67 bc 11 00 00 	movabs $0xffff80000011bc67,%rax
ffff80000011b7d0:	80 ff ff 
ffff80000011b7d3:	ff d0                	callq  *%rax
ffff80000011b7d5:	48 be 64 11 12 00 00 	movabs $0xffff800000121164,%rsi
ffff80000011b7dc:	80 ff ff 
ffff80000011b7df:	bf 0e 00 00 00       	mov    $0xe,%edi
ffff80000011b7e4:	48 b8 67 bc 11 00 00 	movabs $0xffff80000011bc67,%rax
ffff80000011b7eb:	80 ff ff 
ffff80000011b7ee:	ff d0                	callq  *%rax
ffff80000011b7f0:	48 be 6b 11 12 00 00 	movabs $0xffff80000012116b,%rsi
ffff80000011b7f7:	80 ff ff 
ffff80000011b7fa:	bf 0f 00 00 00       	mov    $0xf,%edi
ffff80000011b7ff:	48 b8 67 bc 11 00 00 	movabs $0xffff80000011bc67,%rax
ffff80000011b806:	80 ff ff 
ffff80000011b809:	ff d0                	callq  *%rax
ffff80000011b80b:	48 be 74 11 12 00 00 	movabs $0xffff800000121174,%rsi
ffff80000011b812:	80 ff ff 
ffff80000011b815:	bf 10 00 00 00       	mov    $0x10,%edi
ffff80000011b81a:	48 b8 67 bc 11 00 00 	movabs $0xffff80000011bc67,%rax
ffff80000011b821:	80 ff ff 
ffff80000011b824:	ff d0                	callq  *%rax
ffff80000011b826:	48 be 7d 11 12 00 00 	movabs $0xffff80000012117d,%rsi
ffff80000011b82d:	80 ff ff 
ffff80000011b830:	bf 11 00 00 00       	mov    $0x11,%edi
ffff80000011b835:	48 b8 67 bc 11 00 00 	movabs $0xffff80000011bc67,%rax
ffff80000011b83c:	80 ff ff 
ffff80000011b83f:	ff d0                	callq  *%rax
ffff80000011b841:	48 be 86 11 12 00 00 	movabs $0xffff800000121186,%rsi
ffff80000011b848:	80 ff ff 
ffff80000011b84b:	bf 12 00 00 00       	mov    $0x12,%edi
ffff80000011b850:	48 b8 67 bc 11 00 00 	movabs $0xffff80000011bc67,%rax
ffff80000011b857:	80 ff ff 
ffff80000011b85a:	ff d0                	callq  *%rax
ffff80000011b85c:	48 be 8f 11 12 00 00 	movabs $0xffff80000012118f,%rsi
ffff80000011b863:	80 ff ff 
ffff80000011b866:	bf 13 00 00 00       	mov    $0x13,%edi
ffff80000011b86b:	48 b8 67 bc 11 00 00 	movabs $0xffff80000011bc67,%rax
ffff80000011b872:	80 ff ff 
ffff80000011b875:	ff d0                	callq  *%rax
ffff80000011b877:	48 be 98 11 12 00 00 	movabs $0xffff800000121198,%rsi
ffff80000011b87e:	80 ff ff 
ffff80000011b881:	bf 14 00 00 00       	mov    $0x14,%edi
ffff80000011b886:	48 b8 67 bc 11 00 00 	movabs $0xffff80000011bc67,%rax
ffff80000011b88d:	80 ff ff 
ffff80000011b890:	ff d0                	callq  *%rax
ffff80000011b892:	48 be a1 11 12 00 00 	movabs $0xffff8000001211a1,%rsi
ffff80000011b899:	80 ff ff 
ffff80000011b89c:	bf 15 00 00 00       	mov    $0x15,%edi
ffff80000011b8a1:	48 b8 67 bc 11 00 00 	movabs $0xffff80000011bc67,%rax
ffff80000011b8a8:	80 ff ff 
ffff80000011b8ab:	ff d0                	callq  *%rax
ffff80000011b8ad:	48 be aa 11 12 00 00 	movabs $0xffff8000001211aa,%rsi
ffff80000011b8b4:	80 ff ff 
ffff80000011b8b7:	bf 16 00 00 00       	mov    $0x16,%edi
ffff80000011b8bc:	48 b8 67 bc 11 00 00 	movabs $0xffff80000011bc67,%rax
ffff80000011b8c3:	80 ff ff 
ffff80000011b8c6:	ff d0                	callq  *%rax
ffff80000011b8c8:	48 be b3 11 12 00 00 	movabs $0xffff8000001211b3,%rsi
ffff80000011b8cf:	80 ff ff 
ffff80000011b8d2:	bf 17 00 00 00       	mov    $0x17,%edi
ffff80000011b8d7:	48 b8 67 bc 11 00 00 	movabs $0xffff80000011bc67,%rax
ffff80000011b8de:	80 ff ff 
ffff80000011b8e1:	ff d0                	callq  *%rax
ffff80000011b8e3:	48 be bc 11 12 00 00 	movabs $0xffff8000001211bc,%rsi
ffff80000011b8ea:	80 ff ff 
ffff80000011b8ed:	bf 18 00 00 00       	mov    $0x18,%edi
ffff80000011b8f2:	48 b8 67 bc 11 00 00 	movabs $0xffff80000011bc67,%rax
ffff80000011b8f9:	80 ff ff 
ffff80000011b8fc:	ff d0                	callq  *%rax
ffff80000011b8fe:	48 be c5 11 12 00 00 	movabs $0xffff8000001211c5,%rsi
ffff80000011b905:	80 ff ff 
ffff80000011b908:	bf 19 00 00 00       	mov    $0x19,%edi
ffff80000011b90d:	48 b8 67 bc 11 00 00 	movabs $0xffff80000011bc67,%rax
ffff80000011b914:	80 ff ff 
ffff80000011b917:	ff d0                	callq  *%rax
ffff80000011b919:	48 be ce 11 12 00 00 	movabs $0xffff8000001211ce,%rsi
ffff80000011b920:	80 ff ff 
ffff80000011b923:	bf 1a 00 00 00       	mov    $0x1a,%edi
ffff80000011b928:	48 b8 67 bc 11 00 00 	movabs $0xffff80000011bc67,%rax
ffff80000011b92f:	80 ff ff 
ffff80000011b932:	ff d0                	callq  *%rax
ffff80000011b934:	48 be d7 11 12 00 00 	movabs $0xffff8000001211d7,%rsi
ffff80000011b93b:	80 ff ff 
ffff80000011b93e:	bf 1b 00 00 00       	mov    $0x1b,%edi
ffff80000011b943:	48 b8 67 bc 11 00 00 	movabs $0xffff80000011bc67,%rax
ffff80000011b94a:	80 ff ff 
ffff80000011b94d:	ff d0                	callq  *%rax
ffff80000011b94f:	48 be dd 11 12 00 00 	movabs $0xffff8000001211dd,%rsi
ffff80000011b956:	80 ff ff 
ffff80000011b959:	bf 1c 00 00 00       	mov    $0x1c,%edi
ffff80000011b95e:	48 b8 67 bc 11 00 00 	movabs $0xffff80000011bc67,%rax
ffff80000011b965:	80 ff ff 
ffff80000011b968:	ff d0                	callq  *%rax
ffff80000011b96a:	48 be e3 11 12 00 00 	movabs $0xffff8000001211e3,%rsi
ffff80000011b971:	80 ff ff 
ffff80000011b974:	bf 1d 00 00 00       	mov    $0x1d,%edi
ffff80000011b979:	48 b8 67 bc 11 00 00 	movabs $0xffff80000011bc67,%rax
ffff80000011b980:	80 ff ff 
ffff80000011b983:	ff d0                	callq  *%rax
ffff80000011b985:	48 be e9 11 12 00 00 	movabs $0xffff8000001211e9,%rsi
ffff80000011b98c:	80 ff ff 
ffff80000011b98f:	bf 1e 00 00 00       	mov    $0x1e,%edi
ffff80000011b994:	48 b8 67 bc 11 00 00 	movabs $0xffff80000011bc67,%rax
ffff80000011b99b:	80 ff ff 
ffff80000011b99e:	ff d0                	callq  *%rax
ffff80000011b9a0:	48 be ef 11 12 00 00 	movabs $0xffff8000001211ef,%rsi
ffff80000011b9a7:	80 ff ff 
ffff80000011b9aa:	bf 1f 00 00 00       	mov    $0x1f,%edi
ffff80000011b9af:	48 b8 67 bc 11 00 00 	movabs $0xffff80000011bc67,%rax
ffff80000011b9b6:	80 ff ff 
ffff80000011b9b9:	ff d0                	callq  *%rax
ffff80000011b9bb:	48 be f5 11 12 00 00 	movabs $0xffff8000001211f5,%rsi
ffff80000011b9c2:	80 ff ff 
ffff80000011b9c5:	bf 20 00 00 00       	mov    $0x20,%edi
ffff80000011b9ca:	48 b8 67 bc 11 00 00 	movabs $0xffff80000011bc67,%rax
ffff80000011b9d1:	80 ff ff 
ffff80000011b9d4:	ff d0                	callq  *%rax
ffff80000011b9d6:	48 be fb 11 12 00 00 	movabs $0xffff8000001211fb,%rsi
ffff80000011b9dd:	80 ff ff 
ffff80000011b9e0:	bf 21 00 00 00       	mov    $0x21,%edi
ffff80000011b9e5:	48 b8 67 bc 11 00 00 	movabs $0xffff80000011bc67,%rax
ffff80000011b9ec:	80 ff ff 
ffff80000011b9ef:	ff d0                	callq  *%rax
ffff80000011b9f1:	48 be 01 12 12 00 00 	movabs $0xffff800000121201,%rsi
ffff80000011b9f8:	80 ff ff 
ffff80000011b9fb:	bf 22 00 00 00       	mov    $0x22,%edi
ffff80000011ba00:	48 b8 67 bc 11 00 00 	movabs $0xffff80000011bc67,%rax
ffff80000011ba07:	80 ff ff 
ffff80000011ba0a:	ff d0                	callq  *%rax
ffff80000011ba0c:	48 be 07 12 12 00 00 	movabs $0xffff800000121207,%rsi
ffff80000011ba13:	80 ff ff 
ffff80000011ba16:	bf 23 00 00 00       	mov    $0x23,%edi
ffff80000011ba1b:	48 b8 67 bc 11 00 00 	movabs $0xffff80000011bc67,%rax
ffff80000011ba22:	80 ff ff 
ffff80000011ba25:	ff d0                	callq  *%rax
ffff80000011ba27:	48 be 0d 12 12 00 00 	movabs $0xffff80000012120d,%rsi
ffff80000011ba2e:	80 ff ff 
ffff80000011ba31:	bf 24 00 00 00       	mov    $0x24,%edi
ffff80000011ba36:	48 b8 67 bc 11 00 00 	movabs $0xffff80000011bc67,%rax
ffff80000011ba3d:	80 ff ff 
ffff80000011ba40:	ff d0                	callq  *%rax
ffff80000011ba42:	48 be 13 12 12 00 00 	movabs $0xffff800000121213,%rsi
ffff80000011ba49:	80 ff ff 
ffff80000011ba4c:	bf 25 00 00 00       	mov    $0x25,%edi
ffff80000011ba51:	48 b8 67 bc 11 00 00 	movabs $0xffff80000011bc67,%rax
ffff80000011ba58:	80 ff ff 
ffff80000011ba5b:	ff d0                	callq  *%rax
ffff80000011ba5d:	48 be 19 12 12 00 00 	movabs $0xffff800000121219,%rsi
ffff80000011ba64:	80 ff ff 
ffff80000011ba67:	bf 26 00 00 00       	mov    $0x26,%edi
ffff80000011ba6c:	48 b8 67 bc 11 00 00 	movabs $0xffff80000011bc67,%rax
ffff80000011ba73:	80 ff ff 
ffff80000011ba76:	ff d0                	callq  *%rax
ffff80000011ba78:	48 be 1f 12 12 00 00 	movabs $0xffff80000012121f,%rsi
ffff80000011ba7f:	80 ff ff 
ffff80000011ba82:	bf 27 00 00 00       	mov    $0x27,%edi
ffff80000011ba87:	48 b8 67 bc 11 00 00 	movabs $0xffff80000011bc67,%rax
ffff80000011ba8e:	80 ff ff 
ffff80000011ba91:	ff d0                	callq  *%rax
ffff80000011ba93:	48 be 25 12 12 00 00 	movabs $0xffff800000121225,%rsi
ffff80000011ba9a:	80 ff ff 
ffff80000011ba9d:	bf 28 00 00 00       	mov    $0x28,%edi
ffff80000011baa2:	48 b8 67 bc 11 00 00 	movabs $0xffff80000011bc67,%rax
ffff80000011baa9:	80 ff ff 
ffff80000011baac:	ff d0                	callq  *%rax
ffff80000011baae:	48 be 2b 12 12 00 00 	movabs $0xffff80000012122b,%rsi
ffff80000011bab5:	80 ff ff 
ffff80000011bab8:	bf 29 00 00 00       	mov    $0x29,%edi
ffff80000011babd:	48 b8 67 bc 11 00 00 	movabs $0xffff80000011bc67,%rax
ffff80000011bac4:	80 ff ff 
ffff80000011bac7:	ff d0                	callq  *%rax
ffff80000011bac9:	48 be 31 12 12 00 00 	movabs $0xffff800000121231,%rsi
ffff80000011bad0:	80 ff ff 
ffff80000011bad3:	bf 2a 00 00 00       	mov    $0x2a,%edi
ffff80000011bad8:	48 b8 67 bc 11 00 00 	movabs $0xffff80000011bc67,%rax
ffff80000011badf:	80 ff ff 
ffff80000011bae2:	ff d0                	callq  *%rax
ffff80000011bae4:	48 be 37 12 12 00 00 	movabs $0xffff800000121237,%rsi
ffff80000011baeb:	80 ff ff 
ffff80000011baee:	bf 2b 00 00 00       	mov    $0x2b,%edi
ffff80000011baf3:	48 b8 67 bc 11 00 00 	movabs $0xffff80000011bc67,%rax
ffff80000011bafa:	80 ff ff 
ffff80000011bafd:	ff d0                	callq  *%rax
ffff80000011baff:	48 be 3d 12 12 00 00 	movabs $0xffff80000012123d,%rsi
ffff80000011bb06:	80 ff ff 
ffff80000011bb09:	bf 2c 00 00 00       	mov    $0x2c,%edi
ffff80000011bb0e:	48 b8 67 bc 11 00 00 	movabs $0xffff80000011bc67,%rax
ffff80000011bb15:	80 ff ff 
ffff80000011bb18:	ff d0                	callq  *%rax
ffff80000011bb1a:	48 be 43 12 12 00 00 	movabs $0xffff800000121243,%rsi
ffff80000011bb21:	80 ff ff 
ffff80000011bb24:	bf 2d 00 00 00       	mov    $0x2d,%edi
ffff80000011bb29:	48 b8 67 bc 11 00 00 	movabs $0xffff80000011bc67,%rax
ffff80000011bb30:	80 ff ff 
ffff80000011bb33:	ff d0                	callq  *%rax
ffff80000011bb35:	48 be 49 12 12 00 00 	movabs $0xffff800000121249,%rsi
ffff80000011bb3c:	80 ff ff 
ffff80000011bb3f:	bf 2e 00 00 00       	mov    $0x2e,%edi
ffff80000011bb44:	48 b8 67 bc 11 00 00 	movabs $0xffff80000011bc67,%rax
ffff80000011bb4b:	80 ff ff 
ffff80000011bb4e:	ff d0                	callq  *%rax
ffff80000011bb50:	48 be 4f 12 12 00 00 	movabs $0xffff80000012124f,%rsi
ffff80000011bb57:	80 ff ff 
ffff80000011bb5a:	bf 2f 00 00 00       	mov    $0x2f,%edi
ffff80000011bb5f:	48 b8 67 bc 11 00 00 	movabs $0xffff80000011bc67,%rax
ffff80000011bb66:	80 ff ff 
ffff80000011bb69:	ff d0                	callq  *%rax
ffff80000011bb6b:	48 be 55 12 12 00 00 	movabs $0xffff800000121255,%rsi
ffff80000011bb72:	80 ff ff 
ffff80000011bb75:	bf 63 00 00 00       	mov    $0x63,%edi
ffff80000011bb7a:	48 b8 67 bc 11 00 00 	movabs $0xffff80000011bc67,%rax
ffff80000011bb81:	80 ff ff 
ffff80000011bb84:	ff d0                	callq  *%rax
ffff80000011bb86:	90                   	nop
ffff80000011bb87:	5d                   	pop    %rbp
ffff80000011bb88:	c3                   	retq   

ffff80000011bb89 <idt_init>:
ffff80000011bb89:	55                   	push   %rbp
ffff80000011bb8a:	48 89 e5             	mov    %rsp,%rbp
ffff80000011bb8d:	48 ba 30 2e 12 00 00 	movabs $0xffff800000122e30,%rdx
ffff80000011bb94:	80 ff ff 
ffff80000011bb97:	48 b8 20 2e 12 00 00 	movabs $0xffff800000122e20,%rax
ffff80000011bb9e:	80 ff ff 
ffff80000011bba1:	48 89 50 02          	mov    %rdx,0x2(%rax)
ffff80000011bba5:	48 b8 20 2e 12 00 00 	movabs $0xffff800000122e20,%rax
ffff80000011bbac:	80 ff ff 
ffff80000011bbaf:	66 c7 00 3f 06       	movw   $0x63f,(%rax)
ffff80000011bbb4:	b8 00 00 00 00       	mov    $0x0,%eax
ffff80000011bbb9:	48 ba 0d b6 11 00 00 	movabs $0xffff80000011b60d,%rdx
ffff80000011bbc0:	80 ff ff 
ffff80000011bbc3:	ff d2                	callq  *%rdx
ffff80000011bbc5:	48 bf 20 2e 12 00 00 	movabs $0xffff800000122e20,%rdi
ffff80000011bbcc:	80 ff ff 
ffff80000011bbcf:	b8 00 00 00 00       	mov    $0x0,%eax
ffff80000011bbd4:	48 ba d5 12 12 00 00 	movabs $0xffff8000001212d5,%rdx
ffff80000011bbdb:	80 ff ff 
ffff80000011bbde:	ff d2                	callq  *%rdx
ffff80000011bbe0:	48 bf ef 13 12 00 00 	movabs $0xffff8000001213ef,%rdi
ffff80000011bbe7:	80 ff ff 
ffff80000011bbea:	b8 00 00 00 00       	mov    $0x0,%eax
ffff80000011bbef:	48 ba 32 f8 11 00 00 	movabs $0xffff80000011f832,%rdx
ffff80000011bbf6:	80 ff ff 
ffff80000011bbf9:	ff d2                	callq  *%rdx
ffff80000011bbfb:	48 b8 80 34 12 00 00 	movabs $0xffff800000123480,%rax
ffff80000011bc02:	80 ff ff 
ffff80000011bc05:	48 b9 b0 d6 11 00 00 	movabs $0xffff80000011d6b0,%rcx
ffff80000011bc0c:	80 ff ff 
ffff80000011bc0f:	48 89 88 00 01 00 00 	mov    %rcx,0x100(%rax)
ffff80000011bc16:	48 b8 80 34 12 00 00 	movabs $0xffff800000123480,%rax
ffff80000011bc1d:	80 ff ff 
ffff80000011bc20:	48 be 73 cc 11 00 00 	movabs $0xffff80000011cc73,%rsi
ffff80000011bc27:	80 ff ff 
ffff80000011bc2a:	48 89 b0 08 01 00 00 	mov    %rsi,0x108(%rax)
ffff80000011bc31:	48 b8 80 34 12 00 00 	movabs $0xffff800000123480,%rax
ffff80000011bc38:	80 ff ff 
ffff80000011bc3b:	48 b9 ff b0 11 00 00 	movabs $0xffff80000011b0ff,%rcx
ffff80000011bc42:	80 ff ff 
ffff80000011bc45:	48 89 48 38          	mov    %rcx,0x38(%rax)
ffff80000011bc49:	48 b8 80 34 12 00 00 	movabs $0xffff800000123480,%rax
ffff80000011bc50:	80 ff ff 
ffff80000011bc53:	48 be 74 c7 11 00 00 	movabs $0xffff80000011c774,%rsi
ffff80000011bc5a:	80 ff ff 
ffff80000011bc5d:	48 89 b0 18 03 00 00 	mov    %rsi,0x318(%rax)
ffff80000011bc64:	90                   	nop
ffff80000011bc65:	5d                   	pop    %rbp
ffff80000011bc66:	c3                   	retq   

ffff80000011bc67 <set_idt_entry>:
ffff80000011bc67:	55                   	push   %rbp
ffff80000011bc68:	48 89 e5             	mov    %rsp,%rbp
ffff80000011bc6b:	89 7d fc             	mov    %edi,-0x4(%rbp)
ffff80000011bc6e:	48 89 75 f0          	mov    %rsi,-0x10(%rbp)
ffff80000011bc72:	48 8b 45 f0          	mov    -0x10(%rbp),%rax
ffff80000011bc76:	89 c1                	mov    %eax,%ecx
ffff80000011bc78:	48 b8 20 2e 12 00 00 	movabs $0xffff800000122e20,%rax
ffff80000011bc7f:	80 ff ff 
ffff80000011bc82:	8b 55 fc             	mov    -0x4(%rbp),%edx
ffff80000011bc85:	48 63 d2             	movslq %edx,%rdx
ffff80000011bc88:	48 83 c2 01          	add    $0x1,%rdx
ffff80000011bc8c:	48 c1 e2 04          	shl    $0x4,%rdx
ffff80000011bc90:	48 01 d0             	add    %rdx,%rax
ffff80000011bc93:	66 89 08             	mov    %cx,(%rax)
ffff80000011bc96:	48 b8 20 2e 12 00 00 	movabs $0xffff800000122e20,%rax
ffff80000011bc9d:	80 ff ff 
ffff80000011bca0:	8b 55 fc             	mov    -0x4(%rbp),%edx
ffff80000011bca3:	48 63 d2             	movslq %edx,%rdx
ffff80000011bca6:	48 83 c2 01          	add    $0x1,%rdx
ffff80000011bcaa:	48 c1 e2 04          	shl    $0x4,%rdx
ffff80000011bcae:	48 01 d0             	add    %rdx,%rax
ffff80000011bcb1:	66 c7 40 02 08 00    	movw   $0x8,0x2(%rax)
ffff80000011bcb7:	48 b8 20 2e 12 00 00 	movabs $0xffff800000122e20,%rax
ffff80000011bcbe:	80 ff ff 
ffff80000011bcc1:	8b 55 fc             	mov    -0x4(%rbp),%edx
ffff80000011bcc4:	48 63 d2             	movslq %edx,%rdx
ffff80000011bcc7:	48 83 c2 01          	add    $0x1,%rdx
ffff80000011bccb:	48 c1 e2 04          	shl    $0x4,%rdx
ffff80000011bccf:	48 01 d0             	add    %rdx,%rax
ffff80000011bcd2:	48 83 c0 04          	add    $0x4,%rax
ffff80000011bcd6:	c6 00 01             	movb   $0x1,(%rax)
ffff80000011bcd9:	48 b8 20 2e 12 00 00 	movabs $0xffff800000122e20,%rax
ffff80000011bce0:	80 ff ff 
ffff80000011bce3:	8b 55 fc             	mov    -0x4(%rbp),%edx
ffff80000011bce6:	48 63 d2             	movslq %edx,%rdx
ffff80000011bce9:	48 83 c2 01          	add    $0x1,%rdx
ffff80000011bced:	48 c1 e2 04          	shl    $0x4,%rdx
ffff80000011bcf1:	48 01 d0             	add    %rdx,%rax
ffff80000011bcf4:	48 83 c0 05          	add    $0x5,%rax
ffff80000011bcf8:	c6 00 8e             	movb   $0x8e,(%rax)
ffff80000011bcfb:	48 8b 45 f0          	mov    -0x10(%rbp),%rax
ffff80000011bcff:	48 c1 e8 10          	shr    $0x10,%rax
ffff80000011bd03:	89 c1                	mov    %eax,%ecx
ffff80000011bd05:	48 b8 20 2e 12 00 00 	movabs $0xffff800000122e20,%rax
ffff80000011bd0c:	80 ff ff 
ffff80000011bd0f:	8b 55 fc             	mov    -0x4(%rbp),%edx
ffff80000011bd12:	48 63 d2             	movslq %edx,%rdx
ffff80000011bd15:	48 83 c2 01          	add    $0x1,%rdx
ffff80000011bd19:	48 c1 e2 04          	shl    $0x4,%rdx
ffff80000011bd1d:	48 01 d0             	add    %rdx,%rax
ffff80000011bd20:	66 89 48 06          	mov    %cx,0x6(%rax)
ffff80000011bd24:	48 8b 45 f0          	mov    -0x10(%rbp),%rax
ffff80000011bd28:	48 c1 e8 20          	shr    $0x20,%rax
ffff80000011bd2c:	89 c1                	mov    %eax,%ecx
ffff80000011bd2e:	48 b8 20 2e 12 00 00 	movabs $0xffff800000122e20,%rax
ffff80000011bd35:	80 ff ff 
ffff80000011bd38:	8b 55 fc             	mov    -0x4(%rbp),%edx
ffff80000011bd3b:	48 63 d2             	movslq %edx,%rdx
ffff80000011bd3e:	48 83 c2 01          	add    $0x1,%rdx
ffff80000011bd42:	48 c1 e2 04          	shl    $0x4,%rdx
ffff80000011bd46:	48 01 d0             	add    %rdx,%rax
ffff80000011bd49:	89 48 08             	mov    %ecx,0x8(%rax)
ffff80000011bd4c:	48 b8 20 2e 12 00 00 	movabs $0xffff800000122e20,%rax
ffff80000011bd53:	80 ff ff 
ffff80000011bd56:	8b 55 fc             	mov    -0x4(%rbp),%edx
ffff80000011bd59:	48 63 d2             	movslq %edx,%rdx
ffff80000011bd5c:	48 83 c2 01          	add    $0x1,%rdx
ffff80000011bd60:	48 c1 e2 04          	shl    $0x4,%rdx
ffff80000011bd64:	48 01 d0             	add    %rdx,%rax
ffff80000011bd67:	c7 40 0c 00 00 00 00 	movl   $0x0,0xc(%rax)
ffff80000011bd6e:	90                   	nop
ffff80000011bd6f:	5d                   	pop    %rbp
ffff80000011bd70:	c3                   	retq   

ffff80000011bd71 <common_intr_handler>:
ffff80000011bd71:	55                   	push   %rbp
ffff80000011bd72:	48 89 e5             	mov    %rsp,%rbp
ffff80000011bd75:	48 83 ec 50          	sub    $0x50,%rsp
ffff80000011bd79:	48 89 7d b8          	mov    %rdi,-0x48(%rbp)
ffff80000011bd7d:	48 b8 18 c7 11 00 00 	movabs $0xffff80000011c718,%rax
ffff80000011bd84:	80 ff ff 
ffff80000011bd87:	ff d0                	callq  *%rax
ffff80000011bd89:	0f b6 f0             	movzbl %al,%esi
ffff80000011bd8c:	48 8b 45 b8          	mov    -0x48(%rbp),%rax
ffff80000011bd90:	48 8b 88 98 00 00 00 	mov    0x98(%rax),%rcx
ffff80000011bd97:	48 b8 20 2a 12 00 00 	movabs $0xffff800000122a20,%rax
ffff80000011bd9e:	80 ff ff 
ffff80000011bda1:	8b 00                	mov    (%rax),%eax
ffff80000011bda3:	8d 50 01             	lea    0x1(%rax),%edx
ffff80000011bda6:	48 b8 20 2a 12 00 00 	movabs $0xffff800000122a20,%rax
ffff80000011bdad:	80 ff ff 
ffff80000011bdb0:	89 10                	mov    %edx,(%rax)
ffff80000011bdb2:	48 b8 20 2a 12 00 00 	movabs $0xffff800000122a20,%rax
ffff80000011bdb9:	80 ff ff 
ffff80000011bdbc:	8b 10                	mov    (%rax),%edx
ffff80000011bdbe:	48 8d 45 c0          	lea    -0x40(%rbp),%rax
ffff80000011bdc2:	41 89 f0             	mov    %esi,%r8d
ffff80000011bdc5:	48 be 00 14 12 00 00 	movabs $0xffff800000121400,%rsi
ffff80000011bdcc:	80 ff ff 
ffff80000011bdcf:	48 89 c7             	mov    %rax,%rdi
ffff80000011bdd2:	b8 00 00 00 00       	mov    $0x0,%eax
ffff80000011bdd7:	49 b9 7a f9 11 00 00 	movabs $0xffff80000011f97a,%r9
ffff80000011bdde:	80 ff ff 
ffff80000011bde1:	41 ff d1             	callq  *%r9
ffff80000011bde4:	48 8d 45 c0          	lea    -0x40(%rbp),%rax
ffff80000011bde8:	48 89 c2             	mov    %rax,%rdx
ffff80000011bdeb:	be 00 00 00 00       	mov    $0x0,%esi
ffff80000011bdf0:	bf 00 00 00 00       	mov    $0x0,%edi
ffff80000011bdf5:	b8 00 00 00 00       	mov    $0x0,%eax
ffff80000011bdfa:	48 b9 e8 cb 11 00 00 	movabs $0xffff80000011cbe8,%rcx
ffff80000011be01:	80 ff ff 
ffff80000011be04:	ff d1                	callq  *%rcx
ffff80000011be06:	48 b8 18 c7 11 00 00 	movabs $0xffff80000011c718,%rax
ffff80000011be0d:	80 ff ff 
ffff80000011be10:	ff d0                	callq  *%rax
ffff80000011be12:	0f b6 c0             	movzbl %al,%eax
ffff80000011be15:	89 c7                	mov    %eax,%edi
ffff80000011be17:	48 b8 c8 0a 12 00 00 	movabs $0xffff800000120ac8,%rax
ffff80000011be1e:	80 ff ff 
ffff80000011be21:	ff d0                	callq  *%rax
ffff80000011be23:	48 89 45 f8          	mov    %rax,-0x8(%rbp)
ffff80000011be27:	48 8b 45 f8          	mov    -0x8(%rbp),%rax
ffff80000011be2b:	48 8d 48 20          	lea    0x20(%rax),%rcx
ffff80000011be2f:	48 8b 45 b8          	mov    -0x48(%rbp),%rax
ffff80000011be33:	ba d0 00 00 00       	mov    $0xd0,%edx
ffff80000011be38:	48 89 c6             	mov    %rax,%rsi
ffff80000011be3b:	48 89 cf             	mov    %rcx,%rdi
ffff80000011be3e:	48 b8 7e 00 12 00 00 	movabs $0xffff80000012007e,%rax
ffff80000011be45:	80 ff ff 
ffff80000011be48:	ff d0                	callq  *%rax
ffff80000011be4a:	48 8b 45 b8          	mov    -0x48(%rbp),%rax
ffff80000011be4e:	48 8b 80 98 00 00 00 	mov    0x98(%rax),%rax
ffff80000011be55:	89 45 f4             	mov    %eax,-0xc(%rbp)
ffff80000011be58:	48 b8 80 34 12 00 00 	movabs $0xffff800000123480,%rax
ffff80000011be5f:	80 ff ff 
ffff80000011be62:	8b 55 f4             	mov    -0xc(%rbp),%edx
ffff80000011be65:	48 63 d2             	movslq %edx,%rdx
ffff80000011be68:	48 8b 04 d0          	mov    (%rax,%rdx,8),%rax
ffff80000011be6c:	48 89 45 e8          	mov    %rax,-0x18(%rbp)
ffff80000011be70:	48 83 7d e8 00       	cmpq   $0x0,-0x18(%rbp)
ffff80000011be75:	74 0d                	je     ffff80000011be84 <common_intr_handler+0x113>
ffff80000011be77:	48 8b 55 e8          	mov    -0x18(%rbp),%rdx
ffff80000011be7b:	b8 00 00 00 00       	mov    $0x0,%eax
ffff80000011be80:	ff d2                	callq  *%rdx
ffff80000011be82:	eb 13                	jmp    ffff80000011be97 <common_intr_handler+0x126>
ffff80000011be84:	48 8b 45 b8          	mov    -0x48(%rbp),%rax
ffff80000011be88:	48 89 c7             	mov    %rax,%rdi
ffff80000011be8b:	48 b8 6b bf 11 00 00 	movabs $0xffff80000011bf6b,%rax
ffff80000011be92:	80 ff ff 
ffff80000011be95:	ff d0                	callq  *%rax
ffff80000011be97:	83 7d f4 1f          	cmpl   $0x1f,-0xc(%rbp)
ffff80000011be9b:	7e 2e                	jle    ffff80000011becb <common_intr_handler+0x15a>
ffff80000011be9d:	83 7d f4 62          	cmpl   $0x62,-0xc(%rbp)
ffff80000011bea1:	7f 28                	jg     ffff80000011becb <common_intr_handler+0x15a>
ffff80000011bea3:	83 7d f4 20          	cmpl   $0x20,-0xc(%rbp)
ffff80000011bea7:	74 11                	je     ffff80000011beba <common_intr_handler+0x149>
ffff80000011bea9:	8b 45 f4             	mov    -0xc(%rbp),%eax
ffff80000011beac:	89 c7                	mov    %eax,%edi
ffff80000011beae:	48 b8 12 bf 11 00 00 	movabs $0xffff80000011bf12,%rax
ffff80000011beb5:	80 ff ff 
ffff80000011beb8:	ff d0                	callq  *%rax
ffff80000011beba:	b8 00 00 00 00       	mov    $0x0,%eax
ffff80000011bebf:	48 ba 3c c3 11 00 00 	movabs $0xffff80000011c33c,%rdx
ffff80000011bec6:	80 ff ff 
ffff80000011bec9:	ff d2                	callq  *%rdx
ffff80000011becb:	48 b8 18 c7 11 00 00 	movabs $0xffff80000011c718,%rax
ffff80000011bed2:	80 ff ff 
ffff80000011bed5:	ff d0                	callq  *%rax
ffff80000011bed7:	0f b6 c0             	movzbl %al,%eax
ffff80000011beda:	89 c7                	mov    %eax,%edi
ffff80000011bedc:	48 b8 c8 0a 12 00 00 	movabs $0xffff800000120ac8,%rax
ffff80000011bee3:	80 ff ff 
ffff80000011bee6:	ff d0                	callq  *%rax
ffff80000011bee8:	48 89 45 f8          	mov    %rax,-0x8(%rbp)
ffff80000011beec:	48 8b 45 f8          	mov    -0x8(%rbp),%rax
ffff80000011bef0:	48 8d 48 20          	lea    0x20(%rax),%rcx
ffff80000011bef4:	48 8b 45 b8          	mov    -0x48(%rbp),%rax
ffff80000011bef8:	ba d0 00 00 00       	mov    $0xd0,%edx
ffff80000011befd:	48 89 ce             	mov    %rcx,%rsi
ffff80000011bf00:	48 89 c7             	mov    %rax,%rdi
ffff80000011bf03:	48 b8 7e 00 12 00 00 	movabs $0xffff80000012007e,%rax
ffff80000011bf0a:	80 ff ff 
ffff80000011bf0d:	ff d0                	callq  *%rax
ffff80000011bf0f:	90                   	nop
ffff80000011bf10:	c9                   	leaveq 
ffff80000011bf11:	c3                   	retq   

ffff80000011bf12 <intr_balancing>:
ffff80000011bf12:	55                   	push   %rbp
ffff80000011bf13:	48 89 e5             	mov    %rsp,%rbp
ffff80000011bf16:	48 83 ec 20          	sub    $0x20,%rsp
ffff80000011bf1a:	89 7d ec             	mov    %edi,-0x14(%rbp)
ffff80000011bf1d:	48 b8 18 c7 11 00 00 	movabs $0xffff80000011c718,%rax
ffff80000011bf24:	80 ff ff 
ffff80000011bf27:	ff d0                	callq  *%rax
ffff80000011bf29:	88 45 ff             	mov    %al,-0x1(%rbp)
ffff80000011bf2c:	0f b6 45 ff          	movzbl -0x1(%rbp),%eax
ffff80000011bf30:	8d 50 01             	lea    0x1(%rax),%edx
ffff80000011bf33:	89 d0                	mov    %edx,%eax
ffff80000011bf35:	c1 f8 1f             	sar    $0x1f,%eax
ffff80000011bf38:	c1 e8 1e             	shr    $0x1e,%eax
ffff80000011bf3b:	01 c2                	add    %eax,%edx
ffff80000011bf3d:	83 e2 03             	and    $0x3,%edx
ffff80000011bf40:	29 c2                	sub    %eax,%edx
ffff80000011bf42:	89 d0                	mov    %edx,%eax
ffff80000011bf44:	89 c7                	mov    %eax,%edi
ffff80000011bf46:	48 b8 3f c6 11 00 00 	movabs $0xffff80000011c63f,%rax
ffff80000011bf4d:	80 ff ff 
ffff80000011bf50:	ff d0                	callq  *%rax
ffff80000011bf52:	0f b6 d0             	movzbl %al,%edx
ffff80000011bf55:	8b 45 ec             	mov    -0x14(%rbp),%eax
ffff80000011bf58:	89 d6                	mov    %edx,%esi
ffff80000011bf5a:	89 c7                	mov    %eax,%edi
ffff80000011bf5c:	48 b8 79 c2 11 00 00 	movabs $0xffff80000011c279,%rax
ffff80000011bf63:	80 ff ff 
ffff80000011bf66:	ff d0                	callq  *%rax
ffff80000011bf68:	90                   	nop
ffff80000011bf69:	c9                   	leaveq 
ffff80000011bf6a:	c3                   	retq   

ffff80000011bf6b <no_intr_handler_panic>:
ffff80000011bf6b:	55                   	push   %rbp
ffff80000011bf6c:	48 89 e5             	mov    %rsp,%rbp
ffff80000011bf6f:	48 83 ec 10          	sub    $0x10,%rsp
ffff80000011bf73:	48 89 7d f8          	mov    %rdi,-0x8(%rbp)
ffff80000011bf77:	48 bf 30 14 12 00 00 	movabs $0xffff800000121430,%rdi
ffff80000011bf7e:	80 ff ff 
ffff80000011bf81:	b8 00 00 00 00       	mov    $0x0,%eax
ffff80000011bf86:	48 ba 32 f8 11 00 00 	movabs $0xffff80000011f832,%rdx
ffff80000011bf8d:	80 ff ff 
ffff80000011bf90:	ff d2                	callq  *%rdx
ffff80000011bf92:	48 8b 45 f8          	mov    -0x8(%rbp),%rax
ffff80000011bf96:	48 8b 80 98 00 00 00 	mov    0x98(%rax),%rax
ffff80000011bf9d:	48 89 c6             	mov    %rax,%rsi
ffff80000011bfa0:	48 bf 58 14 12 00 00 	movabs $0xffff800000121458,%rdi
ffff80000011bfa7:	80 ff ff 
ffff80000011bfaa:	b8 00 00 00 00       	mov    $0x0,%eax
ffff80000011bfaf:	48 ba 32 f8 11 00 00 	movabs $0xffff80000011f832,%rdx
ffff80000011bfb6:	80 ff ff 
ffff80000011bfb9:	ff d2                	callq  *%rdx
ffff80000011bfbb:	48 bf 30 14 12 00 00 	movabs $0xffff800000121430,%rdi
ffff80000011bfc2:	80 ff ff 
ffff80000011bfc5:	b8 00 00 00 00       	mov    $0x0,%eax
ffff80000011bfca:	48 ba 32 f8 11 00 00 	movabs $0xffff80000011f832,%rdx
ffff80000011bfd1:	80 ff ff 
ffff80000011bfd4:	ff d2                	callq  *%rdx
ffff80000011bfd6:	48 8b 45 f8          	mov    -0x8(%rbp),%rax
ffff80000011bfda:	48 89 c7             	mov    %rax,%rdi
ffff80000011bfdd:	48 b8 ec fd 11 00 00 	movabs $0xffff80000011fdec,%rax
ffff80000011bfe4:	80 ff ff 
ffff80000011bfe7:	ff d0                	callq  *%rax
ffff80000011bfe9:	fa                   	cli    
ffff80000011bfea:	f4                   	hlt    
ffff80000011bfeb:	eb fd                	jmp    ffff80000011bfea <no_intr_handler_panic+0x7f>

ffff80000011bfed <ioapic_base_vaddr>:
ffff80000011bfed:	55                   	push   %rbp
ffff80000011bfee:	48 89 e5             	mov    %rsp,%rbp
ffff80000011bff1:	48 b8 a0 37 12 00 00 	movabs $0xffff8000001237a0,%rax
ffff80000011bff8:	80 ff ff 
ffff80000011bffb:	48 8b 50 20          	mov    0x20(%rax),%rdx
ffff80000011bfff:	48 b8 00 00 00 00 00 	movabs $0xffff800000000000,%rax
ffff80000011c006:	80 ff ff 
ffff80000011c009:	48 01 d0             	add    %rdx,%rax
ffff80000011c00c:	5d                   	pop    %rbp
ffff80000011c00d:	c3                   	retq   

ffff80000011c00e <set_ioapic_redirection_entry>:
ffff80000011c00e:	55                   	push   %rbp
ffff80000011c00f:	48 89 e5             	mov    %rsp,%rbp
ffff80000011c012:	48 83 ec 20          	sub    $0x20,%rsp
ffff80000011c016:	48 89 7d f8          	mov    %rdi,-0x8(%rbp)
ffff80000011c01a:	89 c8                	mov    %ecx,%eax
ffff80000011c01c:	44 89 c1             	mov    %r8d,%ecx
ffff80000011c01f:	40 88 75 f4          	mov    %sil,-0xc(%rbp)
ffff80000011c023:	88 55 f0             	mov    %dl,-0x10(%rbp)
ffff80000011c026:	88 45 ec             	mov    %al,-0x14(%rbp)
ffff80000011c029:	88 4d e8             	mov    %cl,-0x18(%rbp)
ffff80000011c02c:	48 8b 45 f8          	mov    -0x8(%rbp),%rax
ffff80000011c030:	ba 08 00 00 00       	mov    $0x8,%edx
ffff80000011c035:	be 00 00 00 00       	mov    $0x0,%esi
ffff80000011c03a:	48 89 c7             	mov    %rax,%rdi
ffff80000011c03d:	b8 00 00 00 00       	mov    $0x0,%eax
ffff80000011c042:	48 b9 50 00 12 00 00 	movabs $0xffff800000120050,%rcx
ffff80000011c049:	80 ff ff 
ffff80000011c04c:	ff d1                	callq  *%rcx
ffff80000011c04e:	48 8b 45 f8          	mov    -0x8(%rbp),%rax
ffff80000011c052:	0f b6 55 f4          	movzbl -0xc(%rbp),%edx
ffff80000011c056:	88 50 07             	mov    %dl,0x7(%rax)
ffff80000011c059:	48 8b 45 f8          	mov    -0x8(%rbp),%rax
ffff80000011c05d:	0f b6 55 ec          	movzbl -0x14(%rbp),%edx
ffff80000011c061:	88 50 01             	mov    %dl,0x1(%rax)
ffff80000011c064:	48 8b 45 f8          	mov    -0x8(%rbp),%rax
ffff80000011c068:	0f b6 55 f0          	movzbl -0x10(%rbp),%edx
ffff80000011c06c:	88 50 02             	mov    %dl,0x2(%rax)
ffff80000011c06f:	48 8b 45 f8          	mov    -0x8(%rbp),%rax
ffff80000011c073:	0f b6 55 e8          	movzbl -0x18(%rbp),%edx
ffff80000011c077:	88 10                	mov    %dl,(%rax)
ffff80000011c079:	90                   	nop
ffff80000011c07a:	c9                   	leaveq 
ffff80000011c07b:	c3                   	retq   

ffff80000011c07c <read_ioapic_redirection_table>:
ffff80000011c07c:	55                   	push   %rbp
ffff80000011c07d:	48 89 e5             	mov    %rsp,%rbp
ffff80000011c080:	48 83 ec 20          	sub    $0x20,%rsp
ffff80000011c084:	89 7d ec             	mov    %edi,-0x14(%rbp)
ffff80000011c087:	48 89 75 e0          	mov    %rsi,-0x20(%rbp)
ffff80000011c08b:	48 b8 ed bf 11 00 00 	movabs $0xffff80000011bfed,%rax
ffff80000011c092:	80 ff ff 
ffff80000011c095:	ff d0                	callq  *%rax
ffff80000011c097:	48 89 45 f8          	mov    %rax,-0x8(%rbp)
ffff80000011c09b:	48 8b 45 e0          	mov    -0x20(%rbp),%rax
ffff80000011c09f:	48 89 45 f0          	mov    %rax,-0x10(%rbp)
ffff80000011c0a3:	48 8b 45 f8          	mov    -0x8(%rbp),%rax
ffff80000011c0a7:	8b 55 ec             	mov    -0x14(%rbp),%edx
ffff80000011c0aa:	01 d2                	add    %edx,%edx
ffff80000011c0ac:	83 c2 11             	add    $0x11,%edx
ffff80000011c0af:	89 10                	mov    %edx,(%rax)
ffff80000011c0b1:	48 8b 45 f8          	mov    -0x8(%rbp),%rax
ffff80000011c0b5:	48 83 c0 10          	add    $0x10,%rax
ffff80000011c0b9:	8b 00                	mov    (%rax),%eax
ffff80000011c0bb:	89 c2                	mov    %eax,%edx
ffff80000011c0bd:	48 8b 45 f0          	mov    -0x10(%rbp),%rax
ffff80000011c0c1:	48 89 10             	mov    %rdx,(%rax)
ffff80000011c0c4:	48 8b 45 f0          	mov    -0x10(%rbp),%rax
ffff80000011c0c8:	48 8b 00             	mov    (%rax),%rax
ffff80000011c0cb:	48 c1 e0 20          	shl    $0x20,%rax
ffff80000011c0cf:	48 89 c2             	mov    %rax,%rdx
ffff80000011c0d2:	48 8b 45 f0          	mov    -0x10(%rbp),%rax
ffff80000011c0d6:	48 89 10             	mov    %rdx,(%rax)
ffff80000011c0d9:	48 8b 45 f8          	mov    -0x8(%rbp),%rax
ffff80000011c0dd:	8b 55 ec             	mov    -0x14(%rbp),%edx
ffff80000011c0e0:	83 c2 08             	add    $0x8,%edx
ffff80000011c0e3:	01 d2                	add    %edx,%edx
ffff80000011c0e5:	89 10                	mov    %edx,(%rax)
ffff80000011c0e7:	48 8b 45 f0          	mov    -0x10(%rbp),%rax
ffff80000011c0eb:	48 8b 00             	mov    (%rax),%rax
ffff80000011c0ee:	48 8b 55 f8          	mov    -0x8(%rbp),%rdx
ffff80000011c0f2:	48 83 c2 10          	add    $0x10,%rdx
ffff80000011c0f6:	8b 12                	mov    (%rdx),%edx
ffff80000011c0f8:	89 d2                	mov    %edx,%edx
ffff80000011c0fa:	48 09 c2             	or     %rax,%rdx
ffff80000011c0fd:	48 8b 45 f0          	mov    -0x10(%rbp),%rax
ffff80000011c101:	48 89 10             	mov    %rdx,(%rax)
ffff80000011c104:	90                   	nop
ffff80000011c105:	c9                   	leaveq 
ffff80000011c106:	c3                   	retq   

ffff80000011c107 <write_ioapic_redirection_table>:
ffff80000011c107:	55                   	push   %rbp
ffff80000011c108:	48 89 e5             	mov    %rsp,%rbp
ffff80000011c10b:	48 83 ec 20          	sub    $0x20,%rsp
ffff80000011c10f:	89 7d ec             	mov    %edi,-0x14(%rbp)
ffff80000011c112:	48 89 75 e0          	mov    %rsi,-0x20(%rbp)
ffff80000011c116:	48 b8 ed bf 11 00 00 	movabs $0xffff80000011bfed,%rax
ffff80000011c11d:	80 ff ff 
ffff80000011c120:	ff d0                	callq  *%rax
ffff80000011c122:	48 89 45 f8          	mov    %rax,-0x8(%rbp)
ffff80000011c126:	48 8b 45 e0          	mov    -0x20(%rbp),%rax
ffff80000011c12a:	48 89 45 f0          	mov    %rax,-0x10(%rbp)
ffff80000011c12e:	48 8b 45 f8          	mov    -0x8(%rbp),%rax
ffff80000011c132:	8b 55 ec             	mov    -0x14(%rbp),%edx
ffff80000011c135:	01 d2                	add    %edx,%edx
ffff80000011c137:	83 c2 11             	add    $0x11,%edx
ffff80000011c13a:	89 10                	mov    %edx,(%rax)
ffff80000011c13c:	48 8b 45 f8          	mov    -0x8(%rbp),%rax
ffff80000011c140:	48 83 c0 10          	add    $0x10,%rax
ffff80000011c144:	48 89 c2             	mov    %rax,%rdx
ffff80000011c147:	48 8b 45 f0          	mov    -0x10(%rbp),%rax
ffff80000011c14b:	48 8b 00             	mov    (%rax),%rax
ffff80000011c14e:	48 c1 e8 20          	shr    $0x20,%rax
ffff80000011c152:	89 02                	mov    %eax,(%rdx)
ffff80000011c154:	48 8b 45 f8          	mov    -0x8(%rbp),%rax
ffff80000011c158:	8b 55 ec             	mov    -0x14(%rbp),%edx
ffff80000011c15b:	83 c2 08             	add    $0x8,%edx
ffff80000011c15e:	01 d2                	add    %edx,%edx
ffff80000011c160:	89 10                	mov    %edx,(%rax)
ffff80000011c162:	48 8b 45 f8          	mov    -0x8(%rbp),%rax
ffff80000011c166:	48 83 c0 10          	add    $0x10,%rax
ffff80000011c16a:	48 89 c2             	mov    %rax,%rdx
ffff80000011c16d:	48 8b 45 f0          	mov    -0x10(%rbp),%rax
ffff80000011c171:	48 8b 00             	mov    (%rax),%rax
ffff80000011c174:	89 02                	mov    %eax,(%rdx)
ffff80000011c176:	90                   	nop
ffff80000011c177:	c9                   	leaveq 
ffff80000011c178:	c3                   	retq   

ffff80000011c179 <mask_all_intr_ioapic>:
ffff80000011c179:	55                   	push   %rbp
ffff80000011c17a:	48 89 e5             	mov    %rsp,%rbp
ffff80000011c17d:	48 83 ec 10          	sub    $0x10,%rsp
ffff80000011c181:	c7 45 fc 00 00 00 00 	movl   $0x0,-0x4(%rbp)
ffff80000011c188:	eb 38                	jmp    ffff80000011c1c2 <mask_all_intr_ioapic+0x49>
ffff80000011c18a:	48 8d 55 f0          	lea    -0x10(%rbp),%rdx
ffff80000011c18e:	8b 45 fc             	mov    -0x4(%rbp),%eax
ffff80000011c191:	48 89 d6             	mov    %rdx,%rsi
ffff80000011c194:	89 c7                	mov    %eax,%edi
ffff80000011c196:	48 b8 7c c0 11 00 00 	movabs $0xffff80000011c07c,%rax
ffff80000011c19d:	80 ff ff 
ffff80000011c1a0:	ff d0                	callq  *%rax
ffff80000011c1a2:	c6 45 f2 01          	movb   $0x1,-0xe(%rbp)
ffff80000011c1a6:	48 8d 55 f0          	lea    -0x10(%rbp),%rdx
ffff80000011c1aa:	8b 45 fc             	mov    -0x4(%rbp),%eax
ffff80000011c1ad:	48 89 d6             	mov    %rdx,%rsi
ffff80000011c1b0:	89 c7                	mov    %eax,%edi
ffff80000011c1b2:	48 b8 07 c1 11 00 00 	movabs $0xffff80000011c107,%rax
ffff80000011c1b9:	80 ff ff 
ffff80000011c1bc:	ff d0                	callq  *%rax
ffff80000011c1be:	83 45 fc 01          	addl   $0x1,-0x4(%rbp)
ffff80000011c1c2:	83 7d fc 17          	cmpl   $0x17,-0x4(%rbp)
ffff80000011c1c6:	7e c2                	jle    ffff80000011c18a <mask_all_intr_ioapic+0x11>
ffff80000011c1c8:	90                   	nop
ffff80000011c1c9:	c9                   	leaveq 
ffff80000011c1ca:	c3                   	retq   

ffff80000011c1cb <ioapic_redirection_table_init>:
ffff80000011c1cb:	55                   	push   %rbp
ffff80000011c1cc:	48 89 e5             	mov    %rsp,%rbp
ffff80000011c1cf:	48 83 ec 10          	sub    $0x10,%rsp
ffff80000011c1d3:	48 b8 79 c1 11 00 00 	movabs $0xffff80000011c179,%rax
ffff80000011c1da:	80 ff ff 
ffff80000011c1dd:	ff d0                	callq  *%rax
ffff80000011c1df:	c7 45 fc 00 00 00 00 	movl   $0x0,-0x4(%rbp)
ffff80000011c1e6:	e9 81 00 00 00       	jmpq   ffff80000011c26c <ioapic_redirection_table_init+0xa1>
ffff80000011c1eb:	83 7d fc 02          	cmpl   $0x2,-0x4(%rbp)
ffff80000011c1ef:	74 76                	je     ffff80000011c267 <ioapic_redirection_table_init+0x9c>
ffff80000011c1f1:	83 7d fc 00          	cmpl   $0x0,-0x4(%rbp)
ffff80000011c1f5:	75 06                	jne    ffff80000011c1fd <ioapic_redirection_table_init+0x32>
ffff80000011c1f7:	c6 45 fb ff          	movb   $0xff,-0x5(%rbp)
ffff80000011c1fb:	eb 0f                	jmp    ffff80000011c20c <ioapic_redirection_table_init+0x41>
ffff80000011c1fd:	48 b8 e6 c6 11 00 00 	movabs $0xffff80000011c6e6,%rax
ffff80000011c204:	80 ff ff 
ffff80000011c207:	ff d0                	callq  *%rax
ffff80000011c209:	88 45 fb             	mov    %al,-0x5(%rbp)
ffff80000011c20c:	8b 45 fc             	mov    -0x4(%rbp),%eax
ffff80000011c20f:	83 c0 20             	add    $0x20,%eax
ffff80000011c212:	0f b6 d0             	movzbl %al,%edx
ffff80000011c215:	0f b6 75 fb          	movzbl -0x5(%rbp),%esi
ffff80000011c219:	48 8d 45 f0          	lea    -0x10(%rbp),%rax
ffff80000011c21d:	41 89 d0             	mov    %edx,%r8d
ffff80000011c220:	b9 00 00 00 00       	mov    $0x0,%ecx
ffff80000011c225:	ba 00 00 00 00       	mov    $0x0,%edx
ffff80000011c22a:	48 89 c7             	mov    %rax,%rdi
ffff80000011c22d:	48 b8 0e c0 11 00 00 	movabs $0xffff80000011c00e,%rax
ffff80000011c234:	80 ff ff 
ffff80000011c237:	ff d0                	callq  *%rax
ffff80000011c239:	48 ba a0 37 12 00 00 	movabs $0xffff8000001237a0,%rdx
ffff80000011c240:	80 ff ff 
ffff80000011c243:	8b 45 fc             	mov    -0x4(%rbp),%eax
ffff80000011c246:	48 98                	cltq   
ffff80000011c248:	0f b6 44 02 04       	movzbl 0x4(%rdx,%rax,1),%eax
ffff80000011c24d:	0f b6 c0             	movzbl %al,%eax
ffff80000011c250:	48 8d 55 f0          	lea    -0x10(%rbp),%rdx
ffff80000011c254:	48 89 d6             	mov    %rdx,%rsi
ffff80000011c257:	89 c7                	mov    %eax,%edi
ffff80000011c259:	48 b8 07 c1 11 00 00 	movabs $0xffff80000011c107,%rax
ffff80000011c260:	80 ff ff 
ffff80000011c263:	ff d0                	callq  *%rax
ffff80000011c265:	eb 01                	jmp    ffff80000011c268 <ioapic_redirection_table_init+0x9d>
ffff80000011c267:	90                   	nop
ffff80000011c268:	83 45 fc 01          	addl   $0x1,-0x4(%rbp)
ffff80000011c26c:	83 7d fc 0f          	cmpl   $0xf,-0x4(%rbp)
ffff80000011c270:	0f 8e 75 ff ff ff    	jle    ffff80000011c1eb <ioapic_redirection_table_init+0x20>
ffff80000011c276:	90                   	nop
ffff80000011c277:	c9                   	leaveq 
ffff80000011c278:	c3                   	retq   

ffff80000011c279 <irq_rout>:
ffff80000011c279:	55                   	push   %rbp
ffff80000011c27a:	48 89 e5             	mov    %rsp,%rbp
ffff80000011c27d:	48 83 ec 18          	sub    $0x18,%rsp
ffff80000011c281:	89 7d ec             	mov    %edi,-0x14(%rbp)
ffff80000011c284:	89 f0                	mov    %esi,%eax
ffff80000011c286:	88 45 e8             	mov    %al,-0x18(%rbp)
ffff80000011c289:	8b 45 ec             	mov    -0x14(%rbp),%eax
ffff80000011c28c:	83 e8 20             	sub    $0x20,%eax
ffff80000011c28f:	89 45 fc             	mov    %eax,-0x4(%rbp)
ffff80000011c292:	48 ba a0 37 12 00 00 	movabs $0xffff8000001237a0,%rdx
ffff80000011c299:	80 ff ff 
ffff80000011c29c:	8b 45 fc             	mov    -0x4(%rbp),%eax
ffff80000011c29f:	48 98                	cltq   
ffff80000011c2a1:	0f b6 44 02 04       	movzbl 0x4(%rdx,%rax,1),%eax
ffff80000011c2a6:	0f b6 c0             	movzbl %al,%eax
ffff80000011c2a9:	48 8d 55 f0          	lea    -0x10(%rbp),%rdx
ffff80000011c2ad:	48 89 d6             	mov    %rdx,%rsi
ffff80000011c2b0:	89 c7                	mov    %eax,%edi
ffff80000011c2b2:	48 b8 7c c0 11 00 00 	movabs $0xffff80000011c07c,%rax
ffff80000011c2b9:	80 ff ff 
ffff80000011c2bc:	ff d0                	callq  *%rax
ffff80000011c2be:	0f b6 45 e8          	movzbl -0x18(%rbp),%eax
ffff80000011c2c2:	88 45 f7             	mov    %al,-0x9(%rbp)
ffff80000011c2c5:	48 ba a0 37 12 00 00 	movabs $0xffff8000001237a0,%rdx
ffff80000011c2cc:	80 ff ff 
ffff80000011c2cf:	8b 45 fc             	mov    -0x4(%rbp),%eax
ffff80000011c2d2:	48 98                	cltq   
ffff80000011c2d4:	0f b6 44 02 04       	movzbl 0x4(%rdx,%rax,1),%eax
ffff80000011c2d9:	0f b6 c0             	movzbl %al,%eax
ffff80000011c2dc:	48 8d 55 f0          	lea    -0x10(%rbp),%rdx
ffff80000011c2e0:	48 89 d6             	mov    %rdx,%rsi
ffff80000011c2e3:	89 c7                	mov    %eax,%edi
ffff80000011c2e5:	48 b8 07 c1 11 00 00 	movabs $0xffff80000011c107,%rax
ffff80000011c2ec:	80 ff ff 
ffff80000011c2ef:	ff d0                	callq  *%rax
ffff80000011c2f1:	90                   	nop
ffff80000011c2f2:	c9                   	leaveq 
ffff80000011c2f3:	c3                   	retq   

ffff80000011c2f4 <get_lapic_base_vaddr>:
ffff80000011c2f4:	55                   	push   %rbp
ffff80000011c2f5:	48 89 e5             	mov    %rsp,%rbp
ffff80000011c2f8:	48 b8 a0 37 12 00 00 	movabs $0xffff8000001237a0,%rax
ffff80000011c2ff:	80 ff ff 
ffff80000011c302:	48 8b 50 18          	mov    0x18(%rax),%rdx
ffff80000011c306:	48 b8 00 00 00 00 00 	movabs $0xffff800000000000,%rax
ffff80000011c30d:	80 ff ff 
ffff80000011c310:	48 01 d0             	add    %rdx,%rax
ffff80000011c313:	5d                   	pop    %rbp
ffff80000011c314:	c3                   	retq   

ffff80000011c315 <enable_lapic>:
ffff80000011c315:	55                   	push   %rbp
ffff80000011c316:	48 89 e5             	mov    %rsp,%rbp
ffff80000011c319:	48 b8 f4 c2 11 00 00 	movabs $0xffff80000011c2f4,%rax
ffff80000011c320:	80 ff ff 
ffff80000011c323:	ff d0                	callq  *%rax
ffff80000011c325:	48 8d 90 f0 00 00 00 	lea    0xf0(%rax),%rdx
ffff80000011c32c:	48 05 f0 00 00 00    	add    $0xf0,%rax
ffff80000011c332:	8b 00                	mov    (%rax),%eax
ffff80000011c334:	80 cc 01             	or     $0x1,%ah
ffff80000011c337:	89 02                	mov    %eax,(%rdx)
ffff80000011c339:	90                   	nop
ffff80000011c33a:	5d                   	pop    %rbp
ffff80000011c33b:	c3                   	retq   

ffff80000011c33c <irq_ack>:
ffff80000011c33c:	55                   	push   %rbp
ffff80000011c33d:	48 89 e5             	mov    %rsp,%rbp
ffff80000011c340:	48 b8 f4 c2 11 00 00 	movabs $0xffff80000011c2f4,%rax
ffff80000011c347:	80 ff ff 
ffff80000011c34a:	ff d0                	callq  *%rax
ffff80000011c34c:	48 05 b0 00 00 00    	add    $0xb0,%rax
ffff80000011c352:	c7 00 00 00 00 00    	movl   $0x0,(%rax)
ffff80000011c358:	90                   	nop
ffff80000011c359:	5d                   	pop    %rbp
ffff80000011c35a:	c3                   	retq   

ffff80000011c35b <local_vector_table_init>:
ffff80000011c35b:	55                   	push   %rbp
ffff80000011c35c:	48 89 e5             	mov    %rsp,%rbp
ffff80000011c35f:	48 83 ec 10          	sub    $0x10,%rsp
ffff80000011c363:	48 b8 f4 c2 11 00 00 	movabs $0xffff80000011c2f4,%rax
ffff80000011c36a:	80 ff ff 
ffff80000011c36d:	ff d0                	callq  *%rax
ffff80000011c36f:	48 89 45 f8          	mov    %rax,-0x8(%rbp)
ffff80000011c373:	48 8b 45 f8          	mov    -0x8(%rbp),%rax
ffff80000011c377:	48 83 e8 80          	sub    $0xffffffffffffff80,%rax
ffff80000011c37b:	c7 00 00 00 00 00    	movl   $0x0,(%rax)
ffff80000011c381:	48 8b 45 f8          	mov    -0x8(%rbp),%rax
ffff80000011c385:	48 05 20 03 00 00    	add    $0x320,%rax
ffff80000011c38b:	48 89 c2             	mov    %rax,%rdx
ffff80000011c38e:	48 8b 45 f8          	mov    -0x8(%rbp),%rax
ffff80000011c392:	48 05 20 03 00 00    	add    $0x320,%rax
ffff80000011c398:	8b 00                	mov    (%rax),%eax
ffff80000011c39a:	0d 00 00 01 00       	or     $0x10000,%eax
ffff80000011c39f:	89 02                	mov    %eax,(%rdx)
ffff80000011c3a1:	48 8b 45 f8          	mov    -0x8(%rbp),%rax
ffff80000011c3a5:	48 05 50 03 00 00    	add    $0x350,%rax
ffff80000011c3ab:	48 89 c2             	mov    %rax,%rdx
ffff80000011c3ae:	48 8b 45 f8          	mov    -0x8(%rbp),%rax
ffff80000011c3b2:	48 05 50 03 00 00    	add    $0x350,%rax
ffff80000011c3b8:	8b 00                	mov    (%rax),%eax
ffff80000011c3ba:	0d 00 00 01 00       	or     $0x10000,%eax
ffff80000011c3bf:	89 02                	mov    %eax,(%rdx)
ffff80000011c3c1:	48 8b 45 f8          	mov    -0x8(%rbp),%rax
ffff80000011c3c5:	48 05 60 03 00 00    	add    $0x360,%rax
ffff80000011c3cb:	c7 00 00 04 00 00    	movl   $0x400,(%rax)
ffff80000011c3d1:	48 8b 45 f8          	mov    -0x8(%rbp),%rax
ffff80000011c3d5:	48 05 70 03 00 00    	add    $0x370,%rax
ffff80000011c3db:	48 89 c2             	mov    %rax,%rdx
ffff80000011c3de:	48 8b 45 f8          	mov    -0x8(%rbp),%rax
ffff80000011c3e2:	48 05 70 03 00 00    	add    $0x370,%rax
ffff80000011c3e8:	8b 00                	mov    (%rax),%eax
ffff80000011c3ea:	0d 00 00 01 00       	or     $0x10000,%eax
ffff80000011c3ef:	89 02                	mov    %eax,(%rdx)
ffff80000011c3f1:	48 8b 45 f8          	mov    -0x8(%rbp),%rax
ffff80000011c3f5:	48 05 40 03 00 00    	add    $0x340,%rax
ffff80000011c3fb:	48 89 c2             	mov    %rax,%rdx
ffff80000011c3fe:	48 8b 45 f8          	mov    -0x8(%rbp),%rax
ffff80000011c402:	48 05 40 03 00 00    	add    $0x340,%rax
ffff80000011c408:	8b 00                	mov    (%rax),%eax
ffff80000011c40a:	0d 00 00 01 00       	or     $0x10000,%eax
ffff80000011c40f:	89 02                	mov    %eax,(%rdx)
ffff80000011c411:	48 8b 45 f8          	mov    -0x8(%rbp),%rax
ffff80000011c415:	48 05 30 03 00 00    	add    $0x330,%rax
ffff80000011c41b:	48 89 c2             	mov    %rax,%rdx
ffff80000011c41e:	48 8b 45 f8          	mov    -0x8(%rbp),%rax
ffff80000011c422:	48 05 30 03 00 00    	add    $0x330,%rax
ffff80000011c428:	8b 00                	mov    (%rax),%eax
ffff80000011c42a:	0d 00 00 01 00       	or     $0x10000,%eax
ffff80000011c42f:	89 02                	mov    %eax,(%rdx)
ffff80000011c431:	90                   	nop
ffff80000011c432:	c9                   	leaveq 
ffff80000011c433:	c3                   	retq   

ffff80000011c434 <machine_init>:
ffff80000011c434:	55                   	push   %rbp
ffff80000011c435:	48 89 e5             	mov    %rsp,%rbp
ffff80000011c438:	48 b8 a0 37 12 00 00 	movabs $0xffff8000001237a0,%rax
ffff80000011c43f:	80 ff ff 
ffff80000011c442:	c6 00 00             	movb   $0x0,(%rax)
ffff80000011c445:	48 b8 a0 37 12 00 00 	movabs $0xffff8000001237a0,%rax
ffff80000011c44c:	80 ff ff 
ffff80000011c44f:	c6 40 01 01          	movb   $0x1,0x1(%rax)
ffff80000011c453:	48 b8 a0 37 12 00 00 	movabs $0xffff8000001237a0,%rax
ffff80000011c45a:	80 ff ff 
ffff80000011c45d:	c6 40 02 02          	movb   $0x2,0x2(%rax)
ffff80000011c461:	48 b8 a0 37 12 00 00 	movabs $0xffff8000001237a0,%rax
ffff80000011c468:	80 ff ff 
ffff80000011c46b:	c6 40 03 03          	movb   $0x3,0x3(%rax)
ffff80000011c46f:	48 b8 a0 37 12 00 00 	movabs $0xffff8000001237a0,%rax
ffff80000011c476:	80 ff ff 
ffff80000011c479:	b9 00 00 e0 fe       	mov    $0xfee00000,%ecx
ffff80000011c47e:	48 89 48 18          	mov    %rcx,0x18(%rax)
ffff80000011c482:	48 b8 a0 37 12 00 00 	movabs $0xffff8000001237a0,%rax
ffff80000011c489:	80 ff ff 
ffff80000011c48c:	be 00 00 c0 fe       	mov    $0xfec00000,%esi
ffff80000011c491:	48 89 70 20          	mov    %rsi,0x20(%rax)
ffff80000011c495:	48 b8 a0 37 12 00 00 	movabs $0xffff8000001237a0,%rax
ffff80000011c49c:	80 ff ff 
ffff80000011c49f:	c6 40 04 02          	movb   $0x2,0x4(%rax)
ffff80000011c4a3:	48 b8 a0 37 12 00 00 	movabs $0xffff8000001237a0,%rax
ffff80000011c4aa:	80 ff ff 
ffff80000011c4ad:	c6 40 05 01          	movb   $0x1,0x5(%rax)
ffff80000011c4b1:	48 b8 a0 37 12 00 00 	movabs $0xffff8000001237a0,%rax
ffff80000011c4b8:	80 ff ff 
ffff80000011c4bb:	c6 40 06 ff          	movb   $0xff,0x6(%rax)
ffff80000011c4bf:	48 b8 a0 37 12 00 00 	movabs $0xffff8000001237a0,%rax
ffff80000011c4c6:	80 ff ff 
ffff80000011c4c9:	c6 40 07 03          	movb   $0x3,0x7(%rax)
ffff80000011c4cd:	48 b8 a0 37 12 00 00 	movabs $0xffff8000001237a0,%rax
ffff80000011c4d4:	80 ff ff 
ffff80000011c4d7:	c6 40 08 04          	movb   $0x4,0x8(%rax)
ffff80000011c4db:	48 b8 a0 37 12 00 00 	movabs $0xffff8000001237a0,%rax
ffff80000011c4e2:	80 ff ff 
ffff80000011c4e5:	c6 40 09 05          	movb   $0x5,0x9(%rax)
ffff80000011c4e9:	48 b8 a0 37 12 00 00 	movabs $0xffff8000001237a0,%rax
ffff80000011c4f0:	80 ff ff 
ffff80000011c4f3:	c6 40 0a 06          	movb   $0x6,0xa(%rax)
ffff80000011c4f7:	48 b8 a0 37 12 00 00 	movabs $0xffff8000001237a0,%rax
ffff80000011c4fe:	80 ff ff 
ffff80000011c501:	c6 40 0b 07          	movb   $0x7,0xb(%rax)
ffff80000011c505:	48 b8 a0 37 12 00 00 	movabs $0xffff8000001237a0,%rax
ffff80000011c50c:	80 ff ff 
ffff80000011c50f:	c6 40 0c 08          	movb   $0x8,0xc(%rax)
ffff80000011c513:	48 b8 a0 37 12 00 00 	movabs $0xffff8000001237a0,%rax
ffff80000011c51a:	80 ff ff 
ffff80000011c51d:	c6 40 0d 09          	movb   $0x9,0xd(%rax)
ffff80000011c521:	48 b8 a0 37 12 00 00 	movabs $0xffff8000001237a0,%rax
ffff80000011c528:	80 ff ff 
ffff80000011c52b:	c6 40 0e 0a          	movb   $0xa,0xe(%rax)
ffff80000011c52f:	48 b8 a0 37 12 00 00 	movabs $0xffff8000001237a0,%rax
ffff80000011c536:	80 ff ff 
ffff80000011c539:	c6 40 0f 0b          	movb   $0xb,0xf(%rax)
ffff80000011c53d:	48 b8 a0 37 12 00 00 	movabs $0xffff8000001237a0,%rax
ffff80000011c544:	80 ff ff 
ffff80000011c547:	c6 40 10 0c          	movb   $0xc,0x10(%rax)
ffff80000011c54b:	48 b8 a0 37 12 00 00 	movabs $0xffff8000001237a0,%rax
ffff80000011c552:	80 ff ff 
ffff80000011c555:	c6 40 11 0d          	movb   $0xd,0x11(%rax)
ffff80000011c559:	48 b8 a0 37 12 00 00 	movabs $0xffff8000001237a0,%rax
ffff80000011c560:	80 ff ff 
ffff80000011c563:	c6 40 12 0e          	movb   $0xe,0x12(%rax)
ffff80000011c567:	48 b8 a0 37 12 00 00 	movabs $0xffff8000001237a0,%rax
ffff80000011c56e:	80 ff ff 
ffff80000011c571:	c6 40 13 0f          	movb   $0xf,0x13(%rax)
ffff80000011c575:	48 b8 f4 c2 11 00 00 	movabs $0xffff80000011c2f4,%rax
ffff80000011c57c:	80 ff ff 
ffff80000011c57f:	ff d0                	callq  *%rax
ffff80000011c581:	48 8d 50 20          	lea    0x20(%rax),%rdx
ffff80000011c585:	48 b8 30 2a 12 00 00 	movabs $0xffff800000122a30,%rax
ffff80000011c58c:	80 ff ff 
ffff80000011c58f:	48 89 10             	mov    %rdx,(%rax)
ffff80000011c592:	90                   	nop
ffff80000011c593:	5d                   	pop    %rbp
ffff80000011c594:	c3                   	retq   

ffff80000011c595 <smp_init>:
ffff80000011c595:	55                   	push   %rbp
ffff80000011c596:	48 89 e5             	mov    %rsp,%rbp
ffff80000011c599:	48 b8 c8 13 12 00 00 	movabs $0xffff8000001213c8,%rax
ffff80000011c5a0:	80 ff ff 
ffff80000011c5a3:	ff d0                	callq  *%rax
ffff80000011c5a5:	48 b8 15 c3 11 00 00 	movabs $0xffff80000011c315,%rax
ffff80000011c5ac:	80 ff ff 
ffff80000011c5af:	ff d0                	callq  *%rax
ffff80000011c5b1:	48 b8 5e c6 11 00 00 	movabs $0xffff80000011c65e,%rax
ffff80000011c5b8:	80 ff ff 
ffff80000011c5bb:	ff d0                	callq  *%rax
ffff80000011c5bd:	be 70 00 00 00       	mov    $0x70,%esi
ffff80000011c5c2:	bf 22 00 00 00       	mov    $0x22,%edi
ffff80000011c5c7:	b8 00 00 00 00       	mov    $0x0,%eax
ffff80000011c5cc:	48 ba 35 00 12 00 00 	movabs $0xffff800000120035,%rdx
ffff80000011c5d3:	80 ff ff 
ffff80000011c5d6:	ff d2                	callq  *%rdx
ffff80000011c5d8:	be 01 00 00 00       	mov    $0x1,%esi
ffff80000011c5dd:	bf 23 00 00 00       	mov    $0x23,%edi
ffff80000011c5e2:	b8 00 00 00 00       	mov    $0x0,%eax
ffff80000011c5e7:	48 ba 35 00 12 00 00 	movabs $0xffff800000120035,%rdx
ffff80000011c5ee:	80 ff ff 
ffff80000011c5f1:	ff d2                	callq  *%rdx
ffff80000011c5f3:	bf ff ff 00 00       	mov    $0xffff,%edi
ffff80000011c5f8:	b8 00 00 00 00       	mov    $0x0,%eax
ffff80000011c5fd:	48 ba 5d d6 11 00 00 	movabs $0xffff80000011d65d,%rdx
ffff80000011c604:	80 ff ff 
ffff80000011c607:	ff d2                	callq  *%rdx
ffff80000011c609:	48 b8 5b c3 11 00 00 	movabs $0xffff80000011c35b,%rax
ffff80000011c610:	80 ff ff 
ffff80000011c613:	ff d0                	callq  *%rax
ffff80000011c615:	48 b8 cb c1 11 00 00 	movabs $0xffff80000011c1cb,%rax
ffff80000011c61c:	80 ff ff 
ffff80000011c61f:	ff d0                	callq  *%rax
ffff80000011c621:	48 bf 7a 14 12 00 00 	movabs $0xffff80000012147a,%rdi
ffff80000011c628:	80 ff ff 
ffff80000011c62b:	b8 00 00 00 00       	mov    $0x0,%eax
ffff80000011c630:	48 ba 32 f8 11 00 00 	movabs $0xffff80000011f832,%rdx
ffff80000011c637:	80 ff ff 
ffff80000011c63a:	ff d2                	callq  *%rdx
ffff80000011c63c:	90                   	nop
ffff80000011c63d:	5d                   	pop    %rbp
ffff80000011c63e:	c3                   	retq   

ffff80000011c63f <get_lapicid_from_core_num>:
ffff80000011c63f:	55                   	push   %rbp
ffff80000011c640:	48 89 e5             	mov    %rsp,%rbp
ffff80000011c643:	89 7d fc             	mov    %edi,-0x4(%rbp)
ffff80000011c646:	48 ba a0 37 12 00 00 	movabs $0xffff8000001237a0,%rdx
ffff80000011c64d:	80 ff ff 
ffff80000011c650:	8b 45 fc             	mov    -0x4(%rbp),%eax
ffff80000011c653:	48 98                	cltq   
ffff80000011c655:	0f b6 04 02          	movzbl (%rdx,%rax,1),%eax
ffff80000011c659:	0f b6 c0             	movzbl %al,%eax
ffff80000011c65c:	5d                   	pop    %rbp
ffff80000011c65d:	c3                   	retq   

ffff80000011c65e <wakeup_all_ap>:
ffff80000011c65e:	55                   	push   %rbp
ffff80000011c65f:	48 89 e5             	mov    %rsp,%rbp
ffff80000011c662:	48 83 ec 10          	sub    $0x10,%rsp
ffff80000011c666:	48 b8 f4 c2 11 00 00 	movabs $0xffff80000011c2f4,%rax
ffff80000011c66d:	80 ff ff 
ffff80000011c670:	ff d0                	callq  *%rax
ffff80000011c672:	48 89 45 f8          	mov    %rax,-0x8(%rbp)
ffff80000011c676:	48 8b 45 f8          	mov    -0x8(%rbp),%rax
ffff80000011c67a:	48 05 00 03 00 00    	add    $0x300,%rax
ffff80000011c680:	c7 00 00 45 0c 00    	movl   $0xc4500,(%rax)
ffff80000011c686:	48 b8 28 29 12 00 00 	movabs $0xffff800000122928,%rax
ffff80000011c68d:	80 ff ff 
ffff80000011c690:	8b 00                	mov    (%rax),%eax
ffff80000011c692:	89 c2                	mov    %eax,%edx
ffff80000011c694:	48 be e0 28 12 00 00 	movabs $0xffff8000001228e0,%rsi
ffff80000011c69b:	80 ff ff 
ffff80000011c69e:	bf 00 00 01 00       	mov    $0x10000,%edi
ffff80000011c6a3:	b8 00 00 00 00       	mov    $0x0,%eax
ffff80000011c6a8:	48 b9 7e 00 12 00 00 	movabs $0xffff80000012007e,%rcx
ffff80000011c6af:	80 ff ff 
ffff80000011c6b2:	ff d1                	callq  *%rcx
ffff80000011c6b4:	48 b8 28 2a 12 00 00 	movabs $0xffff800000122a28,%rax
ffff80000011c6bb:	80 ff ff 
ffff80000011c6be:	c6 00 01             	movb   $0x1,(%rax)
ffff80000011c6c1:	48 8b 45 f8          	mov    -0x8(%rbp),%rax
ffff80000011c6c5:	48 05 00 03 00 00    	add    $0x300,%rax
ffff80000011c6cb:	c7 00 10 46 0c 00    	movl   $0xc4610,(%rax)
ffff80000011c6d1:	90                   	nop
ffff80000011c6d2:	48 b8 2c 2a 12 00 00 	movabs $0xffff800000122a2c,%rax
ffff80000011c6d9:	80 ff ff 
ffff80000011c6dc:	8b 00                	mov    (%rax),%eax
ffff80000011c6de:	83 f8 02             	cmp    $0x2,%eax
ffff80000011c6e1:	7e ef                	jle    ffff80000011c6d2 <wakeup_all_ap+0x74>
ffff80000011c6e3:	90                   	nop
ffff80000011c6e4:	c9                   	leaveq 
ffff80000011c6e5:	c3                   	retq   

ffff80000011c6e6 <get_lapic_id>:
ffff80000011c6e6:	55                   	push   %rbp
ffff80000011c6e7:	48 89 e5             	mov    %rsp,%rbp
ffff80000011c6ea:	48 83 ec 10          	sub    $0x10,%rsp
ffff80000011c6ee:	48 b8 f4 c2 11 00 00 	movabs $0xffff80000011c2f4,%rax
ffff80000011c6f5:	80 ff ff 
ffff80000011c6f8:	ff d0                	callq  *%rax
ffff80000011c6fa:	48 89 45 f8          	mov    %rax,-0x8(%rbp)
ffff80000011c6fe:	48 83 45 f8 20       	addq   $0x20,-0x8(%rbp)
ffff80000011c703:	48 8b 45 f8          	mov    -0x8(%rbp),%rax
ffff80000011c707:	48 8b 00             	mov    (%rax),%rax
ffff80000011c70a:	48 89 45 f0          	mov    %rax,-0x10(%rbp)
ffff80000011c70e:	48 8b 45 f0          	mov    -0x10(%rbp),%rax
ffff80000011c712:	48 c1 e8 18          	shr    $0x18,%rax
ffff80000011c716:	c9                   	leaveq 
ffff80000011c717:	c3                   	retq   

ffff80000011c718 <get_core_num>:
ffff80000011c718:	55                   	push   %rbp
ffff80000011c719:	48 89 e5             	mov    %rsp,%rbp
ffff80000011c71c:	48 83 ec 10          	sub    $0x10,%rsp
ffff80000011c720:	48 b8 e6 c6 11 00 00 	movabs $0xffff80000011c6e6,%rax
ffff80000011c727:	80 ff ff 
ffff80000011c72a:	ff d0                	callq  *%rax
ffff80000011c72c:	0f b6 c0             	movzbl %al,%eax
ffff80000011c72f:	89 45 f8             	mov    %eax,-0x8(%rbp)
ffff80000011c732:	c7 45 fc 00 00 00 00 	movl   $0x0,-0x4(%rbp)
ffff80000011c739:	eb 24                	jmp    ffff80000011c75f <get_core_num+0x47>
ffff80000011c73b:	48 ba a0 37 12 00 00 	movabs $0xffff8000001237a0,%rdx
ffff80000011c742:	80 ff ff 
ffff80000011c745:	8b 45 fc             	mov    -0x4(%rbp),%eax
ffff80000011c748:	48 98                	cltq   
ffff80000011c74a:	0f b6 04 02          	movzbl (%rdx,%rax,1),%eax
ffff80000011c74e:	0f b6 c0             	movzbl %al,%eax
ffff80000011c751:	3b 45 f8             	cmp    -0x8(%rbp),%eax
ffff80000011c754:	75 05                	jne    ffff80000011c75b <get_core_num+0x43>
ffff80000011c756:	8b 45 fc             	mov    -0x4(%rbp),%eax
ffff80000011c759:	eb 0a                	jmp    ffff80000011c765 <get_core_num+0x4d>
ffff80000011c75b:	83 45 fc 01          	addl   $0x1,-0x4(%rbp)
ffff80000011c75f:	83 7d fc 03          	cmpl   $0x3,-0x4(%rbp)
ffff80000011c763:	7e d6                	jle    ffff80000011c73b <get_core_num+0x23>
ffff80000011c765:	c9                   	leaveq 
ffff80000011c766:	c3                   	retq   

ffff80000011c767 <bash_main>:
ffff80000011c767:	55                   	push   %rbp
ffff80000011c768:	48 89 e5             	mov    %rsp,%rbp
ffff80000011c76b:	eb fe                	jmp    ffff80000011c76b <bash_main+0x4>

ffff80000011c76d <execve>:
ffff80000011c76d:	55                   	push   %rbp
ffff80000011c76e:	48 89 e5             	mov    %rsp,%rbp
ffff80000011c771:	90                   	nop
ffff80000011c772:	5d                   	pop    %rbp
ffff80000011c773:	c3                   	retq   

ffff80000011c774 <syscall_handler>:
ffff80000011c774:	55                   	push   %rbp
ffff80000011c775:	48 89 e5             	mov    %rsp,%rbp
ffff80000011c778:	48 83 ec 10          	sub    $0x10,%rsp
ffff80000011c77c:	48 b8 18 c7 11 00 00 	movabs $0xffff80000011c718,%rax
ffff80000011c783:	80 ff ff 
ffff80000011c786:	ff d0                	callq  *%rax
ffff80000011c788:	0f b6 c0             	movzbl %al,%eax
ffff80000011c78b:	89 c7                	mov    %eax,%edi
ffff80000011c78d:	48 b8 c8 0a 12 00 00 	movabs $0xffff800000120ac8,%rax
ffff80000011c794:	80 ff ff 
ffff80000011c797:	ff d0                	callq  *%rax
ffff80000011c799:	48 8b 80 a8 00 00 00 	mov    0xa8(%rax),%rax
ffff80000011c7a0:	89 45 fc             	mov    %eax,-0x4(%rbp)
ffff80000011c7a3:	8b 45 fc             	mov    -0x4(%rbp),%eax
ffff80000011c7a6:	83 f8 01             	cmp    $0x1,%eax
ffff80000011c7a9:	74 1c                	je     ffff80000011c7c7 <syscall_handler+0x53>
ffff80000011c7ab:	83 f8 02             	cmp    $0x2,%eax
ffff80000011c7ae:	74 2a                	je     ffff80000011c7da <syscall_handler+0x66>
ffff80000011c7b0:	85 c0                	test   %eax,%eax
ffff80000011c7b2:	75 38                	jne    ffff80000011c7ec <syscall_handler+0x78>
ffff80000011c7b4:	b8 00 00 00 00       	mov    $0x0,%eax
ffff80000011c7b9:	48 ba c9 0e 12 00 00 	movabs $0xffff800000120ec9,%rdx
ffff80000011c7c0:	80 ff ff 
ffff80000011c7c3:	ff d2                	callq  *%rdx
ffff80000011c7c5:	eb 25                	jmp    ffff80000011c7ec <syscall_handler+0x78>
ffff80000011c7c7:	b8 00 00 00 00       	mov    $0x0,%eax
ffff80000011c7cc:	48 ba d5 04 12 00 00 	movabs $0xffff8000001204d5,%rdx
ffff80000011c7d3:	80 ff ff 
ffff80000011c7d6:	ff d2                	callq  *%rdx
ffff80000011c7d8:	eb 12                	jmp    ffff80000011c7ec <syscall_handler+0x78>
ffff80000011c7da:	b8 00 00 00 00       	mov    $0x0,%eax
ffff80000011c7df:	48 ba 6d c7 11 00 00 	movabs $0xffff80000011c76d,%rdx
ffff80000011c7e6:	80 ff ff 
ffff80000011c7e9:	ff d2                	callq  *%rdx
ffff80000011c7eb:	90                   	nop
ffff80000011c7ec:	c9                   	leaveq 
ffff80000011c7ed:	c3                   	retq   

ffff80000011c7ee <console_init>:
ffff80000011c7ee:	55                   	push   %rbp
ffff80000011c7ef:	48 89 e5             	mov    %rsp,%rbp
ffff80000011c7f2:	48 83 ec 10          	sub    $0x10,%rsp
ffff80000011c7f6:	48 b8 00 2e 12 00 00 	movabs $0xffff800000122e00,%rax
ffff80000011c7fd:	80 ff ff 
ffff80000011c800:	48 b9 00 80 0b 00 00 	movabs $0xffff8000000b8000,%rcx
ffff80000011c807:	80 ff ff 
ffff80000011c80a:	48 89 48 10          	mov    %rcx,0x10(%rax)
ffff80000011c80e:	c7 45 fc 00 00 00 00 	movl   $0x0,-0x4(%rbp)
ffff80000011c815:	eb 22                	jmp    ffff80000011c839 <console_init+0x4b>
ffff80000011c817:	48 b8 00 2e 12 00 00 	movabs $0xffff800000122e00,%rax
ffff80000011c81e:	80 ff ff 
ffff80000011c821:	48 8b 40 10          	mov    0x10(%rax),%rax
ffff80000011c825:	8b 55 fc             	mov    -0x4(%rbp),%edx
ffff80000011c828:	48 63 d2             	movslq %edx,%rdx
ffff80000011c82b:	48 01 d2             	add    %rdx,%rdx
ffff80000011c82e:	48 01 d0             	add    %rdx,%rax
ffff80000011c831:	c6 40 01 1f          	movb   $0x1f,0x1(%rax)
ffff80000011c835:	83 45 fc 01          	addl   $0x1,-0x4(%rbp)
ffff80000011c839:	81 7d fc 9f 00 00 00 	cmpl   $0x9f,-0x4(%rbp)
ffff80000011c840:	7e d5                	jle    ffff80000011c817 <console_init+0x29>
ffff80000011c842:	48 b8 00 2e 12 00 00 	movabs $0xffff800000122e00,%rax
ffff80000011c849:	80 ff ff 
ffff80000011c84c:	48 be 40 81 0b 00 00 	movabs $0xffff8000000b8140,%rsi
ffff80000011c853:	80 ff ff 
ffff80000011c856:	48 89 70 08          	mov    %rsi,0x8(%rax)
ffff80000011c85a:	c7 45 fc 00 00 00 00 	movl   $0x0,-0x4(%rbp)
ffff80000011c861:	eb 22                	jmp    ffff80000011c885 <console_init+0x97>
ffff80000011c863:	48 b8 00 2e 12 00 00 	movabs $0xffff800000122e00,%rax
ffff80000011c86a:	80 ff ff 
ffff80000011c86d:	48 8b 40 08          	mov    0x8(%rax),%rax
ffff80000011c871:	8b 55 fc             	mov    -0x4(%rbp),%edx
ffff80000011c874:	48 63 d2             	movslq %edx,%rdx
ffff80000011c877:	48 01 d2             	add    %rdx,%rdx
ffff80000011c87a:	48 01 d0             	add    %rdx,%rax
ffff80000011c87d:	c6 40 01 71          	movb   $0x71,0x1(%rax)
ffff80000011c881:	83 45 fc 01          	addl   $0x1,-0x4(%rbp)
ffff80000011c885:	81 7d fc 2f 07 00 00 	cmpl   $0x72f,-0x4(%rbp)
ffff80000011c88c:	7e d5                	jle    ffff80000011c863 <console_init+0x75>
ffff80000011c88e:	be 00 00 00 00       	mov    $0x0,%esi
ffff80000011c893:	bf 00 00 00 00       	mov    $0x0,%edi
ffff80000011c898:	48 b8 a7 c8 11 00 00 	movabs $0xffff80000011c8a7,%rax
ffff80000011c89f:	80 ff ff 
ffff80000011c8a2:	ff d0                	callq  *%rax
ffff80000011c8a4:	90                   	nop
ffff80000011c8a5:	c9                   	leaveq 
ffff80000011c8a6:	c3                   	retq   

ffff80000011c8a7 <set_cursor>:
ffff80000011c8a7:	55                   	push   %rbp
ffff80000011c8a8:	48 89 e5             	mov    %rsp,%rbp
ffff80000011c8ab:	48 83 ec 20          	sub    $0x20,%rsp
ffff80000011c8af:	89 7d ec             	mov    %edi,-0x14(%rbp)
ffff80000011c8b2:	89 75 e8             	mov    %esi,-0x18(%rbp)
ffff80000011c8b5:	8b 55 e8             	mov    -0x18(%rbp),%edx
ffff80000011c8b8:	89 d0                	mov    %edx,%eax
ffff80000011c8ba:	c1 e0 02             	shl    $0x2,%eax
ffff80000011c8bd:	01 d0                	add    %edx,%eax
ffff80000011c8bf:	c1 e0 04             	shl    $0x4,%eax
ffff80000011c8c2:	89 c2                	mov    %eax,%edx
ffff80000011c8c4:	8b 45 ec             	mov    -0x14(%rbp),%eax
ffff80000011c8c7:	01 d0                	add    %edx,%eax
ffff80000011c8c9:	89 45 fc             	mov    %eax,-0x4(%rbp)
ffff80000011c8cc:	be 0e 00 00 00       	mov    $0xe,%esi
ffff80000011c8d1:	bf d4 03 00 00       	mov    $0x3d4,%edi
ffff80000011c8d6:	b8 00 00 00 00       	mov    $0x0,%eax
ffff80000011c8db:	48 ba 35 00 12 00 00 	movabs $0xffff800000120035,%rdx
ffff80000011c8e2:	80 ff ff 
ffff80000011c8e5:	ff d2                	callq  *%rdx
ffff80000011c8e7:	8b 45 fc             	mov    -0x4(%rbp),%eax
ffff80000011c8ea:	c1 f8 08             	sar    $0x8,%eax
ffff80000011c8ed:	89 c6                	mov    %eax,%esi
ffff80000011c8ef:	bf d5 03 00 00       	mov    $0x3d5,%edi
ffff80000011c8f4:	b8 00 00 00 00       	mov    $0x0,%eax
ffff80000011c8f9:	48 ba 35 00 12 00 00 	movabs $0xffff800000120035,%rdx
ffff80000011c900:	80 ff ff 
ffff80000011c903:	ff d2                	callq  *%rdx
ffff80000011c905:	be 0f 00 00 00       	mov    $0xf,%esi
ffff80000011c90a:	bf d4 03 00 00       	mov    $0x3d4,%edi
ffff80000011c90f:	b8 00 00 00 00       	mov    $0x0,%eax
ffff80000011c914:	48 ba 35 00 12 00 00 	movabs $0xffff800000120035,%rdx
ffff80000011c91b:	80 ff ff 
ffff80000011c91e:	ff d2                	callq  *%rdx
ffff80000011c920:	8b 45 fc             	mov    -0x4(%rbp),%eax
ffff80000011c923:	0f b6 c0             	movzbl %al,%eax
ffff80000011c926:	89 c6                	mov    %eax,%esi
ffff80000011c928:	bf d5 03 00 00       	mov    $0x3d5,%edi
ffff80000011c92d:	b8 00 00 00 00       	mov    $0x0,%eax
ffff80000011c932:	48 ba 35 00 12 00 00 	movabs $0xffff800000120035,%rdx
ffff80000011c939:	80 ff ff 
ffff80000011c93c:	ff d2                	callq  *%rdx
ffff80000011c93e:	48 b8 00 2e 12 00 00 	movabs $0xffff800000122e00,%rax
ffff80000011c945:	80 ff ff 
ffff80000011c948:	8b 55 fc             	mov    -0x4(%rbp),%edx
ffff80000011c94b:	89 10                	mov    %edx,(%rax)
ffff80000011c94d:	90                   	nop
ffff80000011c94e:	c9                   	leaveq 
ffff80000011c94f:	c3                   	retq   

ffff80000011c950 <get_cursor>:
ffff80000011c950:	55                   	push   %rbp
ffff80000011c951:	48 89 e5             	mov    %rsp,%rbp
ffff80000011c954:	48 89 7d f8          	mov    %rdi,-0x8(%rbp)
ffff80000011c958:	48 89 75 f0          	mov    %rsi,-0x10(%rbp)
ffff80000011c95c:	48 b8 00 2e 12 00 00 	movabs $0xffff800000122e00,%rax
ffff80000011c963:	80 ff ff 
ffff80000011c966:	8b 08                	mov    (%rax),%ecx
ffff80000011c968:	ba 67 66 66 66       	mov    $0x66666667,%edx
ffff80000011c96d:	89 c8                	mov    %ecx,%eax
ffff80000011c96f:	f7 ea                	imul   %edx
ffff80000011c971:	c1 fa 05             	sar    $0x5,%edx
ffff80000011c974:	89 c8                	mov    %ecx,%eax
ffff80000011c976:	c1 f8 1f             	sar    $0x1f,%eax
ffff80000011c979:	29 c2                	sub    %eax,%edx
ffff80000011c97b:	89 d0                	mov    %edx,%eax
ffff80000011c97d:	c1 e0 02             	shl    $0x2,%eax
ffff80000011c980:	01 d0                	add    %edx,%eax
ffff80000011c982:	c1 e0 04             	shl    $0x4,%eax
ffff80000011c985:	29 c1                	sub    %eax,%ecx
ffff80000011c987:	89 ca                	mov    %ecx,%edx
ffff80000011c989:	48 8b 45 f8          	mov    -0x8(%rbp),%rax
ffff80000011c98d:	89 10                	mov    %edx,(%rax)
ffff80000011c98f:	48 b8 00 2e 12 00 00 	movabs $0xffff800000122e00,%rax
ffff80000011c996:	80 ff ff 
ffff80000011c999:	8b 08                	mov    (%rax),%ecx
ffff80000011c99b:	ba 67 66 66 66       	mov    $0x66666667,%edx
ffff80000011c9a0:	89 c8                	mov    %ecx,%eax
ffff80000011c9a2:	f7 ea                	imul   %edx
ffff80000011c9a4:	c1 fa 05             	sar    $0x5,%edx
ffff80000011c9a7:	89 c8                	mov    %ecx,%eax
ffff80000011c9a9:	c1 f8 1f             	sar    $0x1f,%eax
ffff80000011c9ac:	29 c2                	sub    %eax,%edx
ffff80000011c9ae:	48 8b 45 f0          	mov    -0x10(%rbp),%rax
ffff80000011c9b2:	89 10                	mov    %edx,(%rax)
ffff80000011c9b4:	90                   	nop
ffff80000011c9b5:	5d                   	pop    %rbp
ffff80000011c9b6:	c3                   	retq   

ffff80000011c9b7 <console_print_str>:
ffff80000011c9b7:	55                   	push   %rbp
ffff80000011c9b8:	48 89 e5             	mov    %rsp,%rbp
ffff80000011c9bb:	48 83 ec 30          	sub    $0x30,%rsp
ffff80000011c9bf:	48 89 7d d8          	mov    %rdi,-0x28(%rbp)
ffff80000011c9c3:	48 8b 45 d8          	mov    -0x28(%rbp),%rax
ffff80000011c9c7:	48 89 c7             	mov    %rax,%rdi
ffff80000011c9ca:	b8 00 00 00 00       	mov    $0x0,%eax
ffff80000011c9cf:	48 ba cc 02 12 00 00 	movabs $0xffff8000001202cc,%rdx
ffff80000011c9d6:	80 ff ff 
ffff80000011c9d9:	ff d2                	callq  *%rdx
ffff80000011c9db:	89 45 f0             	mov    %eax,-0x10(%rbp)
ffff80000011c9de:	48 b8 00 2e 12 00 00 	movabs $0xffff800000122e00,%rax
ffff80000011c9e5:	80 ff ff 
ffff80000011c9e8:	8b 00                	mov    (%rax),%eax
ffff80000011c9ea:	89 45 f4             	mov    %eax,-0xc(%rbp)
ffff80000011c9ed:	48 b8 00 2e 12 00 00 	movabs $0xffff800000122e00,%rax
ffff80000011c9f4:	80 ff ff 
ffff80000011c9f7:	48 8b 40 08          	mov    0x8(%rax),%rax
ffff80000011c9fb:	48 89 45 e8          	mov    %rax,-0x18(%rbp)
ffff80000011c9ff:	c7 45 fc 00 00 00 00 	movl   $0x0,-0x4(%rbp)
ffff80000011ca06:	e9 32 01 00 00       	jmpq   ffff80000011cb3d <console_print_str+0x186>
ffff80000011ca0b:	8b 45 fc             	mov    -0x4(%rbp),%eax
ffff80000011ca0e:	48 63 d0             	movslq %eax,%rdx
ffff80000011ca11:	48 8b 45 d8          	mov    -0x28(%rbp),%rax
ffff80000011ca15:	48 01 d0             	add    %rdx,%rax
ffff80000011ca18:	0f b6 00             	movzbl (%rax),%eax
ffff80000011ca1b:	3c 0a                	cmp    $0xa,%al
ffff80000011ca1d:	75 33                	jne    ffff80000011ca52 <console_print_str+0x9b>
ffff80000011ca1f:	8b 4d f4             	mov    -0xc(%rbp),%ecx
ffff80000011ca22:	ba 67 66 66 66       	mov    $0x66666667,%edx
ffff80000011ca27:	89 c8                	mov    %ecx,%eax
ffff80000011ca29:	f7 ea                	imul   %edx
ffff80000011ca2b:	c1 fa 05             	sar    $0x5,%edx
ffff80000011ca2e:	89 c8                	mov    %ecx,%eax
ffff80000011ca30:	c1 f8 1f             	sar    $0x1f,%eax
ffff80000011ca33:	29 c2                	sub    %eax,%edx
ffff80000011ca35:	89 d0                	mov    %edx,%eax
ffff80000011ca37:	c1 e0 02             	shl    $0x2,%eax
ffff80000011ca3a:	01 d0                	add    %edx,%eax
ffff80000011ca3c:	c1 e0 04             	shl    $0x4,%eax
ffff80000011ca3f:	29 c1                	sub    %eax,%ecx
ffff80000011ca41:	89 ca                	mov    %ecx,%edx
ffff80000011ca43:	b8 50 00 00 00       	mov    $0x50,%eax
ffff80000011ca48:	29 d0                	sub    %edx,%eax
ffff80000011ca4a:	01 45 f4             	add    %eax,-0xc(%rbp)
ffff80000011ca4d:	e9 83 00 00 00       	jmpq   ffff80000011cad5 <console_print_str+0x11e>
ffff80000011ca52:	8b 45 fc             	mov    -0x4(%rbp),%eax
ffff80000011ca55:	48 63 d0             	movslq %eax,%rdx
ffff80000011ca58:	48 8b 45 d8          	mov    -0x28(%rbp),%rax
ffff80000011ca5c:	48 01 d0             	add    %rdx,%rax
ffff80000011ca5f:	0f b6 00             	movzbl (%rax),%eax
ffff80000011ca62:	3c 08                	cmp    $0x8,%al
ffff80000011ca64:	75 19                	jne    ffff80000011ca7f <console_print_str+0xc8>
ffff80000011ca66:	83 6d f4 01          	subl   $0x1,-0xc(%rbp)
ffff80000011ca6a:	8b 45 f4             	mov    -0xc(%rbp),%eax
ffff80000011ca6d:	48 98                	cltq   
ffff80000011ca6f:	48 8d 14 00          	lea    (%rax,%rax,1),%rdx
ffff80000011ca73:	48 8b 45 e8          	mov    -0x18(%rbp),%rax
ffff80000011ca77:	48 01 d0             	add    %rdx,%rax
ffff80000011ca7a:	c6 00 20             	movb   $0x20,(%rax)
ffff80000011ca7d:	eb 56                	jmp    ffff80000011cad5 <console_print_str+0x11e>
ffff80000011ca7f:	8b 45 fc             	mov    -0x4(%rbp),%eax
ffff80000011ca82:	48 63 d0             	movslq %eax,%rdx
ffff80000011ca85:	48 8b 45 d8          	mov    -0x28(%rbp),%rax
ffff80000011ca89:	48 01 d0             	add    %rdx,%rax
ffff80000011ca8c:	0f b6 00             	movzbl (%rax),%eax
ffff80000011ca8f:	3c 09                	cmp    $0x9,%al
ffff80000011ca91:	75 1c                	jne    ffff80000011caaf <console_print_str+0xf8>
ffff80000011ca93:	8b 45 f4             	mov    -0xc(%rbp),%eax
ffff80000011ca96:	99                   	cltd   
ffff80000011ca97:	c1 ea 1d             	shr    $0x1d,%edx
ffff80000011ca9a:	01 d0                	add    %edx,%eax
ffff80000011ca9c:	83 e0 07             	and    $0x7,%eax
ffff80000011ca9f:	29 d0                	sub    %edx,%eax
ffff80000011caa1:	ba 08 00 00 00       	mov    $0x8,%edx
ffff80000011caa6:	29 c2                	sub    %eax,%edx
ffff80000011caa8:	89 d0                	mov    %edx,%eax
ffff80000011caaa:	01 45 f4             	add    %eax,-0xc(%rbp)
ffff80000011caad:	eb 26                	jmp    ffff80000011cad5 <console_print_str+0x11e>
ffff80000011caaf:	8b 45 f4             	mov    -0xc(%rbp),%eax
ffff80000011cab2:	48 98                	cltq   
ffff80000011cab4:	48 8d 14 00          	lea    (%rax,%rax,1),%rdx
ffff80000011cab8:	48 8b 45 e8          	mov    -0x18(%rbp),%rax
ffff80000011cabc:	48 01 d0             	add    %rdx,%rax
ffff80000011cabf:	8b 55 fc             	mov    -0x4(%rbp),%edx
ffff80000011cac2:	48 63 ca             	movslq %edx,%rcx
ffff80000011cac5:	48 8b 55 d8          	mov    -0x28(%rbp),%rdx
ffff80000011cac9:	48 01 ca             	add    %rcx,%rdx
ffff80000011cacc:	0f b6 12             	movzbl (%rdx),%edx
ffff80000011cacf:	88 10                	mov    %dl,(%rax)
ffff80000011cad1:	83 45 f4 01          	addl   $0x1,-0xc(%rbp)
ffff80000011cad5:	81 7d f4 2f 07 00 00 	cmpl   $0x72f,-0xc(%rbp)
ffff80000011cadc:	7e 5b                	jle    ffff80000011cb39 <console_print_str+0x182>
ffff80000011cade:	48 8b 45 e8          	mov    -0x18(%rbp),%rax
ffff80000011cae2:	48 8d 88 a0 00 00 00 	lea    0xa0(%rax),%rcx
ffff80000011cae9:	48 8b 45 e8          	mov    -0x18(%rbp),%rax
ffff80000011caed:	ba c0 0d 00 00       	mov    $0xdc0,%edx
ffff80000011caf2:	48 89 ce             	mov    %rcx,%rsi
ffff80000011caf5:	48 89 c7             	mov    %rax,%rdi
ffff80000011caf8:	b8 00 00 00 00       	mov    $0x0,%eax
ffff80000011cafd:	48 b9 7e 00 12 00 00 	movabs $0xffff80000012007e,%rcx
ffff80000011cb04:	80 ff ff 
ffff80000011cb07:	ff d1                	callq  *%rcx
ffff80000011cb09:	c7 45 f8 e0 06 00 00 	movl   $0x6e0,-0x8(%rbp)
ffff80000011cb10:	eb 17                	jmp    ffff80000011cb29 <console_print_str+0x172>
ffff80000011cb12:	8b 45 f8             	mov    -0x8(%rbp),%eax
ffff80000011cb15:	48 98                	cltq   
ffff80000011cb17:	48 8d 14 00          	lea    (%rax,%rax,1),%rdx
ffff80000011cb1b:	48 8b 45 e8          	mov    -0x18(%rbp),%rax
ffff80000011cb1f:	48 01 d0             	add    %rdx,%rax
ffff80000011cb22:	c6 00 20             	movb   $0x20,(%rax)
ffff80000011cb25:	83 45 f8 01          	addl   $0x1,-0x8(%rbp)
ffff80000011cb29:	81 7d f8 2f 07 00 00 	cmpl   $0x72f,-0x8(%rbp)
ffff80000011cb30:	7e e0                	jle    ffff80000011cb12 <console_print_str+0x15b>
ffff80000011cb32:	c7 45 f4 e0 06 00 00 	movl   $0x6e0,-0xc(%rbp)
ffff80000011cb39:	83 45 fc 01          	addl   $0x1,-0x4(%rbp)
ffff80000011cb3d:	8b 45 fc             	mov    -0x4(%rbp),%eax
ffff80000011cb40:	3b 45 f0             	cmp    -0x10(%rbp),%eax
ffff80000011cb43:	0f 8c c2 fe ff ff    	jl     ffff80000011ca0b <console_print_str+0x54>
ffff80000011cb49:	8b 45 f4             	mov    -0xc(%rbp),%eax
ffff80000011cb4c:	c9                   	leaveq 
ffff80000011cb4d:	c3                   	retq   

ffff80000011cb4e <clear_console>:
ffff80000011cb4e:	55                   	push   %rbp
ffff80000011cb4f:	48 89 e5             	mov    %rsp,%rbp
ffff80000011cb52:	48 83 ec 10          	sub    $0x10,%rsp
ffff80000011cb56:	c7 45 fc 00 00 00 00 	movl   $0x0,-0x4(%rbp)
ffff80000011cb5d:	eb 21                	jmp    ffff80000011cb80 <clear_console+0x32>
ffff80000011cb5f:	48 b8 00 2e 12 00 00 	movabs $0xffff800000122e00,%rax
ffff80000011cb66:	80 ff ff 
ffff80000011cb69:	48 8b 40 08          	mov    0x8(%rax),%rax
ffff80000011cb6d:	8b 55 fc             	mov    -0x4(%rbp),%edx
ffff80000011cb70:	48 63 d2             	movslq %edx,%rdx
ffff80000011cb73:	48 01 d2             	add    %rdx,%rdx
ffff80000011cb76:	48 01 d0             	add    %rdx,%rax
ffff80000011cb79:	c6 00 20             	movb   $0x20,(%rax)
ffff80000011cb7c:	83 45 fc 01          	addl   $0x1,-0x4(%rbp)
ffff80000011cb80:	81 7d fc 2f 07 00 00 	cmpl   $0x72f,-0x4(%rbp)
ffff80000011cb87:	7e d6                	jle    ffff80000011cb5f <clear_console+0x11>
ffff80000011cb89:	be 00 00 00 00       	mov    $0x0,%esi
ffff80000011cb8e:	bf 00 00 00 00       	mov    $0x0,%edi
ffff80000011cb93:	48 b8 a7 c8 11 00 00 	movabs $0xffff80000011c8a7,%rax
ffff80000011cb9a:	80 ff ff 
ffff80000011cb9d:	ff d0                	callq  *%rax
ffff80000011cb9f:	90                   	nop
ffff80000011cba0:	c9                   	leaveq 
ffff80000011cba1:	c3                   	retq   

ffff80000011cba2 <getch>:
ffff80000011cba2:	55                   	push   %rbp
ffff80000011cba3:	48 89 e5             	mov    %rsp,%rbp
ffff80000011cba6:	48 83 ec 10          	sub    $0x10,%rsp
ffff80000011cbaa:	eb 11                	jmp    ffff80000011cbbd <getch+0x1b>
ffff80000011cbac:	b8 00 00 00 00       	mov    $0x0,%eax
ffff80000011cbb1:	48 ba ce 05 12 00 00 	movabs $0xffff8000001205ce,%rdx
ffff80000011cbb8:	80 ff ff 
ffff80000011cbbb:	ff d2                	callq  *%rdx
ffff80000011cbbd:	48 8d 45 f0          	lea    -0x10(%rbp),%rax
ffff80000011cbc1:	48 89 c7             	mov    %rax,%rdi
ffff80000011cbc4:	48 b8 f4 d4 11 00 00 	movabs $0xffff80000011d4f4,%rax
ffff80000011cbcb:	80 ff ff 
ffff80000011cbce:	ff d0                	callq  *%rax
ffff80000011cbd0:	84 c0                	test   %al,%al
ffff80000011cbd2:	74 d8                	je     ffff80000011cbac <getch+0xa>
ffff80000011cbd4:	0f b6 45 f2          	movzbl -0xe(%rbp),%eax
ffff80000011cbd8:	0f b6 c0             	movzbl %al,%eax
ffff80000011cbdb:	83 e0 01             	and    $0x1,%eax
ffff80000011cbde:	85 c0                	test   %eax,%eax
ffff80000011cbe0:	74 db                	je     ffff80000011cbbd <getch+0x1b>
ffff80000011cbe2:	0f b6 45 f1          	movzbl -0xf(%rbp),%eax
ffff80000011cbe6:	c9                   	leaveq 
ffff80000011cbe7:	c3                   	retq   

ffff80000011cbe8 <dbg_console_printxy>:
ffff80000011cbe8:	55                   	push   %rbp
ffff80000011cbe9:	48 89 e5             	mov    %rsp,%rbp
ffff80000011cbec:	89 7d ec             	mov    %edi,-0x14(%rbp)
ffff80000011cbef:	89 75 e8             	mov    %esi,-0x18(%rbp)
ffff80000011cbf2:	48 89 55 e0          	mov    %rdx,-0x20(%rbp)
ffff80000011cbf6:	c7 45 fc 00 00 00 00 	movl   $0x0,-0x4(%rbp)
ffff80000011cbfd:	48 b8 00 2e 12 00 00 	movabs $0xffff800000122e00,%rax
ffff80000011cc04:	80 ff ff 
ffff80000011cc07:	48 8b 48 10          	mov    0x10(%rax),%rcx
ffff80000011cc0b:	8b 45 e8             	mov    -0x18(%rbp),%eax
ffff80000011cc0e:	48 63 d0             	movslq %eax,%rdx
ffff80000011cc11:	48 89 d0             	mov    %rdx,%rax
ffff80000011cc14:	48 c1 e0 02          	shl    $0x2,%rax
ffff80000011cc18:	48 01 d0             	add    %rdx,%rax
ffff80000011cc1b:	48 c1 e0 04          	shl    $0x4,%rax
ffff80000011cc1f:	48 89 c2             	mov    %rax,%rdx
ffff80000011cc22:	8b 45 ec             	mov    -0x14(%rbp),%eax
ffff80000011cc25:	48 98                	cltq   
ffff80000011cc27:	48 01 d0             	add    %rdx,%rax
ffff80000011cc2a:	48 01 c0             	add    %rax,%rax
ffff80000011cc2d:	48 01 c8             	add    %rcx,%rax
ffff80000011cc30:	48 89 45 f0          	mov    %rax,-0x10(%rbp)
ffff80000011cc34:	eb 26                	jmp    ffff80000011cc5c <dbg_console_printxy+0x74>
ffff80000011cc36:	8b 45 fc             	mov    -0x4(%rbp),%eax
ffff80000011cc39:	48 98                	cltq   
ffff80000011cc3b:	48 8d 14 00          	lea    (%rax,%rax,1),%rdx
ffff80000011cc3f:	48 8b 45 f0          	mov    -0x10(%rbp),%rax
ffff80000011cc43:	48 01 d0             	add    %rdx,%rax
ffff80000011cc46:	8b 55 fc             	mov    -0x4(%rbp),%edx
ffff80000011cc49:	48 63 ca             	movslq %edx,%rcx
ffff80000011cc4c:	48 8b 55 e0          	mov    -0x20(%rbp),%rdx
ffff80000011cc50:	48 01 ca             	add    %rcx,%rdx
ffff80000011cc53:	0f b6 12             	movzbl (%rdx),%edx
ffff80000011cc56:	88 10                	mov    %dl,(%rax)
ffff80000011cc58:	83 45 fc 01          	addl   $0x1,-0x4(%rbp)
ffff80000011cc5c:	8b 45 fc             	mov    -0x4(%rbp),%eax
ffff80000011cc5f:	48 63 d0             	movslq %eax,%rdx
ffff80000011cc62:	48 8b 45 e0          	mov    -0x20(%rbp),%rax
ffff80000011cc66:	48 01 d0             	add    %rdx,%rax
ffff80000011cc69:	0f b6 00             	movzbl (%rax),%eax
ffff80000011cc6c:	84 c0                	test   %al,%al
ffff80000011cc6e:	75 c6                	jne    ffff80000011cc36 <dbg_console_printxy+0x4e>
ffff80000011cc70:	90                   	nop
ffff80000011cc71:	5d                   	pop    %rbp
ffff80000011cc72:	c3                   	retq   

ffff80000011cc73 <keyboard_handler>:
ffff80000011cc73:	55                   	push   %rbp
ffff80000011cc74:	48 89 e5             	mov    %rsp,%rbp
ffff80000011cc77:	48 83 ec 10          	sub    $0x10,%rsp
ffff80000011cc7b:	48 b8 af cc 11 00 00 	movabs $0xffff80000011ccaf,%rax
ffff80000011cc82:	80 ff ff 
ffff80000011cc85:	ff d0                	callq  *%rax
ffff80000011cc87:	3c 01                	cmp    $0x1,%al
ffff80000011cc89:	75 21                	jne    ffff80000011ccac <keyboard_handler+0x39>
ffff80000011cc8b:	48 b8 3e ce 11 00 00 	movabs $0xffff80000011ce3e,%rax
ffff80000011cc92:	80 ff ff 
ffff80000011cc95:	ff d0                	callq  *%rax
ffff80000011cc97:	88 45 ff             	mov    %al,-0x1(%rbp)
ffff80000011cc9a:	0f b6 45 ff          	movzbl -0x1(%rbp),%eax
ffff80000011cc9e:	89 c7                	mov    %eax,%edi
ffff80000011cca0:	48 b8 61 d4 11 00 00 	movabs $0xffff80000011d461,%rax
ffff80000011cca7:	80 ff ff 
ffff80000011ccaa:	ff d0                	callq  *%rax
ffff80000011ccac:	90                   	nop
ffff80000011ccad:	c9                   	leaveq 
ffff80000011ccae:	c3                   	retq   

ffff80000011ccaf <is_output_buf_full>:
ffff80000011ccaf:	55                   	push   %rbp
ffff80000011ccb0:	48 89 e5             	mov    %rsp,%rbp
ffff80000011ccb3:	bf 64 00 00 00       	mov    $0x64,%edi
ffff80000011ccb8:	b8 00 00 00 00       	mov    $0x0,%eax
ffff80000011ccbd:	48 ba 1b 00 12 00 00 	movabs $0xffff80000012001b,%rdx
ffff80000011ccc4:	80 ff ff 
ffff80000011ccc7:	ff d2                	callq  *%rdx
ffff80000011ccc9:	83 e0 01             	and    $0x1,%eax
ffff80000011cccc:	85 c0                	test   %eax,%eax
ffff80000011ccce:	74 07                	je     ffff80000011ccd7 <is_output_buf_full+0x28>
ffff80000011ccd0:	b8 01 00 00 00       	mov    $0x1,%eax
ffff80000011ccd5:	eb 05                	jmp    ffff80000011ccdc <is_output_buf_full+0x2d>
ffff80000011ccd7:	b8 00 00 00 00       	mov    $0x0,%eax
ffff80000011ccdc:	5d                   	pop    %rbp
ffff80000011ccdd:	c3                   	retq   

ffff80000011ccde <is_input_buf_full>:
ffff80000011ccde:	55                   	push   %rbp
ffff80000011ccdf:	48 89 e5             	mov    %rsp,%rbp
ffff80000011cce2:	bf 64 00 00 00       	mov    $0x64,%edi
ffff80000011cce7:	b8 00 00 00 00       	mov    $0x0,%eax
ffff80000011ccec:	48 ba 1b 00 12 00 00 	movabs $0xffff80000012001b,%rdx
ffff80000011ccf3:	80 ff ff 
ffff80000011ccf6:	ff d2                	callq  *%rdx
ffff80000011ccf8:	83 e0 02             	and    $0x2,%eax
ffff80000011ccfb:	85 c0                	test   %eax,%eax
ffff80000011ccfd:	74 07                	je     ffff80000011cd06 <is_input_buf_full+0x28>
ffff80000011ccff:	b8 01 00 00 00       	mov    $0x1,%eax
ffff80000011cd04:	eb 05                	jmp    ffff80000011cd0b <is_input_buf_full+0x2d>
ffff80000011cd06:	b8 00 00 00 00       	mov    $0x0,%eax
ffff80000011cd0b:	5d                   	pop    %rbp
ffff80000011cd0c:	c3                   	retq   

ffff80000011cd0d <keyboard_wait_ack>:
ffff80000011cd0d:	55                   	push   %rbp
ffff80000011cd0e:	48 89 e5             	mov    %rsp,%rbp
ffff80000011cd11:	48 83 ec 10          	sub    $0x10,%rsp
ffff80000011cd15:	c6 45 f7 00          	movb   $0x0,-0x9(%rbp)
ffff80000011cd19:	c7 45 f8 00 00 00 00 	movl   $0x0,-0x8(%rbp)
ffff80000011cd20:	eb 64                	jmp    ffff80000011cd86 <keyboard_wait_ack+0x79>
ffff80000011cd22:	c7 45 fc 00 00 00 00 	movl   $0x0,-0x4(%rbp)
ffff80000011cd29:	eb 14                	jmp    ffff80000011cd3f <keyboard_wait_ack+0x32>
ffff80000011cd2b:	48 b8 af cc 11 00 00 	movabs $0xffff80000011ccaf,%rax
ffff80000011cd32:	80 ff ff 
ffff80000011cd35:	ff d0                	callq  *%rax
ffff80000011cd37:	3c 01                	cmp    $0x1,%al
ffff80000011cd39:	74 0f                	je     ffff80000011cd4a <keyboard_wait_ack+0x3d>
ffff80000011cd3b:	83 45 fc 01          	addl   $0x1,-0x4(%rbp)
ffff80000011cd3f:	81 7d fc fe ff 00 00 	cmpl   $0xfffe,-0x4(%rbp)
ffff80000011cd46:	7e e3                	jle    ffff80000011cd2b <keyboard_wait_ack+0x1e>
ffff80000011cd48:	eb 01                	jmp    ffff80000011cd4b <keyboard_wait_ack+0x3e>
ffff80000011cd4a:	90                   	nop
ffff80000011cd4b:	bf 60 00 00 00       	mov    $0x60,%edi
ffff80000011cd50:	b8 00 00 00 00       	mov    $0x0,%eax
ffff80000011cd55:	48 ba 1b 00 12 00 00 	movabs $0xffff80000012001b,%rdx
ffff80000011cd5c:	80 ff ff 
ffff80000011cd5f:	ff d2                	callq  *%rdx
ffff80000011cd61:	88 45 f6             	mov    %al,-0xa(%rbp)
ffff80000011cd64:	80 7d f6 fa          	cmpb   $0xfa,-0xa(%rbp)
ffff80000011cd68:	75 06                	jne    ffff80000011cd70 <keyboard_wait_ack+0x63>
ffff80000011cd6a:	c6 45 f7 01          	movb   $0x1,-0x9(%rbp)
ffff80000011cd6e:	eb 1c                	jmp    ffff80000011cd8c <keyboard_wait_ack+0x7f>
ffff80000011cd70:	0f b6 45 f6          	movzbl -0xa(%rbp),%eax
ffff80000011cd74:	89 c7                	mov    %eax,%edi
ffff80000011cd76:	48 b8 61 d4 11 00 00 	movabs $0xffff80000011d461,%rax
ffff80000011cd7d:	80 ff ff 
ffff80000011cd80:	ff d0                	callq  *%rax
ffff80000011cd82:	83 45 f8 01          	addl   $0x1,-0x8(%rbp)
ffff80000011cd86:	83 7d f8 63          	cmpl   $0x63,-0x8(%rbp)
ffff80000011cd8a:	7e 96                	jle    ffff80000011cd22 <keyboard_wait_ack+0x15>
ffff80000011cd8c:	0f b6 45 f7          	movzbl -0x9(%rbp),%eax
ffff80000011cd90:	c9                   	leaveq 
ffff80000011cd91:	c3                   	retq   

ffff80000011cd92 <activate_keyboard>:
ffff80000011cd92:	55                   	push   %rbp
ffff80000011cd93:	48 89 e5             	mov    %rsp,%rbp
ffff80000011cd96:	48 83 ec 10          	sub    $0x10,%rsp
ffff80000011cd9a:	bf 00 00 00 00       	mov    $0x0,%edi
ffff80000011cd9f:	b8 00 00 00 00       	mov    $0x0,%eax
ffff80000011cda4:	48 ba 73 02 12 00 00 	movabs $0xffff800000120273,%rdx
ffff80000011cdab:	80 ff ff 
ffff80000011cdae:	ff d2                	callq  *%rdx
ffff80000011cdb0:	88 45 fb             	mov    %al,-0x5(%rbp)
ffff80000011cdb3:	be ae 00 00 00       	mov    $0xae,%esi
ffff80000011cdb8:	bf 64 00 00 00       	mov    $0x64,%edi
ffff80000011cdbd:	b8 00 00 00 00       	mov    $0x0,%eax
ffff80000011cdc2:	48 ba 35 00 12 00 00 	movabs $0xffff800000120035,%rdx
ffff80000011cdc9:	80 ff ff 
ffff80000011cdcc:	ff d2                	callq  *%rdx
ffff80000011cdce:	c7 45 fc 00 00 00 00 	movl   $0x0,-0x4(%rbp)
ffff80000011cdd5:	eb 14                	jmp    ffff80000011cdeb <activate_keyboard+0x59>
ffff80000011cdd7:	48 b8 de cc 11 00 00 	movabs $0xffff80000011ccde,%rax
ffff80000011cdde:	80 ff ff 
ffff80000011cde1:	ff d0                	callq  *%rax
ffff80000011cde3:	84 c0                	test   %al,%al
ffff80000011cde5:	74 0f                	je     ffff80000011cdf6 <activate_keyboard+0x64>
ffff80000011cde7:	83 45 fc 01          	addl   $0x1,-0x4(%rbp)
ffff80000011cdeb:	81 7d fc fe ff 00 00 	cmpl   $0xfffe,-0x4(%rbp)
ffff80000011cdf2:	7e e3                	jle    ffff80000011cdd7 <activate_keyboard+0x45>
ffff80000011cdf4:	eb 01                	jmp    ffff80000011cdf7 <activate_keyboard+0x65>
ffff80000011cdf6:	90                   	nop
ffff80000011cdf7:	be f4 00 00 00       	mov    $0xf4,%esi
ffff80000011cdfc:	bf 60 00 00 00       	mov    $0x60,%edi
ffff80000011ce01:	b8 00 00 00 00       	mov    $0x0,%eax
ffff80000011ce06:	48 ba 35 00 12 00 00 	movabs $0xffff800000120035,%rdx
ffff80000011ce0d:	80 ff ff 
ffff80000011ce10:	ff d2                	callq  *%rdx
ffff80000011ce12:	48 b8 0d cd 11 00 00 	movabs $0xffff80000011cd0d,%rax
ffff80000011ce19:	80 ff ff 
ffff80000011ce1c:	ff d0                	callq  *%rax
ffff80000011ce1e:	88 45 fa             	mov    %al,-0x6(%rbp)
ffff80000011ce21:	0f b6 45 fb          	movzbl -0x5(%rbp),%eax
ffff80000011ce25:	89 c7                	mov    %eax,%edi
ffff80000011ce27:	b8 00 00 00 00       	mov    $0x0,%eax
ffff80000011ce2c:	48 ba 73 02 12 00 00 	movabs $0xffff800000120273,%rdx
ffff80000011ce33:	80 ff ff 
ffff80000011ce36:	ff d2                	callq  *%rdx
ffff80000011ce38:	0f b6 45 fa          	movzbl -0x6(%rbp),%eax
ffff80000011ce3c:	c9                   	leaveq 
ffff80000011ce3d:	c3                   	retq   

ffff80000011ce3e <get_keyboard_scancode>:
ffff80000011ce3e:	55                   	push   %rbp
ffff80000011ce3f:	48 89 e5             	mov    %rsp,%rbp
ffff80000011ce42:	90                   	nop
ffff80000011ce43:	48 b8 af cc 11 00 00 	movabs $0xffff80000011ccaf,%rax
ffff80000011ce4a:	80 ff ff 
ffff80000011ce4d:	ff d0                	callq  *%rax
ffff80000011ce4f:	84 c0                	test   %al,%al
ffff80000011ce51:	74 f0                	je     ffff80000011ce43 <get_keyboard_scancode+0x5>
ffff80000011ce53:	bf 60 00 00 00       	mov    $0x60,%edi
ffff80000011ce58:	b8 00 00 00 00       	mov    $0x0,%eax
ffff80000011ce5d:	48 ba 1b 00 12 00 00 	movabs $0xffff80000012001b,%rdx
ffff80000011ce64:	80 ff ff 
ffff80000011ce67:	ff d2                	callq  *%rdx
ffff80000011ce69:	5d                   	pop    %rbp
ffff80000011ce6a:	c3                   	retq   

ffff80000011ce6b <change_keyboard_led>:
ffff80000011ce6b:	55                   	push   %rbp
ffff80000011ce6c:	48 89 e5             	mov    %rsp,%rbp
ffff80000011ce6f:	48 83 ec 20          	sub    $0x20,%rsp
ffff80000011ce73:	89 f1                	mov    %esi,%ecx
ffff80000011ce75:	89 d0                	mov    %edx,%eax
ffff80000011ce77:	40 88 7d ec          	mov    %dil,-0x14(%rbp)
ffff80000011ce7b:	88 4d e8             	mov    %cl,-0x18(%rbp)
ffff80000011ce7e:	88 45 e4             	mov    %al,-0x1c(%rbp)
ffff80000011ce81:	bf 00 00 00 00       	mov    $0x0,%edi
ffff80000011ce86:	b8 00 00 00 00       	mov    $0x0,%eax
ffff80000011ce8b:	48 ba 73 02 12 00 00 	movabs $0xffff800000120273,%rdx
ffff80000011ce92:	80 ff ff 
ffff80000011ce95:	ff d2                	callq  *%rdx
ffff80000011ce97:	88 45 fb             	mov    %al,-0x5(%rbp)
ffff80000011ce9a:	c7 45 fc 00 00 00 00 	movl   $0x0,-0x4(%rbp)
ffff80000011cea1:	eb 14                	jmp    ffff80000011ceb7 <change_keyboard_led+0x4c>
ffff80000011cea3:	48 b8 de cc 11 00 00 	movabs $0xffff80000011ccde,%rax
ffff80000011ceaa:	80 ff ff 
ffff80000011cead:	ff d0                	callq  *%rax
ffff80000011ceaf:	84 c0                	test   %al,%al
ffff80000011ceb1:	74 0f                	je     ffff80000011cec2 <change_keyboard_led+0x57>
ffff80000011ceb3:	83 45 fc 01          	addl   $0x1,-0x4(%rbp)
ffff80000011ceb7:	81 7d fc fe ff 00 00 	cmpl   $0xfffe,-0x4(%rbp)
ffff80000011cebe:	7e e3                	jle    ffff80000011cea3 <change_keyboard_led+0x38>
ffff80000011cec0:	eb 01                	jmp    ffff80000011cec3 <change_keyboard_led+0x58>
ffff80000011cec2:	90                   	nop
ffff80000011cec3:	be ed 00 00 00       	mov    $0xed,%esi
ffff80000011cec8:	bf 60 00 00 00       	mov    $0x60,%edi
ffff80000011cecd:	b8 00 00 00 00       	mov    $0x0,%eax
ffff80000011ced2:	48 ba 35 00 12 00 00 	movabs $0xffff800000120035,%rdx
ffff80000011ced9:	80 ff ff 
ffff80000011cedc:	ff d2                	callq  *%rdx
ffff80000011cede:	c7 45 fc 00 00 00 00 	movl   $0x0,-0x4(%rbp)
ffff80000011cee5:	eb 14                	jmp    ffff80000011cefb <change_keyboard_led+0x90>
ffff80000011cee7:	48 b8 de cc 11 00 00 	movabs $0xffff80000011ccde,%rax
ffff80000011ceee:	80 ff ff 
ffff80000011cef1:	ff d0                	callq  *%rax
ffff80000011cef3:	84 c0                	test   %al,%al
ffff80000011cef5:	74 0f                	je     ffff80000011cf06 <change_keyboard_led+0x9b>
ffff80000011cef7:	83 45 fc 01          	addl   $0x1,-0x4(%rbp)
ffff80000011cefb:	81 7d fc fe ff 00 00 	cmpl   $0xfffe,-0x4(%rbp)
ffff80000011cf02:	7e e3                	jle    ffff80000011cee7 <change_keyboard_led+0x7c>
ffff80000011cf04:	eb 01                	jmp    ffff80000011cf07 <change_keyboard_led+0x9c>
ffff80000011cf06:	90                   	nop
ffff80000011cf07:	48 b8 0d cd 11 00 00 	movabs $0xffff80000011cd0d,%rax
ffff80000011cf0e:	80 ff ff 
ffff80000011cf11:	ff d0                	callq  *%rax
ffff80000011cf13:	88 45 fa             	mov    %al,-0x6(%rbp)
ffff80000011cf16:	80 7d fa 00          	cmpb   $0x0,-0x6(%rbp)
ffff80000011cf1a:	75 21                	jne    ffff80000011cf3d <change_keyboard_led+0xd2>
ffff80000011cf1c:	0f b6 45 fb          	movzbl -0x5(%rbp),%eax
ffff80000011cf20:	89 c7                	mov    %eax,%edi
ffff80000011cf22:	b8 00 00 00 00       	mov    $0x0,%eax
ffff80000011cf27:	48 ba 73 02 12 00 00 	movabs $0xffff800000120273,%rdx
ffff80000011cf2e:	80 ff ff 
ffff80000011cf31:	ff d2                	callq  *%rdx
ffff80000011cf33:	b8 00 00 00 00       	mov    $0x0,%eax
ffff80000011cf38:	e9 84 00 00 00       	jmpq   ffff80000011cfc1 <change_keyboard_led+0x156>
ffff80000011cf3d:	0f b6 45 ec          	movzbl -0x14(%rbp),%eax
ffff80000011cf41:	8d 14 85 00 00 00 00 	lea    0x0(,%rax,4),%edx
ffff80000011cf48:	0f b6 45 e8          	movzbl -0x18(%rbp),%eax
ffff80000011cf4c:	01 c0                	add    %eax,%eax
ffff80000011cf4e:	09 c2                	or     %eax,%edx
ffff80000011cf50:	0f b6 45 e4          	movzbl -0x1c(%rbp),%eax
ffff80000011cf54:	09 d0                	or     %edx,%eax
ffff80000011cf56:	89 c6                	mov    %eax,%esi
ffff80000011cf58:	bf 60 00 00 00       	mov    $0x60,%edi
ffff80000011cf5d:	b8 00 00 00 00       	mov    $0x0,%eax
ffff80000011cf62:	48 ba 35 00 12 00 00 	movabs $0xffff800000120035,%rdx
ffff80000011cf69:	80 ff ff 
ffff80000011cf6c:	ff d2                	callq  *%rdx
ffff80000011cf6e:	c7 45 fc 00 00 00 00 	movl   $0x0,-0x4(%rbp)
ffff80000011cf75:	eb 14                	jmp    ffff80000011cf8b <change_keyboard_led+0x120>
ffff80000011cf77:	48 b8 de cc 11 00 00 	movabs $0xffff80000011ccde,%rax
ffff80000011cf7e:	80 ff ff 
ffff80000011cf81:	ff d0                	callq  *%rax
ffff80000011cf83:	84 c0                	test   %al,%al
ffff80000011cf85:	74 0f                	je     ffff80000011cf96 <change_keyboard_led+0x12b>
ffff80000011cf87:	83 45 fc 01          	addl   $0x1,-0x4(%rbp)
ffff80000011cf8b:	81 7d fc fe ff 00 00 	cmpl   $0xfffe,-0x4(%rbp)
ffff80000011cf92:	7e e3                	jle    ffff80000011cf77 <change_keyboard_led+0x10c>
ffff80000011cf94:	eb 01                	jmp    ffff80000011cf97 <change_keyboard_led+0x12c>
ffff80000011cf96:	90                   	nop
ffff80000011cf97:	48 b8 0d cd 11 00 00 	movabs $0xffff80000011cd0d,%rax
ffff80000011cf9e:	80 ff ff 
ffff80000011cfa1:	ff d0                	callq  *%rax
ffff80000011cfa3:	88 45 fa             	mov    %al,-0x6(%rbp)
ffff80000011cfa6:	0f b6 45 fb          	movzbl -0x5(%rbp),%eax
ffff80000011cfaa:	89 c7                	mov    %eax,%edi
ffff80000011cfac:	b8 00 00 00 00       	mov    $0x0,%eax
ffff80000011cfb1:	48 ba 73 02 12 00 00 	movabs $0xffff800000120273,%rdx
ffff80000011cfb8:	80 ff ff 
ffff80000011cfbb:	ff d2                	callq  *%rdx
ffff80000011cfbd:	0f b6 45 fa          	movzbl -0x6(%rbp),%eax
ffff80000011cfc1:	c9                   	leaveq 
ffff80000011cfc2:	c3                   	retq   

ffff80000011cfc3 <is_alphabet_scancode>:
ffff80000011cfc3:	55                   	push   %rbp
ffff80000011cfc4:	48 89 e5             	mov    %rsp,%rbp
ffff80000011cfc7:	89 f8                	mov    %edi,%eax
ffff80000011cfc9:	88 45 fc             	mov    %al,-0x4(%rbp)
ffff80000011cfcc:	0f b6 55 fc          	movzbl -0x4(%rbp),%edx
ffff80000011cfd0:	48 b8 40 29 12 00 00 	movabs $0xffff800000122940,%rax
ffff80000011cfd7:	80 ff ff 
ffff80000011cfda:	48 63 d2             	movslq %edx,%rdx
ffff80000011cfdd:	0f b6 04 50          	movzbl (%rax,%rdx,2),%eax
ffff80000011cfe1:	3c 60                	cmp    $0x60,%al
ffff80000011cfe3:	76 20                	jbe    ffff80000011d005 <is_alphabet_scancode+0x42>
ffff80000011cfe5:	0f b6 55 fc          	movzbl -0x4(%rbp),%edx
ffff80000011cfe9:	48 b8 40 29 12 00 00 	movabs $0xffff800000122940,%rax
ffff80000011cff0:	80 ff ff 
ffff80000011cff3:	48 63 d2             	movslq %edx,%rdx
ffff80000011cff6:	0f b6 04 50          	movzbl (%rax,%rdx,2),%eax
ffff80000011cffa:	3c 7a                	cmp    $0x7a,%al
ffff80000011cffc:	77 07                	ja     ffff80000011d005 <is_alphabet_scancode+0x42>
ffff80000011cffe:	b8 01 00 00 00       	mov    $0x1,%eax
ffff80000011d003:	eb 05                	jmp    ffff80000011d00a <is_alphabet_scancode+0x47>
ffff80000011d005:	b8 00 00 00 00       	mov    $0x0,%eax
ffff80000011d00a:	5d                   	pop    %rbp
ffff80000011d00b:	c3                   	retq   

ffff80000011d00c <is_number_or_symbol_scancode>:
ffff80000011d00c:	55                   	push   %rbp
ffff80000011d00d:	48 89 e5             	mov    %rsp,%rbp
ffff80000011d010:	48 83 ec 08          	sub    $0x8,%rsp
ffff80000011d014:	89 f8                	mov    %edi,%eax
ffff80000011d016:	88 45 fc             	mov    %al,-0x4(%rbp)
ffff80000011d019:	80 7d fc 01          	cmpb   $0x1,-0x4(%rbp)
ffff80000011d01d:	76 23                	jbe    ffff80000011d042 <is_number_or_symbol_scancode+0x36>
ffff80000011d01f:	80 7d fc 35          	cmpb   $0x35,-0x4(%rbp)
ffff80000011d023:	77 1d                	ja     ffff80000011d042 <is_number_or_symbol_scancode+0x36>
ffff80000011d025:	0f b6 45 fc          	movzbl -0x4(%rbp),%eax
ffff80000011d029:	89 c7                	mov    %eax,%edi
ffff80000011d02b:	48 b8 c3 cf 11 00 00 	movabs $0xffff80000011cfc3,%rax
ffff80000011d032:	80 ff ff 
ffff80000011d035:	ff d0                	callq  *%rax
ffff80000011d037:	84 c0                	test   %al,%al
ffff80000011d039:	75 07                	jne    ffff80000011d042 <is_number_or_symbol_scancode+0x36>
ffff80000011d03b:	b8 01 00 00 00       	mov    $0x1,%eax
ffff80000011d040:	eb 05                	jmp    ffff80000011d047 <is_number_or_symbol_scancode+0x3b>
ffff80000011d042:	b8 00 00 00 00       	mov    $0x0,%eax
ffff80000011d047:	c9                   	leaveq 
ffff80000011d048:	c3                   	retq   

ffff80000011d049 <is_number_pad_scancode>:
ffff80000011d049:	55                   	push   %rbp
ffff80000011d04a:	48 89 e5             	mov    %rsp,%rbp
ffff80000011d04d:	89 f8                	mov    %edi,%eax
ffff80000011d04f:	88 45 fc             	mov    %al,-0x4(%rbp)
ffff80000011d052:	80 7d fc 46          	cmpb   $0x46,-0x4(%rbp)
ffff80000011d056:	76 0d                	jbe    ffff80000011d065 <is_number_pad_scancode+0x1c>
ffff80000011d058:	80 7d fc 53          	cmpb   $0x53,-0x4(%rbp)
ffff80000011d05c:	77 07                	ja     ffff80000011d065 <is_number_pad_scancode+0x1c>
ffff80000011d05e:	b8 01 00 00 00       	mov    $0x1,%eax
ffff80000011d063:	eb 05                	jmp    ffff80000011d06a <is_number_pad_scancode+0x21>
ffff80000011d065:	b8 00 00 00 00       	mov    $0x0,%eax
ffff80000011d06a:	5d                   	pop    %rbp
ffff80000011d06b:	c3                   	retq   

ffff80000011d06c <is_use_combined_code>:
ffff80000011d06c:	55                   	push   %rbp
ffff80000011d06d:	48 89 e5             	mov    %rsp,%rbp
ffff80000011d070:	48 83 ec 18          	sub    $0x18,%rsp
ffff80000011d074:	89 f8                	mov    %edi,%eax
ffff80000011d076:	88 45 ec             	mov    %al,-0x14(%rbp)
ffff80000011d079:	c6 45 ff 00          	movb   $0x0,-0x1(%rbp)
ffff80000011d07d:	0f b6 45 ec          	movzbl -0x14(%rbp),%eax
ffff80000011d081:	83 e0 7f             	and    $0x7f,%eax
ffff80000011d084:	88 45 fe             	mov    %al,-0x2(%rbp)
ffff80000011d087:	0f b6 45 fe          	movzbl -0x2(%rbp),%eax
ffff80000011d08b:	89 c7                	mov    %eax,%edi
ffff80000011d08d:	48 b8 c3 cf 11 00 00 	movabs $0xffff80000011cfc3,%rax
ffff80000011d094:	80 ff ff 
ffff80000011d097:	ff d0                	callq  *%rax
ffff80000011d099:	3c 01                	cmp    $0x1,%al
ffff80000011d09b:	75 2c                	jne    ffff80000011d0c9 <is_use_combined_code+0x5d>
ffff80000011d09d:	48 b8 40 2a 12 00 00 	movabs $0xffff800000122a40,%rax
ffff80000011d0a4:	80 ff ff 
ffff80000011d0a7:	0f b6 50 08          	movzbl 0x8(%rax),%edx
ffff80000011d0ab:	48 b8 40 2a 12 00 00 	movabs $0xffff800000122a40,%rax
ffff80000011d0b2:	80 ff ff 
ffff80000011d0b5:	0f b6 40 09          	movzbl 0x9(%rax),%eax
ffff80000011d0b9:	38 c2                	cmp    %al,%dl
ffff80000011d0bb:	74 06                	je     ffff80000011d0c3 <is_use_combined_code+0x57>
ffff80000011d0bd:	c6 45 ff 01          	movb   $0x1,-0x1(%rbp)
ffff80000011d0c1:	eb 7e                	jmp    ffff80000011d141 <is_use_combined_code+0xd5>
ffff80000011d0c3:	c6 45 ff 00          	movb   $0x0,-0x1(%rbp)
ffff80000011d0c7:	eb 78                	jmp    ffff80000011d141 <is_use_combined_code+0xd5>
ffff80000011d0c9:	0f b6 45 fe          	movzbl -0x2(%rbp),%eax
ffff80000011d0cd:	89 c7                	mov    %eax,%edi
ffff80000011d0cf:	48 b8 0c d0 11 00 00 	movabs $0xffff80000011d00c,%rax
ffff80000011d0d6:	80 ff ff 
ffff80000011d0d9:	ff d0                	callq  *%rax
ffff80000011d0db:	3c 01                	cmp    $0x1,%al
ffff80000011d0dd:	75 1e                	jne    ffff80000011d0fd <is_use_combined_code+0x91>
ffff80000011d0df:	48 b8 40 2a 12 00 00 	movabs $0xffff800000122a40,%rax
ffff80000011d0e6:	80 ff ff 
ffff80000011d0e9:	0f b6 40 08          	movzbl 0x8(%rax),%eax
ffff80000011d0ed:	3c 01                	cmp    $0x1,%al
ffff80000011d0ef:	75 06                	jne    ffff80000011d0f7 <is_use_combined_code+0x8b>
ffff80000011d0f1:	c6 45 ff 01          	movb   $0x1,-0x1(%rbp)
ffff80000011d0f5:	eb 4a                	jmp    ffff80000011d141 <is_use_combined_code+0xd5>
ffff80000011d0f7:	c6 45 ff 00          	movb   $0x0,-0x1(%rbp)
ffff80000011d0fb:	eb 44                	jmp    ffff80000011d141 <is_use_combined_code+0xd5>
ffff80000011d0fd:	0f b6 45 fe          	movzbl -0x2(%rbp),%eax
ffff80000011d101:	89 c7                	mov    %eax,%edi
ffff80000011d103:	48 b8 49 d0 11 00 00 	movabs $0xffff80000011d049,%rax
ffff80000011d10a:	80 ff ff 
ffff80000011d10d:	ff d0                	callq  *%rax
ffff80000011d10f:	3c 01                	cmp    $0x1,%al
ffff80000011d111:	75 2e                	jne    ffff80000011d141 <is_use_combined_code+0xd5>
ffff80000011d113:	48 b8 40 2a 12 00 00 	movabs $0xffff800000122a40,%rax
ffff80000011d11a:	80 ff ff 
ffff80000011d11d:	0f b6 40 0c          	movzbl 0xc(%rax),%eax
ffff80000011d121:	84 c0                	test   %al,%al
ffff80000011d123:	75 1c                	jne    ffff80000011d141 <is_use_combined_code+0xd5>
ffff80000011d125:	48 b8 40 2a 12 00 00 	movabs $0xffff800000122a40,%rax
ffff80000011d12c:	80 ff ff 
ffff80000011d12f:	0f b6 40 0a          	movzbl 0xa(%rax),%eax
ffff80000011d133:	3c 01                	cmp    $0x1,%al
ffff80000011d135:	75 06                	jne    ffff80000011d13d <is_use_combined_code+0xd1>
ffff80000011d137:	c6 45 ff 01          	movb   $0x1,-0x1(%rbp)
ffff80000011d13b:	eb 04                	jmp    ffff80000011d141 <is_use_combined_code+0xd5>
ffff80000011d13d:	c6 45 ff 00          	movb   $0x0,-0x1(%rbp)
ffff80000011d141:	0f b6 45 ff          	movzbl -0x1(%rbp),%eax
ffff80000011d145:	c9                   	leaveq 
ffff80000011d146:	c3                   	retq   

ffff80000011d147 <update_combination_key_status_and_led>:
ffff80000011d147:	55                   	push   %rbp
ffff80000011d148:	48 89 e5             	mov    %rsp,%rbp
ffff80000011d14b:	48 83 ec 20          	sub    $0x20,%rsp
ffff80000011d14f:	89 f8                	mov    %edi,%eax
ffff80000011d151:	88 45 ec             	mov    %al,-0x14(%rbp)
ffff80000011d154:	c6 45 fd 00          	movb   $0x0,-0x3(%rbp)
ffff80000011d158:	0f b6 45 ec          	movzbl -0x14(%rbp),%eax
ffff80000011d15c:	84 c0                	test   %al,%al
ffff80000011d15e:	79 10                	jns    ffff80000011d170 <update_combination_key_status_and_led+0x29>
ffff80000011d160:	c6 45 ff 00          	movb   $0x0,-0x1(%rbp)
ffff80000011d164:	0f b6 45 ec          	movzbl -0x14(%rbp),%eax
ffff80000011d168:	83 e0 7f             	and    $0x7f,%eax
ffff80000011d16b:	88 45 fe             	mov    %al,-0x2(%rbp)
ffff80000011d16e:	eb 0b                	jmp    ffff80000011d17b <update_combination_key_status_and_led+0x34>
ffff80000011d170:	c6 45 ff 01          	movb   $0x1,-0x1(%rbp)
ffff80000011d174:	0f b6 45 ec          	movzbl -0x14(%rbp),%eax
ffff80000011d178:	88 45 fe             	mov    %al,-0x2(%rbp)
ffff80000011d17b:	80 7d fe 2a          	cmpb   $0x2a,-0x2(%rbp)
ffff80000011d17f:	74 06                	je     ffff80000011d187 <update_combination_key_status_and_led+0x40>
ffff80000011d181:	80 7d fe 36          	cmpb   $0x36,-0x2(%rbp)
ffff80000011d185:	75 16                	jne    ffff80000011d19d <update_combination_key_status_and_led+0x56>
ffff80000011d187:	48 b8 40 2a 12 00 00 	movabs $0xffff800000122a40,%rax
ffff80000011d18e:	80 ff ff 
ffff80000011d191:	0f b6 55 ff          	movzbl -0x1(%rbp),%edx
ffff80000011d195:	88 50 08             	mov    %dl,0x8(%rax)
ffff80000011d198:	e9 94 00 00 00       	jmpq   ffff80000011d231 <update_combination_key_status_and_led+0xea>
ffff80000011d19d:	80 7d fe 3a          	cmpb   $0x3a,-0x2(%rbp)
ffff80000011d1a1:	75 2c                	jne    ffff80000011d1cf <update_combination_key_status_and_led+0x88>
ffff80000011d1a3:	80 7d ff 01          	cmpb   $0x1,-0x1(%rbp)
ffff80000011d1a7:	75 26                	jne    ffff80000011d1cf <update_combination_key_status_and_led+0x88>
ffff80000011d1a9:	48 b8 40 2a 12 00 00 	movabs $0xffff800000122a40,%rax
ffff80000011d1b0:	80 ff ff 
ffff80000011d1b3:	0f b6 40 09          	movzbl 0x9(%rax),%eax
ffff80000011d1b7:	83 f0 01             	xor    $0x1,%eax
ffff80000011d1ba:	89 c2                	mov    %eax,%edx
ffff80000011d1bc:	48 b8 40 2a 12 00 00 	movabs $0xffff800000122a40,%rax
ffff80000011d1c3:	80 ff ff 
ffff80000011d1c6:	88 50 09             	mov    %dl,0x9(%rax)
ffff80000011d1c9:	c6 45 fd 01          	movb   $0x1,-0x3(%rbp)
ffff80000011d1cd:	eb 62                	jmp    ffff80000011d231 <update_combination_key_status_and_led+0xea>
ffff80000011d1cf:	80 7d fe 45          	cmpb   $0x45,-0x2(%rbp)
ffff80000011d1d3:	75 2c                	jne    ffff80000011d201 <update_combination_key_status_and_led+0xba>
ffff80000011d1d5:	80 7d ff 01          	cmpb   $0x1,-0x1(%rbp)
ffff80000011d1d9:	75 26                	jne    ffff80000011d201 <update_combination_key_status_and_led+0xba>
ffff80000011d1db:	48 b8 40 2a 12 00 00 	movabs $0xffff800000122a40,%rax
ffff80000011d1e2:	80 ff ff 
ffff80000011d1e5:	0f b6 40 0a          	movzbl 0xa(%rax),%eax
ffff80000011d1e9:	83 f0 01             	xor    $0x1,%eax
ffff80000011d1ec:	89 c2                	mov    %eax,%edx
ffff80000011d1ee:	48 b8 40 2a 12 00 00 	movabs $0xffff800000122a40,%rax
ffff80000011d1f5:	80 ff ff 
ffff80000011d1f8:	88 50 0a             	mov    %dl,0xa(%rax)
ffff80000011d1fb:	c6 45 fd 01          	movb   $0x1,-0x3(%rbp)
ffff80000011d1ff:	eb 30                	jmp    ffff80000011d231 <update_combination_key_status_and_led+0xea>
ffff80000011d201:	80 7d fe 46          	cmpb   $0x46,-0x2(%rbp)
ffff80000011d205:	75 2a                	jne    ffff80000011d231 <update_combination_key_status_and_led+0xea>
ffff80000011d207:	80 7d ff 01          	cmpb   $0x1,-0x1(%rbp)
ffff80000011d20b:	75 24                	jne    ffff80000011d231 <update_combination_key_status_and_led+0xea>
ffff80000011d20d:	48 b8 40 2a 12 00 00 	movabs $0xffff800000122a40,%rax
ffff80000011d214:	80 ff ff 
ffff80000011d217:	0f b6 40 0b          	movzbl 0xb(%rax),%eax
ffff80000011d21b:	83 f0 01             	xor    $0x1,%eax
ffff80000011d21e:	89 c2                	mov    %eax,%edx
ffff80000011d220:	48 b8 40 2a 12 00 00 	movabs $0xffff800000122a40,%rax
ffff80000011d227:	80 ff ff 
ffff80000011d22a:	88 50 0b             	mov    %dl,0xb(%rax)
ffff80000011d22d:	c6 45 fd 01          	movb   $0x1,-0x3(%rbp)
ffff80000011d231:	80 7d fd 01          	cmpb   $0x1,-0x3(%rbp)
ffff80000011d235:	75 43                	jne    ffff80000011d27a <update_combination_key_status_and_led+0x133>
ffff80000011d237:	48 b8 40 2a 12 00 00 	movabs $0xffff800000122a40,%rax
ffff80000011d23e:	80 ff ff 
ffff80000011d241:	0f b6 40 0b          	movzbl 0xb(%rax),%eax
ffff80000011d245:	0f b6 d0             	movzbl %al,%edx
ffff80000011d248:	48 b8 40 2a 12 00 00 	movabs $0xffff800000122a40,%rax
ffff80000011d24f:	80 ff ff 
ffff80000011d252:	0f b6 40 0a          	movzbl 0xa(%rax),%eax
ffff80000011d256:	0f b6 c8             	movzbl %al,%ecx
ffff80000011d259:	48 b8 40 2a 12 00 00 	movabs $0xffff800000122a40,%rax
ffff80000011d260:	80 ff ff 
ffff80000011d263:	0f b6 40 09          	movzbl 0x9(%rax),%eax
ffff80000011d267:	0f b6 c0             	movzbl %al,%eax
ffff80000011d26a:	89 ce                	mov    %ecx,%esi
ffff80000011d26c:	89 c7                	mov    %eax,%edi
ffff80000011d26e:	48 b8 6b ce 11 00 00 	movabs $0xffff80000011ce6b,%rax
ffff80000011d275:	80 ff ff 
ffff80000011d278:	ff d0                	callq  *%rax
ffff80000011d27a:	90                   	nop
ffff80000011d27b:	c9                   	leaveq 
ffff80000011d27c:	c3                   	retq   

ffff80000011d27d <convert_scancode_to_asciicode_and_flag>:
ffff80000011d27d:	55                   	push   %rbp
ffff80000011d27e:	48 89 e5             	mov    %rsp,%rbp
ffff80000011d281:	48 83 ec 30          	sub    $0x30,%rsp
ffff80000011d285:	89 f8                	mov    %edi,%eax
ffff80000011d287:	48 89 75 e0          	mov    %rsi,-0x20(%rbp)
ffff80000011d28b:	48 89 55 d8          	mov    %rdx,-0x28(%rbp)
ffff80000011d28f:	88 45 ec             	mov    %al,-0x14(%rbp)
ffff80000011d292:	48 b8 40 2a 12 00 00 	movabs $0xffff800000122a40,%rax
ffff80000011d299:	80 ff ff 
ffff80000011d29c:	8b 40 0d             	mov    0xd(%rax),%eax
ffff80000011d29f:	85 c0                	test   %eax,%eax
ffff80000011d2a1:	7e 27                	jle    ffff80000011d2ca <convert_scancode_to_asciicode_and_flag+0x4d>
ffff80000011d2a3:	48 b8 40 2a 12 00 00 	movabs $0xffff800000122a40,%rax
ffff80000011d2aa:	80 ff ff 
ffff80000011d2ad:	8b 40 0d             	mov    0xd(%rax),%eax
ffff80000011d2b0:	8d 50 ff             	lea    -0x1(%rax),%edx
ffff80000011d2b3:	48 b8 40 2a 12 00 00 	movabs $0xffff800000122a40,%rax
ffff80000011d2ba:	80 ff ff 
ffff80000011d2bd:	89 50 0d             	mov    %edx,0xd(%rax)
ffff80000011d2c0:	b8 00 00 00 00       	mov    $0x0,%eax
ffff80000011d2c5:	e9 0c 01 00 00       	jmpq   ffff80000011d3d6 <convert_scancode_to_asciicode_and_flag+0x159>
ffff80000011d2ca:	80 7d ec e1          	cmpb   $0xe1,-0x14(%rbp)
ffff80000011d2ce:	75 29                	jne    ffff80000011d2f9 <convert_scancode_to_asciicode_and_flag+0x7c>
ffff80000011d2d0:	48 8b 45 e0          	mov    -0x20(%rbp),%rax
ffff80000011d2d4:	c6 00 a0             	movb   $0xa0,(%rax)
ffff80000011d2d7:	48 8b 45 d8          	mov    -0x28(%rbp),%rax
ffff80000011d2db:	c6 00 01             	movb   $0x1,(%rax)
ffff80000011d2de:	48 b8 40 2a 12 00 00 	movabs $0xffff800000122a40,%rax
ffff80000011d2e5:	80 ff ff 
ffff80000011d2e8:	c7 40 0d 02 00 00 00 	movl   $0x2,0xd(%rax)
ffff80000011d2ef:	b8 01 00 00 00       	mov    $0x1,%eax
ffff80000011d2f4:	e9 dd 00 00 00       	jmpq   ffff80000011d3d6 <convert_scancode_to_asciicode_and_flag+0x159>
ffff80000011d2f9:	80 7d ec e0          	cmpb   $0xe0,-0x14(%rbp)
ffff80000011d2fd:	75 18                	jne    ffff80000011d317 <convert_scancode_to_asciicode_and_flag+0x9a>
ffff80000011d2ff:	48 b8 40 2a 12 00 00 	movabs $0xffff800000122a40,%rax
ffff80000011d306:	80 ff ff 
ffff80000011d309:	c6 40 0c 01          	movb   $0x1,0xc(%rax)
ffff80000011d30d:	b8 00 00 00 00       	mov    $0x0,%eax
ffff80000011d312:	e9 bf 00 00 00       	jmpq   ffff80000011d3d6 <convert_scancode_to_asciicode_and_flag+0x159>
ffff80000011d317:	0f b6 45 ec          	movzbl -0x14(%rbp),%eax
ffff80000011d31b:	89 c7                	mov    %eax,%edi
ffff80000011d31d:	48 b8 6c d0 11 00 00 	movabs $0xffff80000011d06c,%rax
ffff80000011d324:	80 ff ff 
ffff80000011d327:	ff d0                	callq  *%rax
ffff80000011d329:	88 45 ff             	mov    %al,-0x1(%rbp)
ffff80000011d32c:	80 7d ff 01          	cmpb   $0x1,-0x1(%rbp)
ffff80000011d330:	75 23                	jne    ffff80000011d355 <convert_scancode_to_asciicode_and_flag+0xd8>
ffff80000011d332:	0f b6 45 ec          	movzbl -0x14(%rbp),%eax
ffff80000011d336:	83 e0 7f             	and    $0x7f,%eax
ffff80000011d339:	89 c2                	mov    %eax,%edx
ffff80000011d33b:	48 b8 40 29 12 00 00 	movabs $0xffff800000122940,%rax
ffff80000011d342:	80 ff ff 
ffff80000011d345:	48 63 d2             	movslq %edx,%rdx
ffff80000011d348:	0f b6 54 50 01       	movzbl 0x1(%rax,%rdx,2),%edx
ffff80000011d34d:	48 8b 45 e0          	mov    -0x20(%rbp),%rax
ffff80000011d351:	88 10                	mov    %dl,(%rax)
ffff80000011d353:	eb 20                	jmp    ffff80000011d375 <convert_scancode_to_asciicode_and_flag+0xf8>
ffff80000011d355:	0f b6 45 ec          	movzbl -0x14(%rbp),%eax
ffff80000011d359:	83 e0 7f             	and    $0x7f,%eax
ffff80000011d35c:	89 c2                	mov    %eax,%edx
ffff80000011d35e:	48 b8 40 29 12 00 00 	movabs $0xffff800000122940,%rax
ffff80000011d365:	80 ff ff 
ffff80000011d368:	48 63 d2             	movslq %edx,%rdx
ffff80000011d36b:	0f b6 14 50          	movzbl (%rax,%rdx,2),%edx
ffff80000011d36f:	48 8b 45 e0          	mov    -0x20(%rbp),%rax
ffff80000011d373:	88 10                	mov    %dl,(%rax)
ffff80000011d375:	48 b8 40 2a 12 00 00 	movabs $0xffff800000122a40,%rax
ffff80000011d37c:	80 ff ff 
ffff80000011d37f:	0f b6 40 0c          	movzbl 0xc(%rax),%eax
ffff80000011d383:	3c 01                	cmp    $0x1,%al
ffff80000011d385:	75 17                	jne    ffff80000011d39e <convert_scancode_to_asciicode_and_flag+0x121>
ffff80000011d387:	48 8b 45 d8          	mov    -0x28(%rbp),%rax
ffff80000011d38b:	c6 00 02             	movb   $0x2,(%rax)
ffff80000011d38e:	48 b8 40 2a 12 00 00 	movabs $0xffff800000122a40,%rax
ffff80000011d395:	80 ff ff 
ffff80000011d398:	c6 40 0c 00          	movb   $0x0,0xc(%rax)
ffff80000011d39c:	eb 07                	jmp    ffff80000011d3a5 <convert_scancode_to_asciicode_and_flag+0x128>
ffff80000011d39e:	48 8b 45 d8          	mov    -0x28(%rbp),%rax
ffff80000011d3a2:	c6 00 00             	movb   $0x0,(%rax)
ffff80000011d3a5:	0f b6 45 ec          	movzbl -0x14(%rbp),%eax
ffff80000011d3a9:	84 c0                	test   %al,%al
ffff80000011d3ab:	78 12                	js     ffff80000011d3bf <convert_scancode_to_asciicode_and_flag+0x142>
ffff80000011d3ad:	48 8b 45 d8          	mov    -0x28(%rbp),%rax
ffff80000011d3b1:	0f b6 00             	movzbl (%rax),%eax
ffff80000011d3b4:	83 c8 01             	or     $0x1,%eax
ffff80000011d3b7:	89 c2                	mov    %eax,%edx
ffff80000011d3b9:	48 8b 45 d8          	mov    -0x28(%rbp),%rax
ffff80000011d3bd:	88 10                	mov    %dl,(%rax)
ffff80000011d3bf:	0f b6 45 ec          	movzbl -0x14(%rbp),%eax
ffff80000011d3c3:	89 c7                	mov    %eax,%edi
ffff80000011d3c5:	48 b8 47 d1 11 00 00 	movabs $0xffff80000011d147,%rax
ffff80000011d3cc:	80 ff ff 
ffff80000011d3cf:	ff d0                	callq  *%rax
ffff80000011d3d1:	b8 01 00 00 00       	mov    $0x1,%eax
ffff80000011d3d6:	c9                   	leaveq 
ffff80000011d3d7:	c3                   	retq   

ffff80000011d3d8 <keyboard_init>:
ffff80000011d3d8:	55                   	push   %rbp
ffff80000011d3d9:	48 89 e5             	mov    %rsp,%rbp
ffff80000011d3dc:	b9 03 00 00 00       	mov    $0x3,%ecx
ffff80000011d3e1:	ba 64 00 00 00       	mov    $0x64,%edx
ffff80000011d3e6:	48 be 80 2a 12 00 00 	movabs $0xffff800000122a80,%rsi
ffff80000011d3ed:	80 ff ff 
ffff80000011d3f0:	48 bf 60 2a 12 00 00 	movabs $0xffff800000122a60,%rdi
ffff80000011d3f7:	80 ff ff 
ffff80000011d3fa:	48 b8 d7 da 11 00 00 	movabs $0xffff80000011dad7,%rax
ffff80000011d401:	80 ff ff 
ffff80000011d404:	ff d0                	callq  *%rax
ffff80000011d406:	48 bf 40 2a 12 00 00 	movabs $0xffff800000122a40,%rdi
ffff80000011d40d:	80 ff ff 
ffff80000011d410:	48 b8 27 fc 11 00 00 	movabs $0xffff80000011fc27,%rax
ffff80000011d417:	80 ff ff 
ffff80000011d41a:	ff d0                	callq  *%rax
ffff80000011d41c:	48 b8 92 cd 11 00 00 	movabs $0xffff80000011cd92,%rax
ffff80000011d423:	80 ff ff 
ffff80000011d426:	ff d0                	callq  *%rax
ffff80000011d428:	ba 00 00 00 00       	mov    $0x0,%edx
ffff80000011d42d:	be 00 00 00 00       	mov    $0x0,%esi
ffff80000011d432:	bf 00 00 00 00       	mov    $0x0,%edi
ffff80000011d437:	48 b8 6b ce 11 00 00 	movabs $0xffff80000011ce6b,%rax
ffff80000011d43e:	80 ff ff 
ffff80000011d441:	ff d0                	callq  *%rax
ffff80000011d443:	48 bf 90 14 12 00 00 	movabs $0xffff800000121490,%rdi
ffff80000011d44a:	80 ff ff 
ffff80000011d44d:	b8 00 00 00 00       	mov    $0x0,%eax
ffff80000011d452:	48 ba 32 f8 11 00 00 	movabs $0xffff80000011f832,%rdx
ffff80000011d459:	80 ff ff 
ffff80000011d45c:	ff d2                	callq  *%rdx
ffff80000011d45e:	90                   	nop
ffff80000011d45f:	5d                   	pop    %rbp
ffff80000011d460:	c3                   	retq   

ffff80000011d461 <convert_scancode_and_inqueue>:
ffff80000011d461:	55                   	push   %rbp
ffff80000011d462:	48 89 e5             	mov    %rsp,%rbp
ffff80000011d465:	48 83 ec 20          	sub    $0x20,%rsp
ffff80000011d469:	89 f8                	mov    %edi,%eax
ffff80000011d46b:	88 45 ec             	mov    %al,-0x14(%rbp)
ffff80000011d46e:	c6 45 ff 00          	movb   $0x0,-0x1(%rbp)
ffff80000011d472:	0f b6 45 ec          	movzbl -0x14(%rbp),%eax
ffff80000011d476:	88 45 f0             	mov    %al,-0x10(%rbp)
ffff80000011d479:	0f b6 45 ec          	movzbl -0x14(%rbp),%eax
ffff80000011d47d:	48 8d 55 f0          	lea    -0x10(%rbp),%rdx
ffff80000011d481:	48 83 c2 02          	add    $0x2,%rdx
ffff80000011d485:	48 8d 4d f0          	lea    -0x10(%rbp),%rcx
ffff80000011d489:	48 83 c1 01          	add    $0x1,%rcx
ffff80000011d48d:	48 89 ce             	mov    %rcx,%rsi
ffff80000011d490:	89 c7                	mov    %eax,%edi
ffff80000011d492:	48 b8 7d d2 11 00 00 	movabs $0xffff80000011d27d,%rax
ffff80000011d499:	80 ff ff 
ffff80000011d49c:	ff d0                	callq  *%rax
ffff80000011d49e:	3c 01                	cmp    $0x1,%al
ffff80000011d4a0:	75 4c                	jne    ffff80000011d4ee <convert_scancode_and_inqueue+0x8d>
ffff80000011d4a2:	48 bf 40 2a 12 00 00 	movabs $0xffff800000122a40,%rdi
ffff80000011d4a9:	80 ff ff 
ffff80000011d4ac:	48 b8 54 fc 11 00 00 	movabs $0xffff80000011fc54,%rax
ffff80000011d4b3:	80 ff ff 
ffff80000011d4b6:	ff d0                	callq  *%rax
ffff80000011d4b8:	48 8d 45 f0          	lea    -0x10(%rbp),%rax
ffff80000011d4bc:	48 89 c6             	mov    %rax,%rsi
ffff80000011d4bf:	48 bf 60 2a 12 00 00 	movabs $0xffff800000122a60,%rdi
ffff80000011d4c6:	80 ff ff 
ffff80000011d4c9:	48 b8 91 db 11 00 00 	movabs $0xffff80000011db91,%rax
ffff80000011d4d0:	80 ff ff 
ffff80000011d4d3:	ff d0                	callq  *%rax
ffff80000011d4d5:	88 45 ff             	mov    %al,-0x1(%rbp)
ffff80000011d4d8:	48 bf 40 2a 12 00 00 	movabs $0xffff800000122a40,%rdi
ffff80000011d4df:	80 ff ff 
ffff80000011d4e2:	48 b8 31 fd 11 00 00 	movabs $0xffff80000011fd31,%rax
ffff80000011d4e9:	80 ff ff 
ffff80000011d4ec:	ff d0                	callq  *%rax
ffff80000011d4ee:	0f b6 45 ff          	movzbl -0x1(%rbp),%eax
ffff80000011d4f2:	c9                   	leaveq 
ffff80000011d4f3:	c3                   	retq   

ffff80000011d4f4 <get_key_from_key_queue>:
ffff80000011d4f4:	55                   	push   %rbp
ffff80000011d4f5:	48 89 e5             	mov    %rsp,%rbp
ffff80000011d4f8:	48 83 ec 20          	sub    $0x20,%rsp
ffff80000011d4fc:	48 89 7d e8          	mov    %rdi,-0x18(%rbp)
ffff80000011d500:	48 bf 40 2a 12 00 00 	movabs $0xffff800000122a40,%rdi
ffff80000011d507:	80 ff ff 
ffff80000011d50a:	48 b8 54 fc 11 00 00 	movabs $0xffff80000011fc54,%rax
ffff80000011d511:	80 ff ff 
ffff80000011d514:	ff d0                	callq  *%rax
ffff80000011d516:	48 8b 45 e8          	mov    -0x18(%rbp),%rax
ffff80000011d51a:	48 89 c6             	mov    %rax,%rsi
ffff80000011d51d:	48 bf 60 2a 12 00 00 	movabs $0xffff800000122a60,%rdi
ffff80000011d524:	80 ff ff 
ffff80000011d527:	48 b8 29 dc 11 00 00 	movabs $0xffff80000011dc29,%rax
ffff80000011d52e:	80 ff ff 
ffff80000011d531:	ff d0                	callq  *%rax
ffff80000011d533:	88 45 ff             	mov    %al,-0x1(%rbp)
ffff80000011d536:	48 bf 40 2a 12 00 00 	movabs $0xffff800000122a40,%rdi
ffff80000011d53d:	80 ff ff 
ffff80000011d540:	48 b8 31 fd 11 00 00 	movabs $0xffff80000011fd31,%rax
ffff80000011d547:	80 ff ff 
ffff80000011d54a:	ff d0                	callq  *%rax
ffff80000011d54c:	0f b6 45 ff          	movzbl -0x1(%rbp),%eax
ffff80000011d550:	c9                   	leaveq 
ffff80000011d551:	c3                   	retq   

ffff80000011d552 <pic_init>:
ffff80000011d552:	55                   	push   %rbp
ffff80000011d553:	48 89 e5             	mov    %rsp,%rbp
ffff80000011d556:	be 11 00 00 00       	mov    $0x11,%esi
ffff80000011d55b:	bf 20 00 00 00       	mov    $0x20,%edi
ffff80000011d560:	b8 00 00 00 00       	mov    $0x0,%eax
ffff80000011d565:	48 ba 35 00 12 00 00 	movabs $0xffff800000120035,%rdx
ffff80000011d56c:	80 ff ff 
ffff80000011d56f:	ff d2                	callq  *%rdx
ffff80000011d571:	be 20 00 00 00       	mov    $0x20,%esi
ffff80000011d576:	bf 21 00 00 00       	mov    $0x21,%edi
ffff80000011d57b:	b8 00 00 00 00       	mov    $0x0,%eax
ffff80000011d580:	48 ba 35 00 12 00 00 	movabs $0xffff800000120035,%rdx
ffff80000011d587:	80 ff ff 
ffff80000011d58a:	ff d2                	callq  *%rdx
ffff80000011d58c:	be 04 00 00 00       	mov    $0x4,%esi
ffff80000011d591:	bf 21 00 00 00       	mov    $0x21,%edi
ffff80000011d596:	b8 00 00 00 00       	mov    $0x0,%eax
ffff80000011d59b:	48 ba 35 00 12 00 00 	movabs $0xffff800000120035,%rdx
ffff80000011d5a2:	80 ff ff 
ffff80000011d5a5:	ff d2                	callq  *%rdx
ffff80000011d5a7:	be 01 00 00 00       	mov    $0x1,%esi
ffff80000011d5ac:	bf 21 00 00 00       	mov    $0x21,%edi
ffff80000011d5b1:	b8 00 00 00 00       	mov    $0x0,%eax
ffff80000011d5b6:	48 ba 35 00 12 00 00 	movabs $0xffff800000120035,%rdx
ffff80000011d5bd:	80 ff ff 
ffff80000011d5c0:	ff d2                	callq  *%rdx
ffff80000011d5c2:	be 11 00 00 00       	mov    $0x11,%esi
ffff80000011d5c7:	bf a0 00 00 00       	mov    $0xa0,%edi
ffff80000011d5cc:	b8 00 00 00 00       	mov    $0x0,%eax
ffff80000011d5d1:	48 ba 35 00 12 00 00 	movabs $0xffff800000120035,%rdx
ffff80000011d5d8:	80 ff ff 
ffff80000011d5db:	ff d2                	callq  *%rdx
ffff80000011d5dd:	be 28 00 00 00       	mov    $0x28,%esi
ffff80000011d5e2:	bf a1 00 00 00       	mov    $0xa1,%edi
ffff80000011d5e7:	b8 00 00 00 00       	mov    $0x0,%eax
ffff80000011d5ec:	48 ba 35 00 12 00 00 	movabs $0xffff800000120035,%rdx
ffff80000011d5f3:	80 ff ff 
ffff80000011d5f6:	ff d2                	callq  *%rdx
ffff80000011d5f8:	be 02 00 00 00       	mov    $0x2,%esi
ffff80000011d5fd:	bf a1 00 00 00       	mov    $0xa1,%edi
ffff80000011d602:	b8 00 00 00 00       	mov    $0x0,%eax
ffff80000011d607:	48 ba 35 00 12 00 00 	movabs $0xffff800000120035,%rdx
ffff80000011d60e:	80 ff ff 
ffff80000011d611:	ff d2                	callq  *%rdx
ffff80000011d613:	be 01 00 00 00       	mov    $0x1,%esi
ffff80000011d618:	bf a1 00 00 00       	mov    $0xa1,%edi
ffff80000011d61d:	b8 00 00 00 00       	mov    $0x0,%eax
ffff80000011d622:	48 ba 35 00 12 00 00 	movabs $0xffff800000120035,%rdx
ffff80000011d629:	80 ff ff 
ffff80000011d62c:	ff d2                	callq  *%rdx
ffff80000011d62e:	bf ff ff 00 00       	mov    $0xffff,%edi
ffff80000011d633:	48 b8 5d d6 11 00 00 	movabs $0xffff80000011d65d,%rax
ffff80000011d63a:	80 ff ff 
ffff80000011d63d:	ff d0                	callq  *%rax
ffff80000011d63f:	48 bf aa 14 12 00 00 	movabs $0xffff8000001214aa,%rdi
ffff80000011d646:	80 ff ff 
ffff80000011d649:	b8 00 00 00 00       	mov    $0x0,%eax
ffff80000011d64e:	48 ba 32 f8 11 00 00 	movabs $0xffff80000011f832,%rdx
ffff80000011d655:	80 ff ff 
ffff80000011d658:	ff d2                	callq  *%rdx
ffff80000011d65a:	90                   	nop
ffff80000011d65b:	5d                   	pop    %rbp
ffff80000011d65c:	c3                   	retq   

ffff80000011d65d <mask_pic>:
ffff80000011d65d:	55                   	push   %rbp
ffff80000011d65e:	48 89 e5             	mov    %rsp,%rbp
ffff80000011d661:	48 83 ec 10          	sub    $0x10,%rsp
ffff80000011d665:	89 f8                	mov    %edi,%eax
ffff80000011d667:	66 89 45 fc          	mov    %ax,-0x4(%rbp)
ffff80000011d66b:	0f b7 45 fc          	movzwl -0x4(%rbp),%eax
ffff80000011d66f:	0f b6 c0             	movzbl %al,%eax
ffff80000011d672:	89 c6                	mov    %eax,%esi
ffff80000011d674:	bf 21 00 00 00       	mov    $0x21,%edi
ffff80000011d679:	b8 00 00 00 00       	mov    $0x0,%eax
ffff80000011d67e:	48 ba 35 00 12 00 00 	movabs $0xffff800000120035,%rdx
ffff80000011d685:	80 ff ff 
ffff80000011d688:	ff d2                	callq  *%rdx
ffff80000011d68a:	0f b7 45 fc          	movzwl -0x4(%rbp),%eax
ffff80000011d68e:	66 c1 e8 08          	shr    $0x8,%ax
ffff80000011d692:	0f b6 c0             	movzbl %al,%eax
ffff80000011d695:	89 c6                	mov    %eax,%esi
ffff80000011d697:	bf a1 00 00 00       	mov    $0xa1,%edi
ffff80000011d69c:	b8 00 00 00 00       	mov    $0x0,%eax
ffff80000011d6a1:	48 ba 35 00 12 00 00 	movabs $0xffff800000120035,%rdx
ffff80000011d6a8:	80 ff ff 
ffff80000011d6ab:	ff d2                	callq  *%rdx
ffff80000011d6ad:	90                   	nop
ffff80000011d6ae:	c9                   	leaveq 
ffff80000011d6af:	c3                   	retq   

ffff80000011d6b0 <pit_handler>:
ffff80000011d6b0:	55                   	push   %rbp
ffff80000011d6b1:	48 89 e5             	mov    %rsp,%rbp
ffff80000011d6b4:	b8 00 00 00 00       	mov    $0x0,%eax
ffff80000011d6b9:	48 ba 18 c7 11 00 00 	movabs $0xffff80000011c718,%rdx
ffff80000011d6c0:	80 ff ff 
ffff80000011d6c3:	ff d2                	callq  *%rdx
ffff80000011d6c5:	85 c0                	test   %eax,%eax
ffff80000011d6c7:	75 1e                	jne    ffff80000011d6e7 <pit_handler+0x37>
ffff80000011d6c9:	48 b8 b0 2b 12 00 00 	movabs $0xffff800000122bb0,%rax
ffff80000011d6d0:	80 ff ff 
ffff80000011d6d3:	48 8b 00             	mov    (%rax),%rax
ffff80000011d6d6:	48 8d 50 01          	lea    0x1(%rax),%rdx
ffff80000011d6da:	48 b8 b0 2b 12 00 00 	movabs $0xffff800000122bb0,%rax
ffff80000011d6e1:	80 ff ff 
ffff80000011d6e4:	48 89 10             	mov    %rdx,(%rax)
ffff80000011d6e7:	90                   	nop
ffff80000011d6e8:	5d                   	pop    %rbp
ffff80000011d6e9:	c3                   	retq   

ffff80000011d6ea <pit_init>:
ffff80000011d6ea:	55                   	push   %rbp
ffff80000011d6eb:	48 89 e5             	mov    %rsp,%rbp
ffff80000011d6ee:	48 83 ec 10          	sub    $0x10,%rsp
ffff80000011d6f2:	89 fa                	mov    %edi,%edx
ffff80000011d6f4:	89 f0                	mov    %esi,%eax
ffff80000011d6f6:	66 89 55 fc          	mov    %dx,-0x4(%rbp)
ffff80000011d6fa:	88 45 f8             	mov    %al,-0x8(%rbp)
ffff80000011d6fd:	be 30 00 00 00       	mov    $0x30,%esi
ffff80000011d702:	bf 43 00 00 00       	mov    $0x43,%edi
ffff80000011d707:	b8 00 00 00 00       	mov    $0x0,%eax
ffff80000011d70c:	48 ba 35 00 12 00 00 	movabs $0xffff800000120035,%rdx
ffff80000011d713:	80 ff ff 
ffff80000011d716:	ff d2                	callq  *%rdx
ffff80000011d718:	80 7d f8 01          	cmpb   $0x1,-0x8(%rbp)
ffff80000011d71c:	75 1b                	jne    ffff80000011d739 <pit_init+0x4f>
ffff80000011d71e:	be 34 00 00 00       	mov    $0x34,%esi
ffff80000011d723:	bf 43 00 00 00       	mov    $0x43,%edi
ffff80000011d728:	b8 00 00 00 00       	mov    $0x0,%eax
ffff80000011d72d:	48 ba 35 00 12 00 00 	movabs $0xffff800000120035,%rdx
ffff80000011d734:	80 ff ff 
ffff80000011d737:	ff d2                	callq  *%rdx
ffff80000011d739:	0f b7 45 fc          	movzwl -0x4(%rbp),%eax
ffff80000011d73d:	89 c6                	mov    %eax,%esi
ffff80000011d73f:	bf 40 00 00 00       	mov    $0x40,%edi
ffff80000011d744:	b8 00 00 00 00       	mov    $0x0,%eax
ffff80000011d749:	48 ba 35 00 12 00 00 	movabs $0xffff800000120035,%rdx
ffff80000011d750:	80 ff ff 
ffff80000011d753:	ff d2                	callq  *%rdx
ffff80000011d755:	0f b7 45 fc          	movzwl -0x4(%rbp),%eax
ffff80000011d759:	66 c1 e8 08          	shr    $0x8,%ax
ffff80000011d75d:	0f b7 c0             	movzwl %ax,%eax
ffff80000011d760:	89 c6                	mov    %eax,%esi
ffff80000011d762:	bf 40 00 00 00       	mov    $0x40,%edi
ffff80000011d767:	b8 00 00 00 00       	mov    $0x0,%eax
ffff80000011d76c:	48 ba 35 00 12 00 00 	movabs $0xffff800000120035,%rdx
ffff80000011d773:	80 ff ff 
ffff80000011d776:	ff d2                	callq  *%rdx
ffff80000011d778:	90                   	nop
ffff80000011d779:	c9                   	leaveq 
ffff80000011d77a:	c3                   	retq   

ffff80000011d77b <list_init>:
ffff80000011d77b:	55                   	push   %rbp
ffff80000011d77c:	48 89 e5             	mov    %rsp,%rbp
ffff80000011d77f:	48 89 7d f8          	mov    %rdi,-0x8(%rbp)
ffff80000011d783:	48 8b 45 f8          	mov    -0x8(%rbp),%rax
ffff80000011d787:	c7 40 10 00 00 00 00 	movl   $0x0,0x10(%rax)
ffff80000011d78e:	48 8b 45 f8          	mov    -0x8(%rbp),%rax
ffff80000011d792:	48 c7 00 00 00 00 00 	movq   $0x0,(%rax)
ffff80000011d799:	48 8b 45 f8          	mov    -0x8(%rbp),%rax
ffff80000011d79d:	48 c7 40 08 00 00 00 	movq   $0x0,0x8(%rax)
ffff80000011d7a4:	00 
ffff80000011d7a5:	90                   	nop
ffff80000011d7a6:	5d                   	pop    %rbp
ffff80000011d7a7:	c3                   	retq   

ffff80000011d7a8 <list_count>:
ffff80000011d7a8:	55                   	push   %rbp
ffff80000011d7a9:	48 89 e5             	mov    %rsp,%rbp
ffff80000011d7ac:	48 89 7d f8          	mov    %rdi,-0x8(%rbp)
ffff80000011d7b0:	48 8b 45 f8          	mov    -0x8(%rbp),%rax
ffff80000011d7b4:	8b 40 10             	mov    0x10(%rax),%eax
ffff80000011d7b7:	5d                   	pop    %rbp
ffff80000011d7b8:	c3                   	retq   

ffff80000011d7b9 <list_add_to_tail>:
ffff80000011d7b9:	55                   	push   %rbp
ffff80000011d7ba:	48 89 e5             	mov    %rsp,%rbp
ffff80000011d7bd:	48 89 7d f8          	mov    %rdi,-0x8(%rbp)
ffff80000011d7c1:	48 89 75 f0          	mov    %rsi,-0x10(%rbp)
ffff80000011d7c5:	48 8b 45 f0          	mov    -0x10(%rbp),%rax
ffff80000011d7c9:	48 c7 00 00 00 00 00 	movq   $0x0,(%rax)
ffff80000011d7d0:	48 8b 45 f8          	mov    -0x8(%rbp),%rax
ffff80000011d7d4:	48 8b 00             	mov    (%rax),%rax
ffff80000011d7d7:	48 85 c0             	test   %rax,%rax
ffff80000011d7da:	75 24                	jne    ffff80000011d800 <list_add_to_tail+0x47>
ffff80000011d7dc:	48 8b 45 f8          	mov    -0x8(%rbp),%rax
ffff80000011d7e0:	48 8b 55 f0          	mov    -0x10(%rbp),%rdx
ffff80000011d7e4:	48 89 10             	mov    %rdx,(%rax)
ffff80000011d7e7:	48 8b 45 f8          	mov    -0x8(%rbp),%rax
ffff80000011d7eb:	48 8b 55 f0          	mov    -0x10(%rbp),%rdx
ffff80000011d7ef:	48 89 50 08          	mov    %rdx,0x8(%rax)
ffff80000011d7f3:	48 8b 45 f8          	mov    -0x8(%rbp),%rax
ffff80000011d7f7:	c7 40 10 01 00 00 00 	movl   $0x1,0x10(%rax)
ffff80000011d7fe:	eb 2c                	jmp    ffff80000011d82c <list_add_to_tail+0x73>
ffff80000011d800:	48 8b 45 f8          	mov    -0x8(%rbp),%rax
ffff80000011d804:	48 8b 40 08          	mov    0x8(%rax),%rax
ffff80000011d808:	48 8b 55 f0          	mov    -0x10(%rbp),%rdx
ffff80000011d80c:	48 89 10             	mov    %rdx,(%rax)
ffff80000011d80f:	48 8b 45 f8          	mov    -0x8(%rbp),%rax
ffff80000011d813:	48 8b 55 f0          	mov    -0x10(%rbp),%rdx
ffff80000011d817:	48 89 50 08          	mov    %rdx,0x8(%rax)
ffff80000011d81b:	48 8b 45 f8          	mov    -0x8(%rbp),%rax
ffff80000011d81f:	8b 40 10             	mov    0x10(%rax),%eax
ffff80000011d822:	8d 50 01             	lea    0x1(%rax),%edx
ffff80000011d825:	48 8b 45 f8          	mov    -0x8(%rbp),%rax
ffff80000011d829:	89 50 10             	mov    %edx,0x10(%rax)
ffff80000011d82c:	5d                   	pop    %rbp
ffff80000011d82d:	c3                   	retq   

ffff80000011d82e <list_add_to_head>:
ffff80000011d82e:	55                   	push   %rbp
ffff80000011d82f:	48 89 e5             	mov    %rsp,%rbp
ffff80000011d832:	48 89 7d f8          	mov    %rdi,-0x8(%rbp)
ffff80000011d836:	48 89 75 f0          	mov    %rsi,-0x10(%rbp)
ffff80000011d83a:	48 8b 45 f8          	mov    -0x8(%rbp),%rax
ffff80000011d83e:	48 8b 10             	mov    (%rax),%rdx
ffff80000011d841:	48 8b 45 f0          	mov    -0x10(%rbp),%rax
ffff80000011d845:	48 89 10             	mov    %rdx,(%rax)
ffff80000011d848:	48 8b 45 f8          	mov    -0x8(%rbp),%rax
ffff80000011d84c:	48 8b 00             	mov    (%rax),%rax
ffff80000011d84f:	48 85 c0             	test   %rax,%rax
ffff80000011d852:	75 24                	jne    ffff80000011d878 <list_add_to_head+0x4a>
ffff80000011d854:	48 8b 45 f8          	mov    -0x8(%rbp),%rax
ffff80000011d858:	48 8b 55 f0          	mov    -0x10(%rbp),%rdx
ffff80000011d85c:	48 89 10             	mov    %rdx,(%rax)
ffff80000011d85f:	48 8b 45 f8          	mov    -0x8(%rbp),%rax
ffff80000011d863:	48 8b 55 f0          	mov    -0x10(%rbp),%rdx
ffff80000011d867:	48 89 50 08          	mov    %rdx,0x8(%rax)
ffff80000011d86b:	48 8b 45 f8          	mov    -0x8(%rbp),%rax
ffff80000011d86f:	c7 40 10 01 00 00 00 	movl   $0x1,0x10(%rax)
ffff80000011d876:	eb 1c                	jmp    ffff80000011d894 <list_add_to_head+0x66>
ffff80000011d878:	48 8b 45 f8          	mov    -0x8(%rbp),%rax
ffff80000011d87c:	48 8b 55 f0          	mov    -0x10(%rbp),%rdx
ffff80000011d880:	48 89 10             	mov    %rdx,(%rax)
ffff80000011d883:	48 8b 45 f8          	mov    -0x8(%rbp),%rax
ffff80000011d887:	8b 40 10             	mov    0x10(%rax),%eax
ffff80000011d88a:	8d 50 01             	lea    0x1(%rax),%edx
ffff80000011d88d:	48 8b 45 f8          	mov    -0x8(%rbp),%rax
ffff80000011d891:	89 50 10             	mov    %edx,0x10(%rax)
ffff80000011d894:	5d                   	pop    %rbp
ffff80000011d895:	c3                   	retq   

ffff80000011d896 <list_remove>:
ffff80000011d896:	55                   	push   %rbp
ffff80000011d897:	48 89 e5             	mov    %rsp,%rbp
ffff80000011d89a:	48 89 7d e8          	mov    %rdi,-0x18(%rbp)
ffff80000011d89e:	48 89 75 e0          	mov    %rsi,-0x20(%rbp)
ffff80000011d8a2:	48 8b 45 e8          	mov    -0x18(%rbp),%rax
ffff80000011d8a6:	48 8b 00             	mov    (%rax),%rax
ffff80000011d8a9:	48 89 45 f8          	mov    %rax,-0x8(%rbp)
ffff80000011d8ad:	e9 d1 00 00 00       	jmpq   ffff80000011d983 <list_remove+0xed>
ffff80000011d8b2:	48 8b 45 f8          	mov    -0x8(%rbp),%rax
ffff80000011d8b6:	48 8b 40 08          	mov    0x8(%rax),%rax
ffff80000011d8ba:	48 3b 45 e0          	cmp    -0x20(%rbp),%rax
ffff80000011d8be:	0f 85 ac 00 00 00    	jne    ffff80000011d970 <list_remove+0xda>
ffff80000011d8c4:	48 8b 45 e8          	mov    -0x18(%rbp),%rax
ffff80000011d8c8:	48 8b 00             	mov    (%rax),%rax
ffff80000011d8cb:	48 3b 45 f8          	cmp    -0x8(%rbp),%rax
ffff80000011d8cf:	75 27                	jne    ffff80000011d8f8 <list_remove+0x62>
ffff80000011d8d1:	48 8b 45 e8          	mov    -0x18(%rbp),%rax
ffff80000011d8d5:	48 8b 40 08          	mov    0x8(%rax),%rax
ffff80000011d8d9:	48 3b 45 f8          	cmp    -0x8(%rbp),%rax
ffff80000011d8dd:	75 19                	jne    ffff80000011d8f8 <list_remove+0x62>
ffff80000011d8df:	48 8b 45 e8          	mov    -0x18(%rbp),%rax
ffff80000011d8e3:	48 c7 00 00 00 00 00 	movq   $0x0,(%rax)
ffff80000011d8ea:	48 8b 45 e8          	mov    -0x18(%rbp),%rax
ffff80000011d8ee:	48 c7 40 08 00 00 00 	movq   $0x0,0x8(%rax)
ffff80000011d8f5:	00 
ffff80000011d8f6:	eb 56                	jmp    ffff80000011d94e <list_remove+0xb8>
ffff80000011d8f8:	48 8b 45 e8          	mov    -0x18(%rbp),%rax
ffff80000011d8fc:	48 8b 00             	mov    (%rax),%rax
ffff80000011d8ff:	48 3b 45 f8          	cmp    -0x8(%rbp),%rax
ffff80000011d903:	75 10                	jne    ffff80000011d915 <list_remove+0x7f>
ffff80000011d905:	48 8b 45 f8          	mov    -0x8(%rbp),%rax
ffff80000011d909:	48 8b 10             	mov    (%rax),%rdx
ffff80000011d90c:	48 8b 45 e8          	mov    -0x18(%rbp),%rax
ffff80000011d910:	48 89 10             	mov    %rdx,(%rax)
ffff80000011d913:	eb 39                	jmp    ffff80000011d94e <list_remove+0xb8>
ffff80000011d915:	48 8b 45 e8          	mov    -0x18(%rbp),%rax
ffff80000011d919:	48 8b 40 08          	mov    0x8(%rax),%rax
ffff80000011d91d:	48 3b 45 f8          	cmp    -0x8(%rbp),%rax
ffff80000011d921:	75 1d                	jne    ffff80000011d940 <list_remove+0xaa>
ffff80000011d923:	48 8b 45 e8          	mov    -0x18(%rbp),%rax
ffff80000011d927:	48 8b 55 f0          	mov    -0x10(%rbp),%rdx
ffff80000011d92b:	48 89 50 08          	mov    %rdx,0x8(%rax)
ffff80000011d92f:	48 8b 45 e8          	mov    -0x18(%rbp),%rax
ffff80000011d933:	48 8b 40 08          	mov    0x8(%rax),%rax
ffff80000011d937:	48 c7 00 00 00 00 00 	movq   $0x0,(%rax)
ffff80000011d93e:	eb 0e                	jmp    ffff80000011d94e <list_remove+0xb8>
ffff80000011d940:	48 8b 45 f8          	mov    -0x8(%rbp),%rax
ffff80000011d944:	48 8b 10             	mov    (%rax),%rdx
ffff80000011d947:	48 8b 45 f0          	mov    -0x10(%rbp),%rax
ffff80000011d94b:	48 89 10             	mov    %rdx,(%rax)
ffff80000011d94e:	48 8b 45 f8          	mov    -0x8(%rbp),%rax
ffff80000011d952:	48 c7 00 00 00 00 00 	movq   $0x0,(%rax)
ffff80000011d959:	48 8b 45 e8          	mov    -0x18(%rbp),%rax
ffff80000011d95d:	8b 40 10             	mov    0x10(%rax),%eax
ffff80000011d960:	8d 50 ff             	lea    -0x1(%rax),%edx
ffff80000011d963:	48 8b 45 e8          	mov    -0x18(%rbp),%rax
ffff80000011d967:	89 50 10             	mov    %edx,0x10(%rax)
ffff80000011d96a:	48 8b 45 f8          	mov    -0x8(%rbp),%rax
ffff80000011d96e:	eb 23                	jmp    ffff80000011d993 <list_remove+0xfd>
ffff80000011d970:	48 8b 45 f8          	mov    -0x8(%rbp),%rax
ffff80000011d974:	48 89 45 f0          	mov    %rax,-0x10(%rbp)
ffff80000011d978:	48 8b 45 f8          	mov    -0x8(%rbp),%rax
ffff80000011d97c:	48 8b 00             	mov    (%rax),%rax
ffff80000011d97f:	48 89 45 f8          	mov    %rax,-0x8(%rbp)
ffff80000011d983:	48 83 7d f8 00       	cmpq   $0x0,-0x8(%rbp)
ffff80000011d988:	0f 85 24 ff ff ff    	jne    ffff80000011d8b2 <list_remove+0x1c>
ffff80000011d98e:	b8 00 00 00 00       	mov    $0x0,%eax
ffff80000011d993:	5d                   	pop    %rbp
ffff80000011d994:	c3                   	retq   

ffff80000011d995 <list_remove_head>:
ffff80000011d995:	55                   	push   %rbp
ffff80000011d996:	48 89 e5             	mov    %rsp,%rbp
ffff80000011d999:	48 83 ec 08          	sub    $0x8,%rsp
ffff80000011d99d:	48 89 7d f8          	mov    %rdi,-0x8(%rbp)
ffff80000011d9a1:	48 8b 45 f8          	mov    -0x8(%rbp),%rax
ffff80000011d9a5:	8b 40 10             	mov    0x10(%rax),%eax
ffff80000011d9a8:	85 c0                	test   %eax,%eax
ffff80000011d9aa:	75 07                	jne    ffff80000011d9b3 <list_remove_head+0x1e>
ffff80000011d9ac:	b8 00 00 00 00       	mov    $0x0,%eax
ffff80000011d9b1:	eb 21                	jmp    ffff80000011d9d4 <list_remove_head+0x3f>
ffff80000011d9b3:	48 8b 45 f8          	mov    -0x8(%rbp),%rax
ffff80000011d9b7:	48 8b 00             	mov    (%rax),%rax
ffff80000011d9ba:	48 8b 50 08          	mov    0x8(%rax),%rdx
ffff80000011d9be:	48 8b 45 f8          	mov    -0x8(%rbp),%rax
ffff80000011d9c2:	48 89 d6             	mov    %rdx,%rsi
ffff80000011d9c5:	48 89 c7             	mov    %rax,%rdi
ffff80000011d9c8:	48 b8 96 d8 11 00 00 	movabs $0xffff80000011d896,%rax
ffff80000011d9cf:	80 ff ff 
ffff80000011d9d2:	ff d0                	callq  *%rax
ffff80000011d9d4:	c9                   	leaveq 
ffff80000011d9d5:	c3                   	retq   

ffff80000011d9d6 <list_remove_tail>:
ffff80000011d9d6:	55                   	push   %rbp
ffff80000011d9d7:	48 89 e5             	mov    %rsp,%rbp
ffff80000011d9da:	48 83 ec 08          	sub    $0x8,%rsp
ffff80000011d9de:	48 89 7d f8          	mov    %rdi,-0x8(%rbp)
ffff80000011d9e2:	48 8b 45 f8          	mov    -0x8(%rbp),%rax
ffff80000011d9e6:	8b 40 10             	mov    0x10(%rax),%eax
ffff80000011d9e9:	85 c0                	test   %eax,%eax
ffff80000011d9eb:	75 07                	jne    ffff80000011d9f4 <list_remove_tail+0x1e>
ffff80000011d9ed:	b8 00 00 00 00       	mov    $0x0,%eax
ffff80000011d9f2:	eb 22                	jmp    ffff80000011da16 <list_remove_tail+0x40>
ffff80000011d9f4:	48 8b 45 f8          	mov    -0x8(%rbp),%rax
ffff80000011d9f8:	48 8b 40 08          	mov    0x8(%rax),%rax
ffff80000011d9fc:	48 8b 50 08          	mov    0x8(%rax),%rdx
ffff80000011da00:	48 8b 45 f8          	mov    -0x8(%rbp),%rax
ffff80000011da04:	48 89 d6             	mov    %rdx,%rsi
ffff80000011da07:	48 89 c7             	mov    %rax,%rdi
ffff80000011da0a:	48 b8 96 d8 11 00 00 	movabs $0xffff80000011d896,%rax
ffff80000011da11:	80 ff ff 
ffff80000011da14:	ff d0                	callq  *%rax
ffff80000011da16:	c9                   	leaveq 
ffff80000011da17:	c3                   	retq   

ffff80000011da18 <list_find>:
ffff80000011da18:	55                   	push   %rbp
ffff80000011da19:	48 89 e5             	mov    %rsp,%rbp
ffff80000011da1c:	48 89 7d e8          	mov    %rdi,-0x18(%rbp)
ffff80000011da20:	48 89 75 e0          	mov    %rsi,-0x20(%rbp)
ffff80000011da24:	48 8b 45 e8          	mov    -0x18(%rbp),%rax
ffff80000011da28:	48 8b 00             	mov    (%rax),%rax
ffff80000011da2b:	48 89 45 f8          	mov    %rax,-0x8(%rbp)
ffff80000011da2f:	eb 1f                	jmp    ffff80000011da50 <list_find+0x38>
ffff80000011da31:	48 8b 45 f8          	mov    -0x8(%rbp),%rax
ffff80000011da35:	48 8b 40 08          	mov    0x8(%rax),%rax
ffff80000011da39:	48 3b 45 e0          	cmp    -0x20(%rbp),%rax
ffff80000011da3d:	75 06                	jne    ffff80000011da45 <list_find+0x2d>
ffff80000011da3f:	48 8b 45 f8          	mov    -0x8(%rbp),%rax
ffff80000011da43:	eb 17                	jmp    ffff80000011da5c <list_find+0x44>
ffff80000011da45:	48 8b 45 f8          	mov    -0x8(%rbp),%rax
ffff80000011da49:	48 8b 00             	mov    (%rax),%rax
ffff80000011da4c:	48 89 45 f8          	mov    %rax,-0x8(%rbp)
ffff80000011da50:	48 83 7d f8 00       	cmpq   $0x0,-0x8(%rbp)
ffff80000011da55:	75 da                	jne    ffff80000011da31 <list_find+0x19>
ffff80000011da57:	b8 00 00 00 00       	mov    $0x0,%eax
ffff80000011da5c:	5d                   	pop    %rbp
ffff80000011da5d:	c3                   	retq   

ffff80000011da5e <list_head>:
ffff80000011da5e:	55                   	push   %rbp
ffff80000011da5f:	48 89 e5             	mov    %rsp,%rbp
ffff80000011da62:	48 89 7d f8          	mov    %rdi,-0x8(%rbp)
ffff80000011da66:	48 8b 45 f8          	mov    -0x8(%rbp),%rax
ffff80000011da6a:	48 8b 00             	mov    (%rax),%rax
ffff80000011da6d:	5d                   	pop    %rbp
ffff80000011da6e:	c3                   	retq   

ffff80000011da6f <list_tail>:
ffff80000011da6f:	55                   	push   %rbp
ffff80000011da70:	48 89 e5             	mov    %rsp,%rbp
ffff80000011da73:	48 89 7d f8          	mov    %rdi,-0x8(%rbp)
ffff80000011da77:	48 8b 45 f8          	mov    -0x8(%rbp),%rax
ffff80000011da7b:	48 8b 40 08          	mov    0x8(%rax),%rax
ffff80000011da7f:	5d                   	pop    %rbp
ffff80000011da80:	c3                   	retq   

ffff80000011da81 <list_next>:
ffff80000011da81:	55                   	push   %rbp
ffff80000011da82:	48 89 e5             	mov    %rsp,%rbp
ffff80000011da85:	48 89 7d f8          	mov    %rdi,-0x8(%rbp)
ffff80000011da89:	48 8b 45 f8          	mov    -0x8(%rbp),%rax
ffff80000011da8d:	48 8b 00             	mov    (%rax),%rax
ffff80000011da90:	5d                   	pop    %rbp
ffff80000011da91:	c3                   	retq   

ffff80000011da92 <list_prev>:
ffff80000011da92:	55                   	push   %rbp
ffff80000011da93:	48 89 e5             	mov    %rsp,%rbp
ffff80000011da96:	48 89 7d e8          	mov    %rdi,-0x18(%rbp)
ffff80000011da9a:	48 89 75 e0          	mov    %rsi,-0x20(%rbp)
ffff80000011da9e:	48 8b 45 e8          	mov    -0x18(%rbp),%rax
ffff80000011daa2:	48 8b 00             	mov    (%rax),%rax
ffff80000011daa5:	48 89 45 f8          	mov    %rax,-0x8(%rbp)
ffff80000011daa9:	eb 1e                	jmp    ffff80000011dac9 <list_prev+0x37>
ffff80000011daab:	48 8b 45 f8          	mov    -0x8(%rbp),%rax
ffff80000011daaf:	48 8b 00             	mov    (%rax),%rax
ffff80000011dab2:	48 3b 45 e0          	cmp    -0x20(%rbp),%rax
ffff80000011dab6:	75 06                	jne    ffff80000011dabe <list_prev+0x2c>
ffff80000011dab8:	48 8b 45 f8          	mov    -0x8(%rbp),%rax
ffff80000011dabc:	eb 17                	jmp    ffff80000011dad5 <list_prev+0x43>
ffff80000011dabe:	48 8b 45 f8          	mov    -0x8(%rbp),%rax
ffff80000011dac2:	48 8b 00             	mov    (%rax),%rax
ffff80000011dac5:	48 89 45 f8          	mov    %rax,-0x8(%rbp)
ffff80000011dac9:	48 83 7d f8 00       	cmpq   $0x0,-0x8(%rbp)
ffff80000011dace:	75 db                	jne    ffff80000011daab <list_prev+0x19>
ffff80000011dad0:	b8 00 00 00 00       	mov    $0x0,%eax
ffff80000011dad5:	5d                   	pop    %rbp
ffff80000011dad6:	c3                   	retq   

ffff80000011dad7 <queue_init>:
ffff80000011dad7:	55                   	push   %rbp
ffff80000011dad8:	48 89 e5             	mov    %rsp,%rbp
ffff80000011dadb:	48 89 7d f8          	mov    %rdi,-0x8(%rbp)
ffff80000011dadf:	48 89 75 f0          	mov    %rsi,-0x10(%rbp)
ffff80000011dae3:	89 55 ec             	mov    %edx,-0x14(%rbp)
ffff80000011dae6:	89 4d e8             	mov    %ecx,-0x18(%rbp)
ffff80000011dae9:	48 8b 45 f8          	mov    -0x8(%rbp),%rax
ffff80000011daed:	8b 55 ec             	mov    -0x14(%rbp),%edx
ffff80000011daf0:	89 50 04             	mov    %edx,0x4(%rax)
ffff80000011daf3:	48 8b 45 f8          	mov    -0x8(%rbp),%rax
ffff80000011daf7:	8b 55 e8             	mov    -0x18(%rbp),%edx
ffff80000011dafa:	89 10                	mov    %edx,(%rax)
ffff80000011dafc:	48 8b 45 f8          	mov    -0x8(%rbp),%rax
ffff80000011db00:	48 8b 55 f0          	mov    -0x10(%rbp),%rdx
ffff80000011db04:	48 89 50 08          	mov    %rdx,0x8(%rax)
ffff80000011db08:	48 8b 45 f8          	mov    -0x8(%rbp),%rax
ffff80000011db0c:	c7 40 10 00 00 00 00 	movl   $0x0,0x10(%rax)
ffff80000011db13:	48 8b 45 f8          	mov    -0x8(%rbp),%rax
ffff80000011db17:	c7 40 14 00 00 00 00 	movl   $0x0,0x14(%rax)
ffff80000011db1e:	48 8b 45 f8          	mov    -0x8(%rbp),%rax
ffff80000011db22:	c6 40 18 00          	movb   $0x0,0x18(%rax)
ffff80000011db26:	90                   	nop
ffff80000011db27:	5d                   	pop    %rbp
ffff80000011db28:	c3                   	retq   

ffff80000011db29 <queue_is_full>:
ffff80000011db29:	55                   	push   %rbp
ffff80000011db2a:	48 89 e5             	mov    %rsp,%rbp
ffff80000011db2d:	48 89 7d f8          	mov    %rdi,-0x8(%rbp)
ffff80000011db31:	48 8b 45 f8          	mov    -0x8(%rbp),%rax
ffff80000011db35:	8b 50 14             	mov    0x14(%rax),%edx
ffff80000011db38:	48 8b 45 f8          	mov    -0x8(%rbp),%rax
ffff80000011db3c:	8b 40 10             	mov    0x10(%rax),%eax
ffff80000011db3f:	39 c2                	cmp    %eax,%edx
ffff80000011db41:	75 13                	jne    ffff80000011db56 <queue_is_full+0x2d>
ffff80000011db43:	48 8b 45 f8          	mov    -0x8(%rbp),%rax
ffff80000011db47:	0f b6 40 18          	movzbl 0x18(%rax),%eax
ffff80000011db4b:	3c 01                	cmp    $0x1,%al
ffff80000011db4d:	75 07                	jne    ffff80000011db56 <queue_is_full+0x2d>
ffff80000011db4f:	b8 01 00 00 00       	mov    $0x1,%eax
ffff80000011db54:	eb 05                	jmp    ffff80000011db5b <queue_is_full+0x32>
ffff80000011db56:	b8 00 00 00 00       	mov    $0x0,%eax
ffff80000011db5b:	5d                   	pop    %rbp
ffff80000011db5c:	c3                   	retq   

ffff80000011db5d <queue_is_empty>:
ffff80000011db5d:	55                   	push   %rbp
ffff80000011db5e:	48 89 e5             	mov    %rsp,%rbp
ffff80000011db61:	48 89 7d f8          	mov    %rdi,-0x8(%rbp)
ffff80000011db65:	48 8b 45 f8          	mov    -0x8(%rbp),%rax
ffff80000011db69:	8b 50 14             	mov    0x14(%rax),%edx
ffff80000011db6c:	48 8b 45 f8          	mov    -0x8(%rbp),%rax
ffff80000011db70:	8b 40 10             	mov    0x10(%rax),%eax
ffff80000011db73:	39 c2                	cmp    %eax,%edx
ffff80000011db75:	75 13                	jne    ffff80000011db8a <queue_is_empty+0x2d>
ffff80000011db77:	48 8b 45 f8          	mov    -0x8(%rbp),%rax
ffff80000011db7b:	0f b6 40 18          	movzbl 0x18(%rax),%eax
ffff80000011db7f:	84 c0                	test   %al,%al
ffff80000011db81:	75 07                	jne    ffff80000011db8a <queue_is_empty+0x2d>
ffff80000011db83:	b8 01 00 00 00       	mov    $0x1,%eax
ffff80000011db88:	eb 05                	jmp    ffff80000011db8f <queue_is_empty+0x32>
ffff80000011db8a:	b8 00 00 00 00       	mov    $0x0,%eax
ffff80000011db8f:	5d                   	pop    %rbp
ffff80000011db90:	c3                   	retq   

ffff80000011db91 <inqueue>:
ffff80000011db91:	55                   	push   %rbp
ffff80000011db92:	48 89 e5             	mov    %rsp,%rbp
ffff80000011db95:	48 83 ec 10          	sub    $0x10,%rsp
ffff80000011db99:	48 89 7d f8          	mov    %rdi,-0x8(%rbp)
ffff80000011db9d:	48 89 75 f0          	mov    %rsi,-0x10(%rbp)
ffff80000011dba1:	48 8b 45 f8          	mov    -0x8(%rbp),%rax
ffff80000011dba5:	48 89 c7             	mov    %rax,%rdi
ffff80000011dba8:	48 b8 29 db 11 00 00 	movabs $0xffff80000011db29,%rax
ffff80000011dbaf:	80 ff ff 
ffff80000011dbb2:	ff d0                	callq  *%rax
ffff80000011dbb4:	3c 01                	cmp    $0x1,%al
ffff80000011dbb6:	75 07                	jne    ffff80000011dbbf <inqueue+0x2e>
ffff80000011dbb8:	b8 00 00 00 00       	mov    $0x0,%eax
ffff80000011dbbd:	eb 68                	jmp    ffff80000011dc27 <inqueue+0x96>
ffff80000011dbbf:	48 8b 45 f8          	mov    -0x8(%rbp),%rax
ffff80000011dbc3:	8b 10                	mov    (%rax),%edx
ffff80000011dbc5:	48 8b 45 f8          	mov    -0x8(%rbp),%rax
ffff80000011dbc9:	48 8b 48 08          	mov    0x8(%rax),%rcx
ffff80000011dbcd:	48 8b 45 f8          	mov    -0x8(%rbp),%rax
ffff80000011dbd1:	8b 30                	mov    (%rax),%esi
ffff80000011dbd3:	48 8b 45 f8          	mov    -0x8(%rbp),%rax
ffff80000011dbd7:	8b 40 10             	mov    0x10(%rax),%eax
ffff80000011dbda:	0f af c6             	imul   %esi,%eax
ffff80000011dbdd:	48 98                	cltq   
ffff80000011dbdf:	48 01 c1             	add    %rax,%rcx
ffff80000011dbe2:	48 8b 45 f0          	mov    -0x10(%rbp),%rax
ffff80000011dbe6:	48 89 c6             	mov    %rax,%rsi
ffff80000011dbe9:	48 89 cf             	mov    %rcx,%rdi
ffff80000011dbec:	b8 00 00 00 00       	mov    $0x0,%eax
ffff80000011dbf1:	48 b9 7e 00 12 00 00 	movabs $0xffff80000012007e,%rcx
ffff80000011dbf8:	80 ff ff 
ffff80000011dbfb:	ff d1                	callq  *%rcx
ffff80000011dbfd:	48 8b 45 f8          	mov    -0x8(%rbp),%rax
ffff80000011dc01:	8b 40 10             	mov    0x10(%rax),%eax
ffff80000011dc04:	8d 50 01             	lea    0x1(%rax),%edx
ffff80000011dc07:	48 8b 45 f8          	mov    -0x8(%rbp),%rax
ffff80000011dc0b:	8b 48 04             	mov    0x4(%rax),%ecx
ffff80000011dc0e:	89 d0                	mov    %edx,%eax
ffff80000011dc10:	99                   	cltd   
ffff80000011dc11:	f7 f9                	idiv   %ecx
ffff80000011dc13:	48 8b 45 f8          	mov    -0x8(%rbp),%rax
ffff80000011dc17:	89 50 10             	mov    %edx,0x10(%rax)
ffff80000011dc1a:	48 8b 45 f8          	mov    -0x8(%rbp),%rax
ffff80000011dc1e:	c6 40 18 01          	movb   $0x1,0x18(%rax)
ffff80000011dc22:	b8 01 00 00 00       	mov    $0x1,%eax
ffff80000011dc27:	c9                   	leaveq 
ffff80000011dc28:	c3                   	retq   

ffff80000011dc29 <dequeue>:
ffff80000011dc29:	55                   	push   %rbp
ffff80000011dc2a:	48 89 e5             	mov    %rsp,%rbp
ffff80000011dc2d:	48 83 ec 10          	sub    $0x10,%rsp
ffff80000011dc31:	48 89 7d f8          	mov    %rdi,-0x8(%rbp)
ffff80000011dc35:	48 89 75 f0          	mov    %rsi,-0x10(%rbp)
ffff80000011dc39:	48 8b 45 f8          	mov    -0x8(%rbp),%rax
ffff80000011dc3d:	48 89 c7             	mov    %rax,%rdi
ffff80000011dc40:	48 b8 5d db 11 00 00 	movabs $0xffff80000011db5d,%rax
ffff80000011dc47:	80 ff ff 
ffff80000011dc4a:	ff d0                	callq  *%rax
ffff80000011dc4c:	3c 01                	cmp    $0x1,%al
ffff80000011dc4e:	75 07                	jne    ffff80000011dc57 <dequeue+0x2e>
ffff80000011dc50:	b8 00 00 00 00       	mov    $0x0,%eax
ffff80000011dc55:	eb 68                	jmp    ffff80000011dcbf <dequeue+0x96>
ffff80000011dc57:	48 8b 45 f8          	mov    -0x8(%rbp),%rax
ffff80000011dc5b:	8b 10                	mov    (%rax),%edx
ffff80000011dc5d:	48 8b 45 f8          	mov    -0x8(%rbp),%rax
ffff80000011dc61:	48 8b 48 08          	mov    0x8(%rax),%rcx
ffff80000011dc65:	48 8b 45 f8          	mov    -0x8(%rbp),%rax
ffff80000011dc69:	8b 30                	mov    (%rax),%esi
ffff80000011dc6b:	48 8b 45 f8          	mov    -0x8(%rbp),%rax
ffff80000011dc6f:	8b 40 14             	mov    0x14(%rax),%eax
ffff80000011dc72:	0f af c6             	imul   %esi,%eax
ffff80000011dc75:	48 98                	cltq   
ffff80000011dc77:	48 01 c1             	add    %rax,%rcx
ffff80000011dc7a:	48 8b 45 f0          	mov    -0x10(%rbp),%rax
ffff80000011dc7e:	48 89 ce             	mov    %rcx,%rsi
ffff80000011dc81:	48 89 c7             	mov    %rax,%rdi
ffff80000011dc84:	b8 00 00 00 00       	mov    $0x0,%eax
ffff80000011dc89:	48 b9 7e 00 12 00 00 	movabs $0xffff80000012007e,%rcx
ffff80000011dc90:	80 ff ff 
ffff80000011dc93:	ff d1                	callq  *%rcx
ffff80000011dc95:	48 8b 45 f8          	mov    -0x8(%rbp),%rax
ffff80000011dc99:	8b 40 14             	mov    0x14(%rax),%eax
ffff80000011dc9c:	8d 50 01             	lea    0x1(%rax),%edx
ffff80000011dc9f:	48 8b 45 f8          	mov    -0x8(%rbp),%rax
ffff80000011dca3:	8b 48 04             	mov    0x4(%rax),%ecx
ffff80000011dca6:	89 d0                	mov    %edx,%eax
ffff80000011dca8:	99                   	cltd   
ffff80000011dca9:	f7 f9                	idiv   %ecx
ffff80000011dcab:	48 8b 45 f8          	mov    -0x8(%rbp),%rax
ffff80000011dcaf:	89 50 14             	mov    %edx,0x14(%rax)
ffff80000011dcb2:	48 8b 45 f8          	mov    -0x8(%rbp),%rax
ffff80000011dcb6:	c6 40 18 00          	movb   $0x0,0x18(%rax)
ffff80000011dcba:	b8 01 00 00 00       	mov    $0x1,%eax
ffff80000011dcbf:	c9                   	leaveq 
ffff80000011dcc0:	c3                   	retq   

ffff80000011dcc1 <main_bp>:
ffff80000011dcc1:	55                   	push   %rbp
ffff80000011dcc2:	48 89 e5             	mov    %rsp,%rbp
ffff80000011dcc5:	48 b8 34 c4 11 00 00 	movabs $0xffff80000011c434,%rax
ffff80000011dccc:	80 ff ff 
ffff80000011dccf:	ff d0                	callq  *%rax
ffff80000011dcd1:	b8 00 00 00 00       	mov    $0x0,%eax
ffff80000011dcd6:	48 ba ee c7 11 00 00 	movabs $0xffff80000011c7ee,%rdx
ffff80000011dcdd:	80 ff ff 
ffff80000011dce0:	ff d2                	callq  *%rdx
ffff80000011dce2:	48 b8 f4 b1 11 00 00 	movabs $0xffff80000011b1f4,%rax
ffff80000011dce9:	80 ff ff 
ffff80000011dcec:	ff d0                	callq  *%rax
ffff80000011dcee:	48 b8 89 bb 11 00 00 	movabs $0xffff80000011bb89,%rax
ffff80000011dcf5:	80 ff ff 
ffff80000011dcf8:	ff d0                	callq  *%rax
ffff80000011dcfa:	48 b8 52 d5 11 00 00 	movabs $0xffff80000011d552,%rax
ffff80000011dd01:	80 ff ff 
ffff80000011dd04:	ff d0                	callq  *%rax
ffff80000011dd06:	be 01 00 00 00       	mov    $0x1,%esi
ffff80000011dd0b:	bf a9 04 00 00       	mov    $0x4a9,%edi
ffff80000011dd10:	48 b8 ea d6 11 00 00 	movabs $0xffff80000011d6ea,%rax
ffff80000011dd17:	80 ff ff 
ffff80000011dd1a:	ff d0                	callq  *%rax
ffff80000011dd1c:	48 b8 d8 d3 11 00 00 	movabs $0xffff80000011d3d8,%rax
ffff80000011dd23:	80 ff ff 
ffff80000011dd26:	ff d0                	callq  *%rax
ffff80000011dd28:	48 b8 d3 09 12 00 00 	movabs $0xffff8000001209d3,%rax
ffff80000011dd2f:	80 ff ff 
ffff80000011dd32:	ff d0                	callq  *%rax
ffff80000011dd34:	48 b8 95 c5 11 00 00 	movabs $0xffff80000011c595,%rax
ffff80000011dd3b:	80 ff ff 
ffff80000011dd3e:	ff d0                	callq  *%rax
ffff80000011dd40:	bf 00 00 02 00       	mov    $0x20000,%edi
ffff80000011dd45:	48 b8 27 e0 11 00 00 	movabs $0xffff80000011e027,%rax
ffff80000011dd4c:	80 ff ff 
ffff80000011dd4f:	ff d0                	callq  *%rax
ffff80000011dd51:	48 b8 be 0d 12 00 00 	movabs $0xffff800000120dbe,%rax
ffff80000011dd58:	80 ff ff 
ffff80000011dd5b:	ff d0                	callq  *%rax
ffff80000011dd5d:	48 b8 d9 12 12 00 00 	movabs $0xffff8000001212d9,%rax
ffff80000011dd64:	80 ff ff 
ffff80000011dd67:	ff d0                	callq  *%rax
ffff80000011dd69:	b8 00 00 00 00       	mov    $0x0,%eax
ffff80000011dd6e:	48 ba 97 10 12 00 00 	movabs $0xffff800000121097,%rdx
ffff80000011dd75:	80 ff ff 
ffff80000011dd78:	ff d2                	callq  *%rdx
ffff80000011dd7a:	fa                   	cli    
ffff80000011dd7b:	f4                   	hlt    
ffff80000011dd7c:	eb fd                	jmp    ffff80000011dd7b <main_bp+0xba>

ffff80000011dd7e <main_ap>:
ffff80000011dd7e:	55                   	push   %rbp
ffff80000011dd7f:	48 89 e5             	mov    %rsp,%rbp
ffff80000011dd82:	48 b8 e0 2b 12 00 00 	movabs $0xffff800000122be0,%rax
ffff80000011dd89:	80 ff ff 
ffff80000011dd8c:	48 89 c7             	mov    %rax,%rdi
ffff80000011dd8f:	48 b8 cd 12 12 00 00 	movabs $0xffff8000001212cd,%rax
ffff80000011dd96:	80 ff ff 
ffff80000011dd99:	ff d0                	callq  *%rax
ffff80000011dd9b:	48 b8 18 c7 11 00 00 	movabs $0xffff80000011c718,%rax
ffff80000011dda2:	80 ff ff 
ffff80000011dda5:	ff d0                	callq  *%rax
ffff80000011dda7:	0f b6 c0             	movzbl %al,%eax
ffff80000011ddaa:	c1 e0 04             	shl    $0x4,%eax
ffff80000011ddad:	83 c0 28             	add    $0x28,%eax
ffff80000011ddb0:	0f b7 c0             	movzwl %ax,%eax
ffff80000011ddb3:	89 c7                	mov    %eax,%edi
ffff80000011ddb5:	48 b8 d1 12 12 00 00 	movabs $0xffff8000001212d1,%rax
ffff80000011ddbc:	80 ff ff 
ffff80000011ddbf:	ff d0                	callq  *%rax
ffff80000011ddc1:	48 b8 20 2e 12 00 00 	movabs $0xffff800000122e20,%rax
ffff80000011ddc8:	80 ff ff 
ffff80000011ddcb:	48 89 c7             	mov    %rax,%rdi
ffff80000011ddce:	48 b8 d5 12 12 00 00 	movabs $0xffff8000001212d5,%rax
ffff80000011ddd5:	80 ff ff 
ffff80000011ddd8:	ff d0                	callq  *%rax
ffff80000011ddda:	b8 00 00 00 00       	mov    $0x0,%eax
ffff80000011dddf:	48 ba 15 c3 11 00 00 	movabs $0xffff80000011c315,%rdx
ffff80000011dde6:	80 ff ff 
ffff80000011dde9:	ff d2                	callq  *%rdx
ffff80000011ddeb:	b8 00 00 00 00       	mov    $0x0,%eax
ffff80000011ddf0:	48 ba 5b c3 11 00 00 	movabs $0xffff80000011c35b,%rdx
ffff80000011ddf7:	80 ff ff 
ffff80000011ddfa:	ff d2                	callq  *%rdx
ffff80000011ddfc:	48 bf 2c 2a 12 00 00 	movabs $0xffff800000122a2c,%rdi
ffff80000011de03:	80 ff ff 
ffff80000011de06:	48 b8 c9 12 12 00 00 	movabs $0xffff8000001212c9,%rax
ffff80000011de0d:	80 ff ff 
ffff80000011de10:	ff d0                	callq  *%rax
ffff80000011de12:	48 b8 db 12 12 00 00 	movabs $0xffff8000001212db,%rax
ffff80000011de19:	80 ff ff 
ffff80000011de1c:	ff d0                	callq  *%rax
ffff80000011de1e:	b8 00 00 00 00       	mov    $0x0,%eax
ffff80000011de23:	48 ba 97 10 12 00 00 	movabs $0xffff800000121097,%rdx
ffff80000011de2a:	80 ff ff 
ffff80000011de2d:	ff d2                	callq  *%rdx
ffff80000011de2f:	eb fe                	jmp    ffff80000011de2f <main_ap+0xb1>

ffff80000011de31 <kmalloc>:
ffff80000011de31:	55                   	push   %rbp
ffff80000011de32:	48 89 e5             	mov    %rsp,%rbp
ffff80000011de35:	89 7d ec             	mov    %edi,-0x14(%rbp)
ffff80000011de38:	48 b8 b8 2b 12 00 00 	movabs $0xffff800000122bb8,%rax
ffff80000011de3f:	80 ff ff 
ffff80000011de42:	48 8b 00             	mov    (%rax),%rax
ffff80000011de45:	48 85 c0             	test   %rax,%rax
ffff80000011de48:	75 17                	jne    ffff80000011de61 <kmalloc+0x30>
ffff80000011de4a:	48 ba 3c 38 12 00 00 	movabs $0xffff80000012383c,%rdx
ffff80000011de51:	80 ff ff 
ffff80000011de54:	48 b8 b8 2b 12 00 00 	movabs $0xffff800000122bb8,%rax
ffff80000011de5b:	80 ff ff 
ffff80000011de5e:	48 89 10             	mov    %rdx,(%rax)
ffff80000011de61:	48 b8 b8 2b 12 00 00 	movabs $0xffff800000122bb8,%rax
ffff80000011de68:	80 ff ff 
ffff80000011de6b:	48 8b 00             	mov    (%rax),%rax
ffff80000011de6e:	48 89 45 f8          	mov    %rax,-0x8(%rbp)
ffff80000011de72:	8b 55 ec             	mov    -0x14(%rbp),%edx
ffff80000011de75:	48 b8 b8 2b 12 00 00 	movabs $0xffff800000122bb8,%rax
ffff80000011de7c:	80 ff ff 
ffff80000011de7f:	48 8b 00             	mov    (%rax),%rax
ffff80000011de82:	48 01 c2             	add    %rax,%rdx
ffff80000011de85:	48 b8 b8 2b 12 00 00 	movabs $0xffff800000122bb8,%rax
ffff80000011de8c:	80 ff ff 
ffff80000011de8f:	48 89 10             	mov    %rdx,(%rax)
ffff80000011de92:	48 8b 45 f8          	mov    -0x8(%rbp),%rax
ffff80000011de96:	5d                   	pop    %rbp
ffff80000011de97:	c3                   	retq   

ffff80000011de98 <kmalloc_a_4kb>:
ffff80000011de98:	55                   	push   %rbp
ffff80000011de99:	48 89 e5             	mov    %rsp,%rbp
ffff80000011de9c:	89 7d ec             	mov    %edi,-0x14(%rbp)
ffff80000011de9f:	48 b8 b8 2b 12 00 00 	movabs $0xffff800000122bb8,%rax
ffff80000011dea6:	80 ff ff 
ffff80000011dea9:	48 8b 00             	mov    (%rax),%rax
ffff80000011deac:	48 85 c0             	test   %rax,%rax
ffff80000011deaf:	75 17                	jne    ffff80000011dec8 <kmalloc_a_4kb+0x30>
ffff80000011deb1:	48 ba 3c 38 12 00 00 	movabs $0xffff80000012383c,%rdx
ffff80000011deb8:	80 ff ff 
ffff80000011debb:	48 b8 b8 2b 12 00 00 	movabs $0xffff800000122bb8,%rax
ffff80000011dec2:	80 ff ff 
ffff80000011dec5:	48 89 10             	mov    %rdx,(%rax)
ffff80000011dec8:	48 b8 b8 2b 12 00 00 	movabs $0xffff800000122bb8,%rax
ffff80000011decf:	80 ff ff 
ffff80000011ded2:	48 8b 00             	mov    (%rax),%rax
ffff80000011ded5:	25 ff 0f 00 00       	and    $0xfff,%eax
ffff80000011deda:	48 85 c0             	test   %rax,%rax
ffff80000011dedd:	74 44                	je     ffff80000011df23 <kmalloc_a_4kb+0x8b>
ffff80000011dedf:	48 b8 b8 2b 12 00 00 	movabs $0xffff800000122bb8,%rax
ffff80000011dee6:	80 ff ff 
ffff80000011dee9:	48 8b 00             	mov    (%rax),%rax
ffff80000011deec:	48 25 00 f0 ff ff    	and    $0xfffffffffffff000,%rax
ffff80000011def2:	48 89 c2             	mov    %rax,%rdx
ffff80000011def5:	48 b8 b8 2b 12 00 00 	movabs $0xffff800000122bb8,%rax
ffff80000011defc:	80 ff ff 
ffff80000011deff:	48 89 10             	mov    %rdx,(%rax)
ffff80000011df02:	48 b8 b8 2b 12 00 00 	movabs $0xffff800000122bb8,%rax
ffff80000011df09:	80 ff ff 
ffff80000011df0c:	48 8b 00             	mov    (%rax),%rax
ffff80000011df0f:	48 8d 90 00 10 00 00 	lea    0x1000(%rax),%rdx
ffff80000011df16:	48 b8 b8 2b 12 00 00 	movabs $0xffff800000122bb8,%rax
ffff80000011df1d:	80 ff ff 
ffff80000011df20:	48 89 10             	mov    %rdx,(%rax)
ffff80000011df23:	48 b8 b8 2b 12 00 00 	movabs $0xffff800000122bb8,%rax
ffff80000011df2a:	80 ff ff 
ffff80000011df2d:	48 8b 00             	mov    (%rax),%rax
ffff80000011df30:	48 89 45 f8          	mov    %rax,-0x8(%rbp)
ffff80000011df34:	8b 55 ec             	mov    -0x14(%rbp),%edx
ffff80000011df37:	48 b8 b8 2b 12 00 00 	movabs $0xffff800000122bb8,%rax
ffff80000011df3e:	80 ff ff 
ffff80000011df41:	48 8b 00             	mov    (%rax),%rax
ffff80000011df44:	48 01 c2             	add    %rax,%rdx
ffff80000011df47:	48 b8 b8 2b 12 00 00 	movabs $0xffff800000122bb8,%rax
ffff80000011df4e:	80 ff ff 
ffff80000011df51:	48 89 10             	mov    %rdx,(%rax)
ffff80000011df54:	48 8b 45 f8          	mov    -0x8(%rbp),%rax
ffff80000011df58:	5d                   	pop    %rbp
ffff80000011df59:	c3                   	retq   

ffff80000011df5a <kmalloc_a_2mb>:
ffff80000011df5a:	55                   	push   %rbp
ffff80000011df5b:	48 89 e5             	mov    %rsp,%rbp
ffff80000011df5e:	89 7d ec             	mov    %edi,-0x14(%rbp)
ffff80000011df61:	48 b8 b8 2b 12 00 00 	movabs $0xffff800000122bb8,%rax
ffff80000011df68:	80 ff ff 
ffff80000011df6b:	48 8b 00             	mov    (%rax),%rax
ffff80000011df6e:	48 85 c0             	test   %rax,%rax
ffff80000011df71:	75 17                	jne    ffff80000011df8a <kmalloc_a_2mb+0x30>
ffff80000011df73:	48 ba 3c 38 12 00 00 	movabs $0xffff80000012383c,%rdx
ffff80000011df7a:	80 ff ff 
ffff80000011df7d:	48 b8 b8 2b 12 00 00 	movabs $0xffff800000122bb8,%rax
ffff80000011df84:	80 ff ff 
ffff80000011df87:	48 89 10             	mov    %rdx,(%rax)
ffff80000011df8a:	48 b8 b8 2b 12 00 00 	movabs $0xffff800000122bb8,%rax
ffff80000011df91:	80 ff ff 
ffff80000011df94:	48 8b 00             	mov    (%rax),%rax
ffff80000011df97:	25 ff ff 1f 00       	and    $0x1fffff,%eax
ffff80000011df9c:	48 85 c0             	test   %rax,%rax
ffff80000011df9f:	74 44                	je     ffff80000011dfe5 <kmalloc_a_2mb+0x8b>
ffff80000011dfa1:	48 b8 b8 2b 12 00 00 	movabs $0xffff800000122bb8,%rax
ffff80000011dfa8:	80 ff ff 
ffff80000011dfab:	48 8b 00             	mov    (%rax),%rax
ffff80000011dfae:	48 25 00 00 e0 ff    	and    $0xffffffffffe00000,%rax
ffff80000011dfb4:	48 89 c2             	mov    %rax,%rdx
ffff80000011dfb7:	48 b8 b8 2b 12 00 00 	movabs $0xffff800000122bb8,%rax
ffff80000011dfbe:	80 ff ff 
ffff80000011dfc1:	48 89 10             	mov    %rdx,(%rax)
ffff80000011dfc4:	48 b8 b8 2b 12 00 00 	movabs $0xffff800000122bb8,%rax
ffff80000011dfcb:	80 ff ff 
ffff80000011dfce:	48 8b 00             	mov    (%rax),%rax
ffff80000011dfd1:	48 8d 90 00 00 20 00 	lea    0x200000(%rax),%rdx
ffff80000011dfd8:	48 b8 b8 2b 12 00 00 	movabs $0xffff800000122bb8,%rax
ffff80000011dfdf:	80 ff ff 
ffff80000011dfe2:	48 89 10             	mov    %rdx,(%rax)
ffff80000011dfe5:	48 b8 b8 2b 12 00 00 	movabs $0xffff800000122bb8,%rax
ffff80000011dfec:	80 ff ff 
ffff80000011dfef:	48 8b 00             	mov    (%rax),%rax
ffff80000011dff2:	48 89 45 f8          	mov    %rax,-0x8(%rbp)
ffff80000011dff6:	8b 55 ec             	mov    -0x14(%rbp),%edx
ffff80000011dff9:	48 b8 b8 2b 12 00 00 	movabs $0xffff800000122bb8,%rax
ffff80000011e000:	80 ff ff 
ffff80000011e003:	48 8b 00             	mov    (%rax),%rax
ffff80000011e006:	48 01 c2             	add    %rax,%rdx
ffff80000011e009:	48 b8 b8 2b 12 00 00 	movabs $0xffff800000122bb8,%rax
ffff80000011e010:	80 ff ff 
ffff80000011e013:	48 89 10             	mov    %rdx,(%rax)
ffff80000011e016:	48 8b 45 f8          	mov    -0x8(%rbp),%rax
ffff80000011e01a:	5d                   	pop    %rbp
ffff80000011e01b:	c3                   	retq   

ffff80000011e01c <kfree>:
ffff80000011e01c:	55                   	push   %rbp
ffff80000011e01d:	48 89 e5             	mov    %rsp,%rbp
ffff80000011e020:	48 89 7d f8          	mov    %rdi,-0x8(%rbp)
ffff80000011e024:	90                   	nop
ffff80000011e025:	5d                   	pop    %rbp
ffff80000011e026:	c3                   	retq   

ffff80000011e027 <paging_init>:
ffff80000011e027:	55                   	push   %rbp
ffff80000011e028:	48 89 e5             	mov    %rsp,%rbp
ffff80000011e02b:	48 89 7d f8          	mov    %rdi,-0x8(%rbp)
ffff80000011e02f:	48 b8 00 10 10 00 00 	movabs $0xffff800000101000,%rax
ffff80000011e036:	80 ff ff 
ffff80000011e039:	48 c7 00 00 00 00 00 	movq   $0x0,(%rax)
ffff80000011e040:	48 b8 c8 37 12 00 00 	movabs $0xffff8000001237c8,%rax
ffff80000011e047:	80 ff ff 
ffff80000011e04a:	48 ba 00 10 10 00 00 	movabs $0xffff800000101000,%rdx
ffff80000011e051:	80 ff ff 
ffff80000011e054:	48 89 10             	mov    %rdx,(%rax)
ffff80000011e057:	90                   	nop
ffff80000011e058:	5d                   	pop    %rbp
ffff80000011e059:	c3                   	retq   

ffff80000011e05a <get_page>:
ffff80000011e05a:	55                   	push   %rbp
ffff80000011e05b:	48 89 e5             	mov    %rsp,%rbp
ffff80000011e05e:	48 83 ec 30          	sub    $0x30,%rsp
ffff80000011e062:	48 89 7d e8          	mov    %rdi,-0x18(%rbp)
ffff80000011e066:	89 75 e4             	mov    %esi,-0x1c(%rbp)
ffff80000011e069:	48 89 55 d8          	mov    %rdx,-0x28(%rbp)
ffff80000011e06d:	48 b8 ff ff ff ff ff 	movabs $0xffffffffffff,%rax
ffff80000011e074:	ff 00 00 
ffff80000011e077:	48 21 45 e8          	and    %rax,-0x18(%rbp)
ffff80000011e07b:	48 8b 45 e8          	mov    -0x18(%rbp),%rax
ffff80000011e07f:	48 c1 e0 10          	shl    $0x10,%rax
ffff80000011e083:	48 c1 e8 37          	shr    $0x37,%rax
ffff80000011e087:	48 89 c2             	mov    %rax,%rdx
ffff80000011e08a:	48 8b 45 d8          	mov    -0x28(%rbp),%rax
ffff80000011e08e:	0f b6 4c d0 01       	movzbl 0x1(%rax,%rdx,8),%ecx
ffff80000011e093:	c0 e9 04             	shr    $0x4,%cl
ffff80000011e096:	0f b6 c9             	movzbl %cl,%ecx
ffff80000011e099:	0f b6 74 d0 02       	movzbl 0x2(%rax,%rdx,8),%esi
ffff80000011e09e:	48 c1 e6 04          	shl    $0x4,%rsi
ffff80000011e0a2:	48 09 ce             	or     %rcx,%rsi
ffff80000011e0a5:	0f b6 4c d0 03       	movzbl 0x3(%rax,%rdx,8),%ecx
ffff80000011e0aa:	48 c1 e1 0c          	shl    $0xc,%rcx
ffff80000011e0ae:	48 09 f1             	or     %rsi,%rcx
ffff80000011e0b1:	0f b6 44 d0 04       	movzbl 0x4(%rax,%rdx,8),%eax
ffff80000011e0b6:	48 c1 e0 14          	shl    $0x14,%rax
ffff80000011e0ba:	48 09 c8             	or     %rcx,%rax
ffff80000011e0bd:	85 c0                	test   %eax,%eax
ffff80000011e0bf:	0f 84 65 02 00 00    	je     ffff80000011e32a <get_page+0x2d0>
ffff80000011e0c5:	48 8b 45 e8          	mov    -0x18(%rbp),%rax
ffff80000011e0c9:	48 c1 e0 10          	shl    $0x10,%rax
ffff80000011e0cd:	48 c1 e8 37          	shr    $0x37,%rax
ffff80000011e0d1:	48 89 c2             	mov    %rax,%rdx
ffff80000011e0d4:	48 8b 45 d8          	mov    -0x28(%rbp),%rax
ffff80000011e0d8:	0f b6 4c d0 01       	movzbl 0x1(%rax,%rdx,8),%ecx
ffff80000011e0dd:	c0 e9 04             	shr    $0x4,%cl
ffff80000011e0e0:	0f b6 c9             	movzbl %cl,%ecx
ffff80000011e0e3:	0f b6 74 d0 02       	movzbl 0x2(%rax,%rdx,8),%esi
ffff80000011e0e8:	48 c1 e6 04          	shl    $0x4,%rsi
ffff80000011e0ec:	48 09 ce             	or     %rcx,%rsi
ffff80000011e0ef:	0f b6 4c d0 03       	movzbl 0x3(%rax,%rdx,8),%ecx
ffff80000011e0f4:	48 c1 e1 0c          	shl    $0xc,%rcx
ffff80000011e0f8:	48 09 f1             	or     %rsi,%rcx
ffff80000011e0fb:	0f b6 44 d0 04       	movzbl 0x4(%rax,%rdx,8),%eax
ffff80000011e100:	48 c1 e0 14          	shl    $0x14,%rax
ffff80000011e104:	48 09 c8             	or     %rcx,%rax
ffff80000011e107:	89 c0                	mov    %eax,%eax
ffff80000011e109:	48 89 45 f8          	mov    %rax,-0x8(%rbp)
ffff80000011e10d:	48 c1 65 f8 0c       	shlq   $0xc,-0x8(%rbp)
ffff80000011e112:	48 b8 00 00 00 00 00 	movabs $0xffff800000000000,%rax
ffff80000011e119:	80 ff ff 
ffff80000011e11c:	48 01 45 f8          	add    %rax,-0x8(%rbp)
ffff80000011e120:	48 8b 45 f8          	mov    -0x8(%rbp),%rax
ffff80000011e124:	48 8b 55 e8          	mov    -0x18(%rbp),%rdx
ffff80000011e128:	48 c1 e2 19          	shl    $0x19,%rdx
ffff80000011e12c:	48 c1 ea 37          	shr    $0x37,%rdx
ffff80000011e130:	0f b6 4c d0 01       	movzbl 0x1(%rax,%rdx,8),%ecx
ffff80000011e135:	c0 e9 04             	shr    $0x4,%cl
ffff80000011e138:	0f b6 c9             	movzbl %cl,%ecx
ffff80000011e13b:	0f b6 74 d0 02       	movzbl 0x2(%rax,%rdx,8),%esi
ffff80000011e140:	48 c1 e6 04          	shl    $0x4,%rsi
ffff80000011e144:	48 09 ce             	or     %rcx,%rsi
ffff80000011e147:	0f b6 4c d0 03       	movzbl 0x3(%rax,%rdx,8),%ecx
ffff80000011e14c:	48 c1 e1 0c          	shl    $0xc,%rcx
ffff80000011e150:	48 09 f1             	or     %rsi,%rcx
ffff80000011e153:	0f b6 44 d0 04       	movzbl 0x4(%rax,%rdx,8),%eax
ffff80000011e158:	48 c1 e0 14          	shl    $0x14,%rax
ffff80000011e15c:	48 09 c8             	or     %rcx,%rax
ffff80000011e15f:	85 c0                	test   %eax,%eax
ffff80000011e161:	74 74                	je     ffff80000011e1d7 <get_page+0x17d>
ffff80000011e163:	48 8b 45 f8          	mov    -0x8(%rbp),%rax
ffff80000011e167:	48 8b 55 e8          	mov    -0x18(%rbp),%rdx
ffff80000011e16b:	48 c1 e2 19          	shl    $0x19,%rdx
ffff80000011e16f:	48 c1 ea 37          	shr    $0x37,%rdx
ffff80000011e173:	0f b6 4c d0 01       	movzbl 0x1(%rax,%rdx,8),%ecx
ffff80000011e178:	c0 e9 04             	shr    $0x4,%cl
ffff80000011e17b:	0f b6 c9             	movzbl %cl,%ecx
ffff80000011e17e:	0f b6 74 d0 02       	movzbl 0x2(%rax,%rdx,8),%esi
ffff80000011e183:	48 c1 e6 04          	shl    $0x4,%rsi
ffff80000011e187:	48 09 ce             	or     %rcx,%rsi
ffff80000011e18a:	0f b6 4c d0 03       	movzbl 0x3(%rax,%rdx,8),%ecx
ffff80000011e18f:	48 c1 e1 0c          	shl    $0xc,%rcx
ffff80000011e193:	48 09 f1             	or     %rsi,%rcx
ffff80000011e196:	0f b6 44 d0 04       	movzbl 0x4(%rax,%rdx,8),%eax
ffff80000011e19b:	48 c1 e0 14          	shl    $0x14,%rax
ffff80000011e19f:	48 09 c8             	or     %rcx,%rax
ffff80000011e1a2:	89 c0                	mov    %eax,%eax
ffff80000011e1a4:	48 89 45 f0          	mov    %rax,-0x10(%rbp)
ffff80000011e1a8:	48 c1 65 f0 0c       	shlq   $0xc,-0x10(%rbp)
ffff80000011e1ad:	48 b8 00 00 00 00 00 	movabs $0xffff800000000000,%rax
ffff80000011e1b4:	80 ff ff 
ffff80000011e1b7:	48 01 45 f0          	add    %rax,-0x10(%rbp)
ffff80000011e1bb:	48 8b 45 f0          	mov    -0x10(%rbp),%rax
ffff80000011e1bf:	48 8b 55 e8          	mov    -0x18(%rbp),%rdx
ffff80000011e1c3:	48 c1 e2 22          	shl    $0x22,%rdx
ffff80000011e1c7:	48 c1 ea 37          	shr    $0x37,%rdx
ffff80000011e1cb:	48 c1 e2 03          	shl    $0x3,%rdx
ffff80000011e1cf:	48 01 d0             	add    %rdx,%rax
ffff80000011e1d2:	e9 ce 03 00 00       	jmpq   ffff80000011e5a5 <get_page+0x54b>
ffff80000011e1d7:	83 7d e4 00          	cmpl   $0x0,-0x1c(%rbp)
ffff80000011e1db:	0f 84 3f 01 00 00    	je     ffff80000011e320 <get_page+0x2c6>
ffff80000011e1e1:	bf 00 10 00 00       	mov    $0x1000,%edi
ffff80000011e1e6:	48 b8 98 de 11 00 00 	movabs $0xffff80000011de98,%rax
ffff80000011e1ed:	80 ff ff 
ffff80000011e1f0:	ff d0                	callq  *%rax
ffff80000011e1f2:	48 89 45 f0          	mov    %rax,-0x10(%rbp)
ffff80000011e1f6:	48 8b 45 f0          	mov    -0x10(%rbp),%rax
ffff80000011e1fa:	ba 00 10 00 00       	mov    $0x1000,%edx
ffff80000011e1ff:	be 00 00 00 00       	mov    $0x0,%esi
ffff80000011e204:	48 89 c7             	mov    %rax,%rdi
ffff80000011e207:	48 b8 50 00 12 00 00 	movabs $0xffff800000120050,%rax
ffff80000011e20e:	80 ff ff 
ffff80000011e211:	ff d0                	callq  *%rax
ffff80000011e213:	48 b8 00 00 00 00 00 	movabs $0x800000000000,%rax
ffff80000011e21a:	80 00 00 
ffff80000011e21d:	48 01 45 f0          	add    %rax,-0x10(%rbp)
ffff80000011e221:	48 c1 6d f0 0c       	shrq   $0xc,-0x10(%rbp)
ffff80000011e226:	48 8b 45 f8          	mov    -0x8(%rbp),%rax
ffff80000011e22a:	48 8b 55 e8          	mov    -0x18(%rbp),%rdx
ffff80000011e22e:	48 c1 e2 19          	shl    $0x19,%rdx
ffff80000011e232:	48 c1 ea 37          	shr    $0x37,%rdx
ffff80000011e236:	48 8b 4d f0          	mov    -0x10(%rbp),%rcx
ffff80000011e23a:	81 e1 ff ff ff 0f    	and    $0xfffffff,%ecx
ffff80000011e240:	89 ce                	mov    %ecx,%esi
ffff80000011e242:	83 e6 0f             	and    $0xf,%esi
ffff80000011e245:	89 f7                	mov    %esi,%edi
ffff80000011e247:	c1 e7 04             	shl    $0x4,%edi
ffff80000011e24a:	0f b6 74 d0 01       	movzbl 0x1(%rax,%rdx,8),%esi
ffff80000011e24f:	83 e6 0f             	and    $0xf,%esi
ffff80000011e252:	09 fe                	or     %edi,%esi
ffff80000011e254:	40 88 74 d0 01       	mov    %sil,0x1(%rax,%rdx,8)
ffff80000011e259:	89 ce                	mov    %ecx,%esi
ffff80000011e25b:	c1 ee 04             	shr    $0x4,%esi
ffff80000011e25e:	89 f6                	mov    %esi,%esi
ffff80000011e260:	40 0f b6 fe          	movzbl %sil,%edi
ffff80000011e264:	0f b6 74 d0 02       	movzbl 0x2(%rax,%rdx,8),%esi
ffff80000011e269:	83 e6 00             	and    $0x0,%esi
ffff80000011e26c:	09 fe                	or     %edi,%esi
ffff80000011e26e:	40 88 74 d0 02       	mov    %sil,0x2(%rax,%rdx,8)
ffff80000011e273:	89 ce                	mov    %ecx,%esi
ffff80000011e275:	c1 ee 0c             	shr    $0xc,%esi
ffff80000011e278:	89 f6                	mov    %esi,%esi
ffff80000011e27a:	40 0f b6 fe          	movzbl %sil,%edi
ffff80000011e27e:	0f b6 74 d0 03       	movzbl 0x3(%rax,%rdx,8),%esi
ffff80000011e283:	83 e6 00             	and    $0x0,%esi
ffff80000011e286:	09 fe                	or     %edi,%esi
ffff80000011e288:	40 88 74 d0 03       	mov    %sil,0x3(%rax,%rdx,8)
ffff80000011e28d:	c1 e9 14             	shr    $0x14,%ecx
ffff80000011e290:	89 c9                	mov    %ecx,%ecx
ffff80000011e292:	0f b6 f1             	movzbl %cl,%esi
ffff80000011e295:	0f b6 4c d0 04       	movzbl 0x4(%rax,%rdx,8),%ecx
ffff80000011e29a:	83 e1 00             	and    $0x0,%ecx
ffff80000011e29d:	09 f1                	or     %esi,%ecx
ffff80000011e29f:	88 4c d0 04          	mov    %cl,0x4(%rax,%rdx,8)
ffff80000011e2a3:	48 8b 45 f8          	mov    -0x8(%rbp),%rax
ffff80000011e2a7:	48 8b 55 e8          	mov    -0x18(%rbp),%rdx
ffff80000011e2ab:	48 c1 e2 19          	shl    $0x19,%rdx
ffff80000011e2af:	48 c1 ea 37          	shr    $0x37,%rdx
ffff80000011e2b3:	0f b6 0c d0          	movzbl (%rax,%rdx,8),%ecx
ffff80000011e2b7:	83 c9 01             	or     $0x1,%ecx
ffff80000011e2ba:	88 0c d0             	mov    %cl,(%rax,%rdx,8)
ffff80000011e2bd:	48 8b 45 f8          	mov    -0x8(%rbp),%rax
ffff80000011e2c1:	48 8b 55 e8          	mov    -0x18(%rbp),%rdx
ffff80000011e2c5:	48 c1 e2 19          	shl    $0x19,%rdx
ffff80000011e2c9:	48 c1 ea 37          	shr    $0x37,%rdx
ffff80000011e2cd:	0f b6 0c d0          	movzbl (%rax,%rdx,8),%ecx
ffff80000011e2d1:	83 c9 02             	or     $0x2,%ecx
ffff80000011e2d4:	88 0c d0             	mov    %cl,(%rax,%rdx,8)
ffff80000011e2d7:	48 8b 45 f8          	mov    -0x8(%rbp),%rax
ffff80000011e2db:	48 8b 55 e8          	mov    -0x18(%rbp),%rdx
ffff80000011e2df:	48 c1 e2 19          	shl    $0x19,%rdx
ffff80000011e2e3:	48 c1 ea 37          	shr    $0x37,%rdx
ffff80000011e2e7:	0f b6 0c d0          	movzbl (%rax,%rdx,8),%ecx
ffff80000011e2eb:	83 c9 04             	or     $0x4,%ecx
ffff80000011e2ee:	88 0c d0             	mov    %cl,(%rax,%rdx,8)
ffff80000011e2f1:	48 c1 65 f0 0c       	shlq   $0xc,-0x10(%rbp)
ffff80000011e2f6:	48 b8 00 00 00 00 00 	movabs $0xffff800000000000,%rax
ffff80000011e2fd:	80 ff ff 
ffff80000011e300:	48 01 45 f0          	add    %rax,-0x10(%rbp)
ffff80000011e304:	48 8b 45 f0          	mov    -0x10(%rbp),%rax
ffff80000011e308:	48 8b 55 e8          	mov    -0x18(%rbp),%rdx
ffff80000011e30c:	48 c1 e2 22          	shl    $0x22,%rdx
ffff80000011e310:	48 c1 ea 37          	shr    $0x37,%rdx
ffff80000011e314:	48 c1 e2 03          	shl    $0x3,%rdx
ffff80000011e318:	48 01 d0             	add    %rdx,%rax
ffff80000011e31b:	e9 85 02 00 00       	jmpq   ffff80000011e5a5 <get_page+0x54b>
ffff80000011e320:	b8 00 00 00 00       	mov    $0x0,%eax
ffff80000011e325:	e9 7b 02 00 00       	jmpq   ffff80000011e5a5 <get_page+0x54b>
ffff80000011e32a:	83 7d e4 00          	cmpl   $0x0,-0x1c(%rbp)
ffff80000011e32e:	0f 84 6c 02 00 00    	je     ffff80000011e5a0 <get_page+0x546>
ffff80000011e334:	bf 00 10 00 00       	mov    $0x1000,%edi
ffff80000011e339:	48 b8 98 de 11 00 00 	movabs $0xffff80000011de98,%rax
ffff80000011e340:	80 ff ff 
ffff80000011e343:	ff d0                	callq  *%rax
ffff80000011e345:	48 89 45 f8          	mov    %rax,-0x8(%rbp)
ffff80000011e349:	48 8b 45 f8          	mov    -0x8(%rbp),%rax
ffff80000011e34d:	ba 00 10 00 00       	mov    $0x1000,%edx
ffff80000011e352:	be 00 00 00 00       	mov    $0x0,%esi
ffff80000011e357:	48 89 c7             	mov    %rax,%rdi
ffff80000011e35a:	48 b8 50 00 12 00 00 	movabs $0xffff800000120050,%rax
ffff80000011e361:	80 ff ff 
ffff80000011e364:	ff d0                	callq  *%rax
ffff80000011e366:	48 b8 00 00 00 00 00 	movabs $0x800000000000,%rax
ffff80000011e36d:	80 00 00 
ffff80000011e370:	48 01 45 f8          	add    %rax,-0x8(%rbp)
ffff80000011e374:	48 c1 6d f8 0c       	shrq   $0xc,-0x8(%rbp)
ffff80000011e379:	48 8b 45 e8          	mov    -0x18(%rbp),%rax
ffff80000011e37d:	48 c1 e0 10          	shl    $0x10,%rax
ffff80000011e381:	48 c1 e8 37          	shr    $0x37,%rax
ffff80000011e385:	48 89 c2             	mov    %rax,%rdx
ffff80000011e388:	48 8b 45 f8          	mov    -0x8(%rbp),%rax
ffff80000011e38c:	25 ff ff ff 0f       	and    $0xfffffff,%eax
ffff80000011e391:	89 c1                	mov    %eax,%ecx
ffff80000011e393:	48 8b 45 d8          	mov    -0x28(%rbp),%rax
ffff80000011e397:	89 ce                	mov    %ecx,%esi
ffff80000011e399:	83 e6 0f             	and    $0xf,%esi
ffff80000011e39c:	89 f7                	mov    %esi,%edi
ffff80000011e39e:	c1 e7 04             	shl    $0x4,%edi
ffff80000011e3a1:	0f b6 74 d0 01       	movzbl 0x1(%rax,%rdx,8),%esi
ffff80000011e3a6:	83 e6 0f             	and    $0xf,%esi
ffff80000011e3a9:	09 fe                	or     %edi,%esi
ffff80000011e3ab:	40 88 74 d0 01       	mov    %sil,0x1(%rax,%rdx,8)
ffff80000011e3b0:	89 ce                	mov    %ecx,%esi
ffff80000011e3b2:	c1 ee 04             	shr    $0x4,%esi
ffff80000011e3b5:	89 f6                	mov    %esi,%esi
ffff80000011e3b7:	40 0f b6 fe          	movzbl %sil,%edi
ffff80000011e3bb:	0f b6 74 d0 02       	movzbl 0x2(%rax,%rdx,8),%esi
ffff80000011e3c0:	83 e6 00             	and    $0x0,%esi
ffff80000011e3c3:	09 fe                	or     %edi,%esi
ffff80000011e3c5:	40 88 74 d0 02       	mov    %sil,0x2(%rax,%rdx,8)
ffff80000011e3ca:	89 ce                	mov    %ecx,%esi
ffff80000011e3cc:	c1 ee 0c             	shr    $0xc,%esi
ffff80000011e3cf:	89 f6                	mov    %esi,%esi
ffff80000011e3d1:	40 0f b6 fe          	movzbl %sil,%edi
ffff80000011e3d5:	0f b6 74 d0 03       	movzbl 0x3(%rax,%rdx,8),%esi
ffff80000011e3da:	83 e6 00             	and    $0x0,%esi
ffff80000011e3dd:	09 fe                	or     %edi,%esi
ffff80000011e3df:	40 88 74 d0 03       	mov    %sil,0x3(%rax,%rdx,8)
ffff80000011e3e4:	c1 e9 14             	shr    $0x14,%ecx
ffff80000011e3e7:	89 c9                	mov    %ecx,%ecx
ffff80000011e3e9:	0f b6 f1             	movzbl %cl,%esi
ffff80000011e3ec:	0f b6 4c d0 04       	movzbl 0x4(%rax,%rdx,8),%ecx
ffff80000011e3f1:	83 e1 00             	and    $0x0,%ecx
ffff80000011e3f4:	09 f1                	or     %esi,%ecx
ffff80000011e3f6:	88 4c d0 04          	mov    %cl,0x4(%rax,%rdx,8)
ffff80000011e3fa:	48 8b 45 e8          	mov    -0x18(%rbp),%rax
ffff80000011e3fe:	48 c1 e0 10          	shl    $0x10,%rax
ffff80000011e402:	48 c1 e8 37          	shr    $0x37,%rax
ffff80000011e406:	48 89 c2             	mov    %rax,%rdx
ffff80000011e409:	48 8b 45 d8          	mov    -0x28(%rbp),%rax
ffff80000011e40d:	0f b6 0c d0          	movzbl (%rax,%rdx,8),%ecx
ffff80000011e411:	83 c9 01             	or     $0x1,%ecx
ffff80000011e414:	88 0c d0             	mov    %cl,(%rax,%rdx,8)
ffff80000011e417:	48 8b 45 e8          	mov    -0x18(%rbp),%rax
ffff80000011e41b:	48 c1 e0 10          	shl    $0x10,%rax
ffff80000011e41f:	48 c1 e8 37          	shr    $0x37,%rax
ffff80000011e423:	48 89 c2             	mov    %rax,%rdx
ffff80000011e426:	48 8b 45 d8          	mov    -0x28(%rbp),%rax
ffff80000011e42a:	0f b6 0c d0          	movzbl (%rax,%rdx,8),%ecx
ffff80000011e42e:	83 c9 02             	or     $0x2,%ecx
ffff80000011e431:	88 0c d0             	mov    %cl,(%rax,%rdx,8)
ffff80000011e434:	48 8b 45 e8          	mov    -0x18(%rbp),%rax
ffff80000011e438:	48 c1 e0 10          	shl    $0x10,%rax
ffff80000011e43c:	48 c1 e8 37          	shr    $0x37,%rax
ffff80000011e440:	48 89 c2             	mov    %rax,%rdx
ffff80000011e443:	48 8b 45 d8          	mov    -0x28(%rbp),%rax
ffff80000011e447:	0f b6 0c d0          	movzbl (%rax,%rdx,8),%ecx
ffff80000011e44b:	83 c9 04             	or     $0x4,%ecx
ffff80000011e44e:	88 0c d0             	mov    %cl,(%rax,%rdx,8)
ffff80000011e451:	48 c1 65 f8 0c       	shlq   $0xc,-0x8(%rbp)
ffff80000011e456:	48 b8 00 00 00 00 00 	movabs $0xffff800000000000,%rax
ffff80000011e45d:	80 ff ff 
ffff80000011e460:	48 01 45 f8          	add    %rax,-0x8(%rbp)
ffff80000011e464:	bf 00 10 00 00       	mov    $0x1000,%edi
ffff80000011e469:	48 b8 98 de 11 00 00 	movabs $0xffff80000011de98,%rax
ffff80000011e470:	80 ff ff 
ffff80000011e473:	ff d0                	callq  *%rax
ffff80000011e475:	48 89 45 f0          	mov    %rax,-0x10(%rbp)
ffff80000011e479:	48 8b 45 f0          	mov    -0x10(%rbp),%rax
ffff80000011e47d:	ba 00 10 00 00       	mov    $0x1000,%edx
ffff80000011e482:	be 00 00 00 00       	mov    $0x0,%esi
ffff80000011e487:	48 89 c7             	mov    %rax,%rdi
ffff80000011e48a:	48 b8 50 00 12 00 00 	movabs $0xffff800000120050,%rax
ffff80000011e491:	80 ff ff 
ffff80000011e494:	ff d0                	callq  *%rax
ffff80000011e496:	48 b8 00 00 00 00 00 	movabs $0x800000000000,%rax
ffff80000011e49d:	80 00 00 
ffff80000011e4a0:	48 01 45 f0          	add    %rax,-0x10(%rbp)
ffff80000011e4a4:	48 c1 6d f0 0c       	shrq   $0xc,-0x10(%rbp)
ffff80000011e4a9:	48 8b 45 f8          	mov    -0x8(%rbp),%rax
ffff80000011e4ad:	48 8b 55 e8          	mov    -0x18(%rbp),%rdx
ffff80000011e4b1:	48 c1 e2 19          	shl    $0x19,%rdx
ffff80000011e4b5:	48 c1 ea 37          	shr    $0x37,%rdx
ffff80000011e4b9:	48 8b 4d f0          	mov    -0x10(%rbp),%rcx
ffff80000011e4bd:	81 e1 ff ff ff 0f    	and    $0xfffffff,%ecx
ffff80000011e4c3:	89 ce                	mov    %ecx,%esi
ffff80000011e4c5:	83 e6 0f             	and    $0xf,%esi
ffff80000011e4c8:	89 f7                	mov    %esi,%edi
ffff80000011e4ca:	c1 e7 04             	shl    $0x4,%edi
ffff80000011e4cd:	0f b6 74 d0 01       	movzbl 0x1(%rax,%rdx,8),%esi
ffff80000011e4d2:	83 e6 0f             	and    $0xf,%esi
ffff80000011e4d5:	09 fe                	or     %edi,%esi
ffff80000011e4d7:	40 88 74 d0 01       	mov    %sil,0x1(%rax,%rdx,8)
ffff80000011e4dc:	89 ce                	mov    %ecx,%esi
ffff80000011e4de:	c1 ee 04             	shr    $0x4,%esi
ffff80000011e4e1:	89 f6                	mov    %esi,%esi
ffff80000011e4e3:	40 0f b6 fe          	movzbl %sil,%edi
ffff80000011e4e7:	0f b6 74 d0 02       	movzbl 0x2(%rax,%rdx,8),%esi
ffff80000011e4ec:	83 e6 00             	and    $0x0,%esi
ffff80000011e4ef:	09 fe                	or     %edi,%esi
ffff80000011e4f1:	40 88 74 d0 02       	mov    %sil,0x2(%rax,%rdx,8)
ffff80000011e4f6:	89 ce                	mov    %ecx,%esi
ffff80000011e4f8:	c1 ee 0c             	shr    $0xc,%esi
ffff80000011e4fb:	89 f6                	mov    %esi,%esi
ffff80000011e4fd:	40 0f b6 fe          	movzbl %sil,%edi
ffff80000011e501:	0f b6 74 d0 03       	movzbl 0x3(%rax,%rdx,8),%esi
ffff80000011e506:	83 e6 00             	and    $0x0,%esi
ffff80000011e509:	09 fe                	or     %edi,%esi
ffff80000011e50b:	40 88 74 d0 03       	mov    %sil,0x3(%rax,%rdx,8)
ffff80000011e510:	c1 e9 14             	shr    $0x14,%ecx
ffff80000011e513:	89 c9                	mov    %ecx,%ecx
ffff80000011e515:	0f b6 f1             	movzbl %cl,%esi
ffff80000011e518:	0f b6 4c d0 04       	movzbl 0x4(%rax,%rdx,8),%ecx
ffff80000011e51d:	83 e1 00             	and    $0x0,%ecx
ffff80000011e520:	09 f1                	or     %esi,%ecx
ffff80000011e522:	88 4c d0 04          	mov    %cl,0x4(%rax,%rdx,8)
ffff80000011e526:	48 8b 45 f8          	mov    -0x8(%rbp),%rax
ffff80000011e52a:	48 8b 55 e8          	mov    -0x18(%rbp),%rdx
ffff80000011e52e:	48 c1 e2 19          	shl    $0x19,%rdx
ffff80000011e532:	48 c1 ea 37          	shr    $0x37,%rdx
ffff80000011e536:	0f b6 0c d0          	movzbl (%rax,%rdx,8),%ecx
ffff80000011e53a:	83 c9 01             	or     $0x1,%ecx
ffff80000011e53d:	88 0c d0             	mov    %cl,(%rax,%rdx,8)
ffff80000011e540:	48 8b 45 f8          	mov    -0x8(%rbp),%rax
ffff80000011e544:	48 8b 55 e8          	mov    -0x18(%rbp),%rdx
ffff80000011e548:	48 c1 e2 19          	shl    $0x19,%rdx
ffff80000011e54c:	48 c1 ea 37          	shr    $0x37,%rdx
ffff80000011e550:	0f b6 0c d0          	movzbl (%rax,%rdx,8),%ecx
ffff80000011e554:	83 c9 02             	or     $0x2,%ecx
ffff80000011e557:	88 0c d0             	mov    %cl,(%rax,%rdx,8)
ffff80000011e55a:	48 8b 45 f8          	mov    -0x8(%rbp),%rax
ffff80000011e55e:	48 8b 55 e8          	mov    -0x18(%rbp),%rdx
ffff80000011e562:	48 c1 e2 19          	shl    $0x19,%rdx
ffff80000011e566:	48 c1 ea 37          	shr    $0x37,%rdx
ffff80000011e56a:	0f b6 0c d0          	movzbl (%rax,%rdx,8),%ecx
ffff80000011e56e:	83 c9 04             	or     $0x4,%ecx
ffff80000011e571:	88 0c d0             	mov    %cl,(%rax,%rdx,8)
ffff80000011e574:	48 c1 65 f0 0c       	shlq   $0xc,-0x10(%rbp)
ffff80000011e579:	48 b8 00 00 00 00 00 	movabs $0xffff800000000000,%rax
ffff80000011e580:	80 ff ff 
ffff80000011e583:	48 01 45 f0          	add    %rax,-0x10(%rbp)
ffff80000011e587:	48 8b 45 f0          	mov    -0x10(%rbp),%rax
ffff80000011e58b:	48 8b 55 e8          	mov    -0x18(%rbp),%rdx
ffff80000011e58f:	48 c1 e2 22          	shl    $0x22,%rdx
ffff80000011e593:	48 c1 ea 37          	shr    $0x37,%rdx
ffff80000011e597:	48 c1 e2 03          	shl    $0x3,%rdx
ffff80000011e59b:	48 01 d0             	add    %rdx,%rax
ffff80000011e59e:	eb 05                	jmp    ffff80000011e5a5 <get_page+0x54b>
ffff80000011e5a0:	b8 00 00 00 00       	mov    $0x0,%eax
ffff80000011e5a5:	c9                   	leaveq 
ffff80000011e5a6:	c3                   	retq   

ffff80000011e5a7 <alloc_frame>:
ffff80000011e5a7:	55                   	push   %rbp
ffff80000011e5a8:	48 89 e5             	mov    %rsp,%rbp
ffff80000011e5ab:	48 83 ec 20          	sub    $0x20,%rsp
ffff80000011e5af:	48 89 7d e8          	mov    %rdi,-0x18(%rbp)
ffff80000011e5b3:	89 75 e4             	mov    %esi,-0x1c(%rbp)
ffff80000011e5b6:	89 55 e0             	mov    %edx,-0x20(%rbp)
ffff80000011e5b9:	bf 00 00 20 00       	mov    $0x200000,%edi
ffff80000011e5be:	48 b8 5a df 11 00 00 	movabs $0xffff80000011df5a,%rax
ffff80000011e5c5:	80 ff ff 
ffff80000011e5c8:	ff d0                	callq  *%rax
ffff80000011e5ca:	48 89 45 f8          	mov    %rax,-0x8(%rbp)
ffff80000011e5ce:	48 ba 00 00 00 00 00 	movabs $0x800000000000,%rdx
ffff80000011e5d5:	80 00 00 
ffff80000011e5d8:	48 8b 45 f8          	mov    -0x8(%rbp),%rax
ffff80000011e5dc:	48 01 d0             	add    %rdx,%rax
ffff80000011e5df:	48 c1 e8 15          	shr    $0x15,%rax
ffff80000011e5e3:	48 89 45 f0          	mov    %rax,-0x10(%rbp)
ffff80000011e5e7:	48 8b 45 e8          	mov    -0x18(%rbp),%rax
ffff80000011e5eb:	0f b6 10             	movzbl (%rax),%edx
ffff80000011e5ee:	83 ca 01             	or     $0x1,%edx
ffff80000011e5f1:	88 10                	mov    %dl,(%rax)
ffff80000011e5f3:	83 7d e0 01          	cmpl   $0x1,-0x20(%rbp)
ffff80000011e5f7:	0f 94 c2             	sete   %dl
ffff80000011e5fa:	48 8b 45 e8          	mov    -0x18(%rbp),%rax
ffff80000011e5fe:	83 e2 01             	and    $0x1,%edx
ffff80000011e601:	8d 0c 12             	lea    (%rdx,%rdx,1),%ecx
ffff80000011e604:	0f b6 10             	movzbl (%rax),%edx
ffff80000011e607:	83 e2 fd             	and    $0xfffffffd,%edx
ffff80000011e60a:	09 ca                	or     %ecx,%edx
ffff80000011e60c:	88 10                	mov    %dl,(%rax)
ffff80000011e60e:	83 7d e4 01          	cmpl   $0x1,-0x1c(%rbp)
ffff80000011e612:	0f 95 c2             	setne  %dl
ffff80000011e615:	48 8b 45 e8          	mov    -0x18(%rbp),%rax
ffff80000011e619:	83 e2 01             	and    $0x1,%edx
ffff80000011e61c:	8d 0c 95 00 00 00 00 	lea    0x0(,%rdx,4),%ecx
ffff80000011e623:	0f b6 10             	movzbl (%rax),%edx
ffff80000011e626:	83 e2 fb             	and    $0xfffffffb,%edx
ffff80000011e629:	09 ca                	or     %ecx,%edx
ffff80000011e62b:	88 10                	mov    %dl,(%rax)
ffff80000011e62d:	48 8b 45 f0          	mov    -0x10(%rbp),%rax
ffff80000011e631:	25 ff ff 07 00       	and    $0x7ffff,%eax
ffff80000011e636:	89 c2                	mov    %eax,%edx
ffff80000011e638:	48 8b 45 e8          	mov    -0x18(%rbp),%rax
ffff80000011e63c:	89 d1                	mov    %edx,%ecx
ffff80000011e63e:	83 e1 07             	and    $0x7,%ecx
ffff80000011e641:	89 ce                	mov    %ecx,%esi
ffff80000011e643:	c1 e6 05             	shl    $0x5,%esi
ffff80000011e646:	0f b6 48 02          	movzbl 0x2(%rax),%ecx
ffff80000011e64a:	83 e1 1f             	and    $0x1f,%ecx
ffff80000011e64d:	09 f1                	or     %esi,%ecx
ffff80000011e64f:	88 48 02             	mov    %cl,0x2(%rax)
ffff80000011e652:	89 d1                	mov    %edx,%ecx
ffff80000011e654:	c1 e9 03             	shr    $0x3,%ecx
ffff80000011e657:	89 c9                	mov    %ecx,%ecx
ffff80000011e659:	0f b6 f1             	movzbl %cl,%esi
ffff80000011e65c:	0f b6 48 03          	movzbl 0x3(%rax),%ecx
ffff80000011e660:	83 e1 00             	and    $0x0,%ecx
ffff80000011e663:	09 f1                	or     %esi,%ecx
ffff80000011e665:	88 48 03             	mov    %cl,0x3(%rax)
ffff80000011e668:	c1 ea 0b             	shr    $0xb,%edx
ffff80000011e66b:	89 d2                	mov    %edx,%edx
ffff80000011e66d:	0f b6 ca             	movzbl %dl,%ecx
ffff80000011e670:	0f b6 50 04          	movzbl 0x4(%rax),%edx
ffff80000011e674:	83 e2 00             	and    $0x0,%edx
ffff80000011e677:	09 ca                	or     %ecx,%edx
ffff80000011e679:	88 50 04             	mov    %dl,0x4(%rax)
ffff80000011e67c:	90                   	nop
ffff80000011e67d:	c9                   	leaveq 
ffff80000011e67e:	c3                   	retq   

ffff80000011e67f <switch_pml4>:
ffff80000011e67f:	55                   	push   %rbp
ffff80000011e680:	48 89 e5             	mov    %rsp,%rbp
ffff80000011e683:	48 83 ec 10          	sub    $0x10,%rsp
ffff80000011e687:	48 89 7d f8          	mov    %rdi,-0x8(%rbp)
ffff80000011e68b:	48 8b 45 f8          	mov    -0x8(%rbp),%rax
ffff80000011e68f:	89 c7                	mov    %eax,%edi
ffff80000011e691:	48 b8 c0 12 12 00 00 	movabs $0xffff8000001212c0,%rax
ffff80000011e698:	80 ff ff 
ffff80000011e69b:	ff d0                	callq  *%rax
ffff80000011e69d:	90                   	nop
ffff80000011e69e:	c9                   	leaveq 
ffff80000011e69f:	c3                   	retq   

ffff80000011e6a0 <clone_pml4>:
ffff80000011e6a0:	55                   	push   %rbp
ffff80000011e6a1:	48 89 e5             	mov    %rsp,%rbp
ffff80000011e6a4:	48 83 ec 20          	sub    $0x20,%rsp
ffff80000011e6a8:	48 89 7d e8          	mov    %rdi,-0x18(%rbp)
ffff80000011e6ac:	bf 00 10 00 00       	mov    $0x1000,%edi
ffff80000011e6b1:	48 b8 98 de 11 00 00 	movabs $0xffff80000011de98,%rax
ffff80000011e6b8:	80 ff ff 
ffff80000011e6bb:	ff d0                	callq  *%rax
ffff80000011e6bd:	48 89 45 f0          	mov    %rax,-0x10(%rbp)
ffff80000011e6c1:	48 8b 45 f0          	mov    -0x10(%rbp),%rax
ffff80000011e6c5:	ba 00 10 00 00       	mov    $0x1000,%edx
ffff80000011e6ca:	be 00 00 00 00       	mov    $0x0,%esi
ffff80000011e6cf:	48 89 c7             	mov    %rax,%rdi
ffff80000011e6d2:	48 b8 50 00 12 00 00 	movabs $0xffff800000120050,%rax
ffff80000011e6d9:	80 ff ff 
ffff80000011e6dc:	ff d0                	callq  *%rax
ffff80000011e6de:	c7 45 fc 00 00 00 00 	movl   $0x0,-0x4(%rbp)
ffff80000011e6e5:	e9 56 01 00 00       	jmpq   ffff80000011e840 <clone_pml4+0x1a0>
ffff80000011e6ea:	8b 45 fc             	mov    -0x4(%rbp),%eax
ffff80000011e6ed:	48 98                	cltq   
ffff80000011e6ef:	48 8d 14 c5 00 00 00 	lea    0x0(,%rax,8),%rdx
ffff80000011e6f6:	00 
ffff80000011e6f7:	48 8b 45 e8          	mov    -0x18(%rbp),%rax
ffff80000011e6fb:	48 01 d0             	add    %rdx,%rax
ffff80000011e6fe:	48 8b 00             	mov    (%rax),%rax
ffff80000011e701:	48 85 c0             	test   %rax,%rax
ffff80000011e704:	0f 84 32 01 00 00    	je     ffff80000011e83c <clone_pml4+0x19c>
ffff80000011e70a:	8b 45 fc             	mov    -0x4(%rbp),%eax
ffff80000011e70d:	48 98                	cltq   
ffff80000011e70f:	48 8d 14 c5 00 00 00 	lea    0x0(,%rax,8),%rdx
ffff80000011e716:	00 
ffff80000011e717:	48 8b 45 e8          	mov    -0x18(%rbp),%rax
ffff80000011e71b:	48 01 d0             	add    %rdx,%rax
ffff80000011e71e:	48 8b 10             	mov    (%rax),%rdx
ffff80000011e721:	48 b8 c8 37 12 00 00 	movabs $0xffff8000001237c8,%rax
ffff80000011e728:	80 ff ff 
ffff80000011e72b:	48 8b 00             	mov    (%rax),%rax
ffff80000011e72e:	8b 4d fc             	mov    -0x4(%rbp),%ecx
ffff80000011e731:	48 63 c9             	movslq %ecx,%rcx
ffff80000011e734:	48 c1 e1 03          	shl    $0x3,%rcx
ffff80000011e738:	48 01 c8             	add    %rcx,%rax
ffff80000011e73b:	48 8b 00             	mov    (%rax),%rax
ffff80000011e73e:	48 39 c2             	cmp    %rax,%rdx
ffff80000011e741:	75 21                	jne    ffff80000011e764 <clone_pml4+0xc4>
ffff80000011e743:	48 8b 45 f0          	mov    -0x10(%rbp),%rax
ffff80000011e747:	8b 55 fc             	mov    -0x4(%rbp),%edx
ffff80000011e74a:	48 63 d2             	movslq %edx,%rdx
ffff80000011e74d:	48 8b 4d e8          	mov    -0x18(%rbp),%rcx
ffff80000011e751:	8b 75 fc             	mov    -0x4(%rbp),%esi
ffff80000011e754:	48 63 f6             	movslq %esi,%rsi
ffff80000011e757:	48 8b 0c f1          	mov    (%rcx,%rsi,8),%rcx
ffff80000011e75b:	48 89 0c d0          	mov    %rcx,(%rax,%rdx,8)
ffff80000011e75f:	e9 d8 00 00 00       	jmpq   ffff80000011e83c <clone_pml4+0x19c>
ffff80000011e764:	48 8b 45 e8          	mov    -0x18(%rbp),%rax
ffff80000011e768:	8b 55 fc             	mov    -0x4(%rbp),%edx
ffff80000011e76b:	48 63 d2             	movslq %edx,%rdx
ffff80000011e76e:	0f b6 4c d0 01       	movzbl 0x1(%rax,%rdx,8),%ecx
ffff80000011e773:	c0 e9 04             	shr    $0x4,%cl
ffff80000011e776:	0f b6 c9             	movzbl %cl,%ecx
ffff80000011e779:	0f b6 74 d0 02       	movzbl 0x2(%rax,%rdx,8),%esi
ffff80000011e77e:	48 c1 e6 04          	shl    $0x4,%rsi
ffff80000011e782:	48 09 ce             	or     %rcx,%rsi
ffff80000011e785:	0f b6 4c d0 03       	movzbl 0x3(%rax,%rdx,8),%ecx
ffff80000011e78a:	48 c1 e1 0c          	shl    $0xc,%rcx
ffff80000011e78e:	48 09 f1             	or     %rsi,%rcx
ffff80000011e791:	0f b6 44 d0 04       	movzbl 0x4(%rax,%rdx,8),%eax
ffff80000011e796:	48 c1 e0 14          	shl    $0x14,%rax
ffff80000011e79a:	48 09 c8             	or     %rcx,%rax
ffff80000011e79d:	c1 f8 0c             	sar    $0xc,%eax
ffff80000011e7a0:	48 98                	cltq   
ffff80000011e7a2:	48 89 c7             	mov    %rax,%rdi
ffff80000011e7a5:	48 b8 53 e8 11 00 00 	movabs $0xffff80000011e853,%rax
ffff80000011e7ac:	80 ff ff 
ffff80000011e7af:	ff d0                	callq  *%rax
ffff80000011e7b1:	c1 e0 0c             	shl    $0xc,%eax
ffff80000011e7b4:	25 ff ff ff 0f       	and    $0xfffffff,%eax
ffff80000011e7b9:	89 c1                	mov    %eax,%ecx
ffff80000011e7bb:	48 8b 45 f0          	mov    -0x10(%rbp),%rax
ffff80000011e7bf:	8b 55 fc             	mov    -0x4(%rbp),%edx
ffff80000011e7c2:	48 63 d2             	movslq %edx,%rdx
ffff80000011e7c5:	89 ce                	mov    %ecx,%esi
ffff80000011e7c7:	83 e6 0f             	and    $0xf,%esi
ffff80000011e7ca:	89 f7                	mov    %esi,%edi
ffff80000011e7cc:	c1 e7 04             	shl    $0x4,%edi
ffff80000011e7cf:	0f b6 74 d0 01       	movzbl 0x1(%rax,%rdx,8),%esi
ffff80000011e7d4:	83 e6 0f             	and    $0xf,%esi
ffff80000011e7d7:	09 fe                	or     %edi,%esi
ffff80000011e7d9:	40 88 74 d0 01       	mov    %sil,0x1(%rax,%rdx,8)
ffff80000011e7de:	89 ce                	mov    %ecx,%esi
ffff80000011e7e0:	c1 ee 04             	shr    $0x4,%esi
ffff80000011e7e3:	89 f6                	mov    %esi,%esi
ffff80000011e7e5:	40 0f b6 fe          	movzbl %sil,%edi
ffff80000011e7e9:	0f b6 74 d0 02       	movzbl 0x2(%rax,%rdx,8),%esi
ffff80000011e7ee:	83 e6 00             	and    $0x0,%esi
ffff80000011e7f1:	09 fe                	or     %edi,%esi
ffff80000011e7f3:	40 88 74 d0 02       	mov    %sil,0x2(%rax,%rdx,8)
ffff80000011e7f8:	89 ce                	mov    %ecx,%esi
ffff80000011e7fa:	c1 ee 0c             	shr    $0xc,%esi
ffff80000011e7fd:	89 f6                	mov    %esi,%esi
ffff80000011e7ff:	40 0f b6 fe          	movzbl %sil,%edi
ffff80000011e803:	0f b6 74 d0 03       	movzbl 0x3(%rax,%rdx,8),%esi
ffff80000011e808:	83 e6 00             	and    $0x0,%esi
ffff80000011e80b:	09 fe                	or     %edi,%esi
ffff80000011e80d:	40 88 74 d0 03       	mov    %sil,0x3(%rax,%rdx,8)
ffff80000011e812:	c1 e9 14             	shr    $0x14,%ecx
ffff80000011e815:	89 c9                	mov    %ecx,%ecx
ffff80000011e817:	0f b6 f1             	movzbl %cl,%esi
ffff80000011e81a:	0f b6 4c d0 04       	movzbl 0x4(%rax,%rdx,8),%ecx
ffff80000011e81f:	83 e1 00             	and    $0x0,%ecx
ffff80000011e822:	09 f1                	or     %esi,%ecx
ffff80000011e824:	88 4c d0 04          	mov    %cl,0x4(%rax,%rdx,8)
ffff80000011e828:	48 8b 45 f0          	mov    -0x10(%rbp),%rax
ffff80000011e82c:	8b 55 fc             	mov    -0x4(%rbp),%edx
ffff80000011e82f:	48 63 d2             	movslq %edx,%rdx
ffff80000011e832:	0f b6 0c d0          	movzbl (%rax,%rdx,8),%ecx
ffff80000011e836:	83 c9 01             	or     $0x1,%ecx
ffff80000011e839:	88 0c d0             	mov    %cl,(%rax,%rdx,8)
ffff80000011e83c:	83 45 fc 01          	addl   $0x1,-0x4(%rbp)
ffff80000011e840:	81 7d fc ff 01 00 00 	cmpl   $0x1ff,-0x4(%rbp)
ffff80000011e847:	0f 8e 9d fe ff ff    	jle    ffff80000011e6ea <clone_pml4+0x4a>
ffff80000011e84d:	48 8b 45 f0          	mov    -0x10(%rbp),%rax
ffff80000011e851:	c9                   	leaveq 
ffff80000011e852:	c3                   	retq   

ffff80000011e853 <clone_pdpt>:
ffff80000011e853:	55                   	push   %rbp
ffff80000011e854:	48 89 e5             	mov    %rsp,%rbp
ffff80000011e857:	48 83 ec 20          	sub    $0x20,%rsp
ffff80000011e85b:	48 89 7d e8          	mov    %rdi,-0x18(%rbp)
ffff80000011e85f:	bf 00 10 00 00       	mov    $0x1000,%edi
ffff80000011e864:	48 b8 98 de 11 00 00 	movabs $0xffff80000011de98,%rax
ffff80000011e86b:	80 ff ff 
ffff80000011e86e:	ff d0                	callq  *%rax
ffff80000011e870:	48 89 45 f0          	mov    %rax,-0x10(%rbp)
ffff80000011e874:	48 8b 45 f0          	mov    -0x10(%rbp),%rax
ffff80000011e878:	ba 00 10 00 00       	mov    $0x1000,%edx
ffff80000011e87d:	be 00 00 00 00       	mov    $0x0,%esi
ffff80000011e882:	48 89 c7             	mov    %rax,%rdi
ffff80000011e885:	48 b8 50 00 12 00 00 	movabs $0xffff800000120050,%rax
ffff80000011e88c:	80 ff ff 
ffff80000011e88f:	ff d0                	callq  *%rax
ffff80000011e891:	c7 45 fc 00 00 00 00 	movl   $0x0,-0x4(%rbp)
ffff80000011e898:	e9 fc 00 00 00       	jmpq   ffff80000011e999 <clone_pdpt+0x146>
ffff80000011e89d:	8b 45 fc             	mov    -0x4(%rbp),%eax
ffff80000011e8a0:	48 98                	cltq   
ffff80000011e8a2:	48 8d 14 c5 00 00 00 	lea    0x0(,%rax,8),%rdx
ffff80000011e8a9:	00 
ffff80000011e8aa:	48 8b 45 e8          	mov    -0x18(%rbp),%rax
ffff80000011e8ae:	48 01 d0             	add    %rdx,%rax
ffff80000011e8b1:	48 8b 00             	mov    (%rax),%rax
ffff80000011e8b4:	48 85 c0             	test   %rax,%rax
ffff80000011e8b7:	0f 84 d8 00 00 00    	je     ffff80000011e995 <clone_pdpt+0x142>
ffff80000011e8bd:	48 8b 45 e8          	mov    -0x18(%rbp),%rax
ffff80000011e8c1:	8b 55 fc             	mov    -0x4(%rbp),%edx
ffff80000011e8c4:	48 63 d2             	movslq %edx,%rdx
ffff80000011e8c7:	0f b6 4c d0 01       	movzbl 0x1(%rax,%rdx,8),%ecx
ffff80000011e8cc:	c0 e9 04             	shr    $0x4,%cl
ffff80000011e8cf:	0f b6 c9             	movzbl %cl,%ecx
ffff80000011e8d2:	0f b6 74 d0 02       	movzbl 0x2(%rax,%rdx,8),%esi
ffff80000011e8d7:	48 c1 e6 04          	shl    $0x4,%rsi
ffff80000011e8db:	48 09 ce             	or     %rcx,%rsi
ffff80000011e8de:	0f b6 4c d0 03       	movzbl 0x3(%rax,%rdx,8),%ecx
ffff80000011e8e3:	48 c1 e1 0c          	shl    $0xc,%rcx
ffff80000011e8e7:	48 09 f1             	or     %rsi,%rcx
ffff80000011e8ea:	0f b6 44 d0 04       	movzbl 0x4(%rax,%rdx,8),%eax
ffff80000011e8ef:	48 c1 e0 14          	shl    $0x14,%rax
ffff80000011e8f3:	48 09 c8             	or     %rcx,%rax
ffff80000011e8f6:	c1 f8 0c             	sar    $0xc,%eax
ffff80000011e8f9:	48 98                	cltq   
ffff80000011e8fb:	48 89 c7             	mov    %rax,%rdi
ffff80000011e8fe:	48 b8 ac e9 11 00 00 	movabs $0xffff80000011e9ac,%rax
ffff80000011e905:	80 ff ff 
ffff80000011e908:	ff d0                	callq  *%rax
ffff80000011e90a:	c1 e0 0c             	shl    $0xc,%eax
ffff80000011e90d:	25 ff ff ff 0f       	and    $0xfffffff,%eax
ffff80000011e912:	89 c1                	mov    %eax,%ecx
ffff80000011e914:	48 8b 45 f0          	mov    -0x10(%rbp),%rax
ffff80000011e918:	8b 55 fc             	mov    -0x4(%rbp),%edx
ffff80000011e91b:	48 63 d2             	movslq %edx,%rdx
ffff80000011e91e:	89 ce                	mov    %ecx,%esi
ffff80000011e920:	83 e6 0f             	and    $0xf,%esi
ffff80000011e923:	89 f7                	mov    %esi,%edi
ffff80000011e925:	c1 e7 04             	shl    $0x4,%edi
ffff80000011e928:	0f b6 74 d0 01       	movzbl 0x1(%rax,%rdx,8),%esi
ffff80000011e92d:	83 e6 0f             	and    $0xf,%esi
ffff80000011e930:	09 fe                	or     %edi,%esi
ffff80000011e932:	40 88 74 d0 01       	mov    %sil,0x1(%rax,%rdx,8)
ffff80000011e937:	89 ce                	mov    %ecx,%esi
ffff80000011e939:	c1 ee 04             	shr    $0x4,%esi
ffff80000011e93c:	89 f6                	mov    %esi,%esi
ffff80000011e93e:	40 0f b6 fe          	movzbl %sil,%edi
ffff80000011e942:	0f b6 74 d0 02       	movzbl 0x2(%rax,%rdx,8),%esi
ffff80000011e947:	83 e6 00             	and    $0x0,%esi
ffff80000011e94a:	09 fe                	or     %edi,%esi
ffff80000011e94c:	40 88 74 d0 02       	mov    %sil,0x2(%rax,%rdx,8)
ffff80000011e951:	89 ce                	mov    %ecx,%esi
ffff80000011e953:	c1 ee 0c             	shr    $0xc,%esi
ffff80000011e956:	89 f6                	mov    %esi,%esi
ffff80000011e958:	40 0f b6 fe          	movzbl %sil,%edi
ffff80000011e95c:	0f b6 74 d0 03       	movzbl 0x3(%rax,%rdx,8),%esi
ffff80000011e961:	83 e6 00             	and    $0x0,%esi
ffff80000011e964:	09 fe                	or     %edi,%esi
ffff80000011e966:	40 88 74 d0 03       	mov    %sil,0x3(%rax,%rdx,8)
ffff80000011e96b:	c1 e9 14             	shr    $0x14,%ecx
ffff80000011e96e:	89 c9                	mov    %ecx,%ecx
ffff80000011e970:	0f b6 f1             	movzbl %cl,%esi
ffff80000011e973:	0f b6 4c d0 04       	movzbl 0x4(%rax,%rdx,8),%ecx
ffff80000011e978:	83 e1 00             	and    $0x0,%ecx
ffff80000011e97b:	09 f1                	or     %esi,%ecx
ffff80000011e97d:	88 4c d0 04          	mov    %cl,0x4(%rax,%rdx,8)
ffff80000011e981:	48 8b 45 f0          	mov    -0x10(%rbp),%rax
ffff80000011e985:	8b 55 fc             	mov    -0x4(%rbp),%edx
ffff80000011e988:	48 63 d2             	movslq %edx,%rdx
ffff80000011e98b:	0f b6 0c d0          	movzbl (%rax,%rdx,8),%ecx
ffff80000011e98f:	83 c9 01             	or     $0x1,%ecx
ffff80000011e992:	88 0c d0             	mov    %cl,(%rax,%rdx,8)
ffff80000011e995:	83 45 fc 01          	addl   $0x1,-0x4(%rbp)
ffff80000011e999:	81 7d fc ff 01 00 00 	cmpl   $0x1ff,-0x4(%rbp)
ffff80000011e9a0:	0f 8e f7 fe ff ff    	jle    ffff80000011e89d <clone_pdpt+0x4a>
ffff80000011e9a6:	48 8b 45 f0          	mov    -0x10(%rbp),%rax
ffff80000011e9aa:	c9                   	leaveq 
ffff80000011e9ab:	c3                   	retq   

ffff80000011e9ac <clone_pd>:
ffff80000011e9ac:	55                   	push   %rbp
ffff80000011e9ad:	48 89 e5             	mov    %rsp,%rbp
ffff80000011e9b0:	48 83 ec 20          	sub    $0x20,%rsp
ffff80000011e9b4:	48 89 7d e8          	mov    %rdi,-0x18(%rbp)
ffff80000011e9b8:	bf 00 10 00 00       	mov    $0x1000,%edi
ffff80000011e9bd:	48 b8 98 de 11 00 00 	movabs $0xffff80000011de98,%rax
ffff80000011e9c4:	80 ff ff 
ffff80000011e9c7:	ff d0                	callq  *%rax
ffff80000011e9c9:	48 89 45 f0          	mov    %rax,-0x10(%rbp)
ffff80000011e9cd:	48 8b 45 f0          	mov    -0x10(%rbp),%rax
ffff80000011e9d1:	ba 00 10 00 00       	mov    $0x1000,%edx
ffff80000011e9d6:	be 00 00 00 00       	mov    $0x0,%esi
ffff80000011e9db:	48 89 c7             	mov    %rax,%rdi
ffff80000011e9de:	48 b8 50 00 12 00 00 	movabs $0xffff800000120050,%rax
ffff80000011e9e5:	80 ff ff 
ffff80000011e9e8:	ff d0                	callq  *%rax
ffff80000011e9ea:	c7 45 fc 00 00 00 00 	movl   $0x0,-0x4(%rbp)
ffff80000011e9f1:	e9 a5 01 00 00       	jmpq   ffff80000011eb9b <clone_pd+0x1ef>
ffff80000011e9f6:	8b 45 fc             	mov    -0x4(%rbp),%eax
ffff80000011e9f9:	48 98                	cltq   
ffff80000011e9fb:	48 8d 14 c5 00 00 00 	lea    0x0(,%rax,8),%rdx
ffff80000011ea02:	00 
ffff80000011ea03:	48 8b 45 e8          	mov    -0x18(%rbp),%rax
ffff80000011ea07:	48 01 d0             	add    %rdx,%rax
ffff80000011ea0a:	48 8b 00             	mov    (%rax),%rax
ffff80000011ea0d:	48 85 c0             	test   %rax,%rax
ffff80000011ea10:	0f 84 80 01 00 00    	je     ffff80000011eb96 <clone_pd+0x1ea>
ffff80000011ea16:	8b 45 fc             	mov    -0x4(%rbp),%eax
ffff80000011ea19:	48 98                	cltq   
ffff80000011ea1b:	48 8d 14 c5 00 00 00 	lea    0x0(,%rax,8),%rdx
ffff80000011ea22:	00 
ffff80000011ea23:	48 8b 45 f0          	mov    -0x10(%rbp),%rax
ffff80000011ea27:	48 01 d0             	add    %rdx,%rax
ffff80000011ea2a:	ba 00 00 00 00       	mov    $0x0,%edx
ffff80000011ea2f:	be 00 00 00 00       	mov    $0x0,%esi
ffff80000011ea34:	48 89 c7             	mov    %rax,%rdi
ffff80000011ea37:	48 b8 a7 e5 11 00 00 	movabs $0xffff80000011e5a7,%rax
ffff80000011ea3e:	80 ff ff 
ffff80000011ea41:	ff d0                	callq  *%rax
ffff80000011ea43:	48 8b 45 e8          	mov    -0x18(%rbp),%rax
ffff80000011ea47:	8b 55 fc             	mov    -0x4(%rbp),%edx
ffff80000011ea4a:	48 63 d2             	movslq %edx,%rdx
ffff80000011ea4d:	0f b6 04 d0          	movzbl (%rax,%rdx,8),%eax
ffff80000011ea51:	83 e0 01             	and    $0x1,%eax
ffff80000011ea54:	84 c0                	test   %al,%al
ffff80000011ea56:	74 14                	je     ffff80000011ea6c <clone_pd+0xc0>
ffff80000011ea58:	48 8b 45 f0          	mov    -0x10(%rbp),%rax
ffff80000011ea5c:	8b 55 fc             	mov    -0x4(%rbp),%edx
ffff80000011ea5f:	48 63 d2             	movslq %edx,%rdx
ffff80000011ea62:	0f b6 0c d0          	movzbl (%rax,%rdx,8),%ecx
ffff80000011ea66:	83 c9 01             	or     $0x1,%ecx
ffff80000011ea69:	88 0c d0             	mov    %cl,(%rax,%rdx,8)
ffff80000011ea6c:	48 8b 45 e8          	mov    -0x18(%rbp),%rax
ffff80000011ea70:	8b 55 fc             	mov    -0x4(%rbp),%edx
ffff80000011ea73:	48 63 d2             	movslq %edx,%rdx
ffff80000011ea76:	0f b6 04 d0          	movzbl (%rax,%rdx,8),%eax
ffff80000011ea7a:	d0 e8                	shr    %al
ffff80000011ea7c:	83 e0 01             	and    $0x1,%eax
ffff80000011ea7f:	84 c0                	test   %al,%al
ffff80000011ea81:	74 14                	je     ffff80000011ea97 <clone_pd+0xeb>
ffff80000011ea83:	48 8b 45 f0          	mov    -0x10(%rbp),%rax
ffff80000011ea87:	8b 55 fc             	mov    -0x4(%rbp),%edx
ffff80000011ea8a:	48 63 d2             	movslq %edx,%rdx
ffff80000011ea8d:	0f b6 0c d0          	movzbl (%rax,%rdx,8),%ecx
ffff80000011ea91:	83 c9 02             	or     $0x2,%ecx
ffff80000011ea94:	88 0c d0             	mov    %cl,(%rax,%rdx,8)
ffff80000011ea97:	48 8b 45 e8          	mov    -0x18(%rbp),%rax
ffff80000011ea9b:	8b 55 fc             	mov    -0x4(%rbp),%edx
ffff80000011ea9e:	48 63 d2             	movslq %edx,%rdx
ffff80000011eaa1:	0f b6 04 d0          	movzbl (%rax,%rdx,8),%eax
ffff80000011eaa5:	c0 e8 02             	shr    $0x2,%al
ffff80000011eaa8:	83 e0 01             	and    $0x1,%eax
ffff80000011eaab:	84 c0                	test   %al,%al
ffff80000011eaad:	74 14                	je     ffff80000011eac3 <clone_pd+0x117>
ffff80000011eaaf:	48 8b 45 f0          	mov    -0x10(%rbp),%rax
ffff80000011eab3:	8b 55 fc             	mov    -0x4(%rbp),%edx
ffff80000011eab6:	48 63 d2             	movslq %edx,%rdx
ffff80000011eab9:	0f b6 0c d0          	movzbl (%rax,%rdx,8),%ecx
ffff80000011eabd:	83 c9 04             	or     $0x4,%ecx
ffff80000011eac0:	88 0c d0             	mov    %cl,(%rax,%rdx,8)
ffff80000011eac3:	48 8b 45 e8          	mov    -0x18(%rbp),%rax
ffff80000011eac7:	8b 55 fc             	mov    -0x4(%rbp),%edx
ffff80000011eaca:	48 63 d2             	movslq %edx,%rdx
ffff80000011eacd:	0f b6 04 d0          	movzbl (%rax,%rdx,8),%eax
ffff80000011ead1:	c0 e8 05             	shr    $0x5,%al
ffff80000011ead4:	83 e0 01             	and    $0x1,%eax
ffff80000011ead7:	84 c0                	test   %al,%al
ffff80000011ead9:	74 14                	je     ffff80000011eaef <clone_pd+0x143>
ffff80000011eadb:	48 8b 45 f0          	mov    -0x10(%rbp),%rax
ffff80000011eadf:	8b 55 fc             	mov    -0x4(%rbp),%edx
ffff80000011eae2:	48 63 d2             	movslq %edx,%rdx
ffff80000011eae5:	0f b6 0c d0          	movzbl (%rax,%rdx,8),%ecx
ffff80000011eae9:	83 c9 20             	or     $0x20,%ecx
ffff80000011eaec:	88 0c d0             	mov    %cl,(%rax,%rdx,8)
ffff80000011eaef:	48 8b 45 e8          	mov    -0x18(%rbp),%rax
ffff80000011eaf3:	8b 55 fc             	mov    -0x4(%rbp),%edx
ffff80000011eaf6:	48 63 d2             	movslq %edx,%rdx
ffff80000011eaf9:	0f b6 04 d0          	movzbl (%rax,%rdx,8),%eax
ffff80000011eafd:	c0 e8 06             	shr    $0x6,%al
ffff80000011eb00:	83 e0 01             	and    $0x1,%eax
ffff80000011eb03:	84 c0                	test   %al,%al
ffff80000011eb05:	74 14                	je     ffff80000011eb1b <clone_pd+0x16f>
ffff80000011eb07:	48 8b 45 f0          	mov    -0x10(%rbp),%rax
ffff80000011eb0b:	8b 55 fc             	mov    -0x4(%rbp),%edx
ffff80000011eb0e:	48 63 d2             	movslq %edx,%rdx
ffff80000011eb11:	0f b6 0c d0          	movzbl (%rax,%rdx,8),%ecx
ffff80000011eb15:	83 c9 40             	or     $0x40,%ecx
ffff80000011eb18:	88 0c d0             	mov    %cl,(%rax,%rdx,8)
ffff80000011eb1b:	48 8b 45 e8          	mov    -0x18(%rbp),%rax
ffff80000011eb1f:	8b 55 fc             	mov    -0x4(%rbp),%edx
ffff80000011eb22:	48 63 d2             	movslq %edx,%rdx
ffff80000011eb25:	0f b6 4c d0 02       	movzbl 0x2(%rax,%rdx,8),%ecx
ffff80000011eb2a:	c0 e9 05             	shr    $0x5,%cl
ffff80000011eb2d:	0f b6 c9             	movzbl %cl,%ecx
ffff80000011eb30:	0f b6 74 d0 03       	movzbl 0x3(%rax,%rdx,8),%esi
ffff80000011eb35:	48 c1 e6 03          	shl    $0x3,%rsi
ffff80000011eb39:	48 09 f1             	or     %rsi,%rcx
ffff80000011eb3c:	0f b6 44 d0 04       	movzbl 0x4(%rax,%rdx,8),%eax
ffff80000011eb41:	48 c1 e0 0b          	shl    $0xb,%rax
ffff80000011eb45:	48 09 c8             	or     %rcx,%rax
ffff80000011eb48:	c1 e0 15             	shl    $0x15,%eax
ffff80000011eb4b:	48 98                	cltq   
ffff80000011eb4d:	48 89 c7             	mov    %rax,%rdi
ffff80000011eb50:	48 8b 45 f0          	mov    -0x10(%rbp),%rax
ffff80000011eb54:	8b 55 fc             	mov    -0x4(%rbp),%edx
ffff80000011eb57:	48 63 d2             	movslq %edx,%rdx
ffff80000011eb5a:	0f b6 4c d0 02       	movzbl 0x2(%rax,%rdx,8),%ecx
ffff80000011eb5f:	c0 e9 05             	shr    $0x5,%cl
ffff80000011eb62:	0f b6 c9             	movzbl %cl,%ecx
ffff80000011eb65:	0f b6 74 d0 03       	movzbl 0x3(%rax,%rdx,8),%esi
ffff80000011eb6a:	48 c1 e6 03          	shl    $0x3,%rsi
ffff80000011eb6e:	48 09 f1             	or     %rsi,%rcx
ffff80000011eb71:	0f b6 44 d0 04       	movzbl 0x4(%rax,%rdx,8),%eax
ffff80000011eb76:	48 c1 e0 0b          	shl    $0xb,%rax
ffff80000011eb7a:	48 09 c8             	or     %rcx,%rax
ffff80000011eb7d:	c1 e0 15             	shl    $0x15,%eax
ffff80000011eb80:	48 98                	cltq   
ffff80000011eb82:	48 89 fe             	mov    %rdi,%rsi
ffff80000011eb85:	48 89 c7             	mov    %rax,%rdi
ffff80000011eb88:	48 b8 ae eb 11 00 00 	movabs $0xffff80000011ebae,%rax
ffff80000011eb8f:	80 ff ff 
ffff80000011eb92:	ff d0                	callq  *%rax
ffff80000011eb94:	eb 01                	jmp    ffff80000011eb97 <clone_pd+0x1eb>
ffff80000011eb96:	90                   	nop
ffff80000011eb97:	83 45 fc 01          	addl   $0x1,-0x4(%rbp)
ffff80000011eb9b:	81 7d fc ff 01 00 00 	cmpl   $0x1ff,-0x4(%rbp)
ffff80000011eba2:	0f 8e 4e fe ff ff    	jle    ffff80000011e9f6 <clone_pd+0x4a>
ffff80000011eba8:	48 8b 45 f0          	mov    -0x10(%rbp),%rax
ffff80000011ebac:	c9                   	leaveq 
ffff80000011ebad:	c3                   	retq   

ffff80000011ebae <copy_2mb_page>:
ffff80000011ebae:	55                   	push   %rbp
ffff80000011ebaf:	48 89 e5             	mov    %rsp,%rbp
ffff80000011ebb2:	48 89 7d e8          	mov    %rdi,-0x18(%rbp)
ffff80000011ebb6:	48 89 75 e0          	mov    %rsi,-0x20(%rbp)
ffff80000011ebba:	c7 45 fc 00 00 00 00 	movl   $0x0,-0x4(%rbp)
ffff80000011ebc1:	eb 32                	jmp    ffff80000011ebf5 <copy_2mb_page+0x47>
ffff80000011ebc3:	8b 45 fc             	mov    -0x4(%rbp),%eax
ffff80000011ebc6:	48 98                	cltq   
ffff80000011ebc8:	48 8d 14 c5 00 00 00 	lea    0x0(,%rax,8),%rdx
ffff80000011ebcf:	00 
ffff80000011ebd0:	48 8b 45 e8          	mov    -0x18(%rbp),%rax
ffff80000011ebd4:	48 01 c2             	add    %rax,%rdx
ffff80000011ebd7:	8b 45 fc             	mov    -0x4(%rbp),%eax
ffff80000011ebda:	48 98                	cltq   
ffff80000011ebdc:	48 8d 0c c5 00 00 00 	lea    0x0(,%rax,8),%rcx
ffff80000011ebe3:	00 
ffff80000011ebe4:	48 8b 45 e0          	mov    -0x20(%rbp),%rax
ffff80000011ebe8:	48 01 c8             	add    %rcx,%rax
ffff80000011ebeb:	48 8b 00             	mov    (%rax),%rax
ffff80000011ebee:	48 89 02             	mov    %rax,(%rdx)
ffff80000011ebf1:	83 45 fc 01          	addl   $0x1,-0x4(%rbp)
ffff80000011ebf5:	81 7d fc ff ff 03 00 	cmpl   $0x3ffff,-0x4(%rbp)
ffff80000011ebfc:	7e c5                	jle    ffff80000011ebc3 <copy_2mb_page+0x15>
ffff80000011ebfe:	90                   	nop
ffff80000011ebff:	5d                   	pop    %rbp
ffff80000011ec00:	c3                   	retq   

ffff80000011ec01 <builtin_shell>:
ffff80000011ec01:	55                   	push   %rbp
ffff80000011ec02:	48 89 e5             	mov    %rsp,%rbp
ffff80000011ec05:	48 81 ec 40 01 00 00 	sub    $0x140,%rsp
ffff80000011ec0c:	c7 45 fc 00 00 00 00 	movl   $0x0,-0x4(%rbp)
ffff80000011ec13:	48 bf c3 14 12 00 00 	movabs $0xffff8000001214c3,%rdi
ffff80000011ec1a:	80 ff ff 
ffff80000011ec1d:	b8 00 00 00 00       	mov    $0x0,%eax
ffff80000011ec22:	48 ba 32 f8 11 00 00 	movabs $0xffff80000011f832,%rdx
ffff80000011ec29:	80 ff ff 
ffff80000011ec2c:	ff d2                	callq  *%rdx
ffff80000011ec2e:	48 b8 a2 cb 11 00 00 	movabs $0xffff80000011cba2,%rax
ffff80000011ec35:	80 ff ff 
ffff80000011ec38:	ff d0                	callq  *%rax
ffff80000011ec3a:	88 45 fb             	mov    %al,-0x5(%rbp)
ffff80000011ec3d:	0f b6 45 fb          	movzbl -0x5(%rbp),%eax
ffff80000011ec41:	3d 83 00 00 00       	cmp    $0x83,%eax
ffff80000011ec46:	7f 1a                	jg     ffff80000011ec62 <builtin_shell+0x61>
ffff80000011ec48:	3d 82 00 00 00       	cmp    $0x82,%eax
ffff80000011ec4d:	0f 8d 4b 01 00 00    	jge    ffff80000011ed9e <builtin_shell+0x19d>
ffff80000011ec53:	83 f8 08             	cmp    $0x8,%eax
ffff80000011ec56:	74 33                	je     ffff80000011ec8b <builtin_shell+0x8a>
ffff80000011ec58:	83 f8 0a             	cmp    $0xa,%eax
ffff80000011ec5b:	74 5c                	je     ffff80000011ecb9 <builtin_shell+0xb8>
ffff80000011ec5d:	e9 e9 00 00 00       	jmpq   ffff80000011ed4b <builtin_shell+0x14a>
ffff80000011ec62:	3d 86 00 00 00       	cmp    $0x86,%eax
ffff80000011ec67:	0f 84 31 01 00 00    	je     ffff80000011ed9e <builtin_shell+0x19d>
ffff80000011ec6d:	3d 86 00 00 00       	cmp    $0x86,%eax
ffff80000011ec72:	0f 8c d3 00 00 00    	jl     ffff80000011ed4b <builtin_shell+0x14a>
ffff80000011ec78:	2d 91 00 00 00       	sub    $0x91,%eax
ffff80000011ec7d:	83 f8 01             	cmp    $0x1,%eax
ffff80000011ec80:	0f 87 c5 00 00 00    	ja     ffff80000011ed4b <builtin_shell+0x14a>
ffff80000011ec86:	e9 13 01 00 00       	jmpq   ffff80000011ed9e <builtin_shell+0x19d>
ffff80000011ec8b:	83 7d fc 00          	cmpl   $0x0,-0x4(%rbp)
ffff80000011ec8f:	0f 8e 0f 01 00 00    	jle    ffff80000011eda4 <builtin_shell+0x1a3>
ffff80000011ec95:	48 bf c7 14 12 00 00 	movabs $0xffff8000001214c7,%rdi
ffff80000011ec9c:	80 ff ff 
ffff80000011ec9f:	b8 00 00 00 00       	mov    $0x0,%eax
ffff80000011eca4:	48 ba 32 f8 11 00 00 	movabs $0xffff80000011f832,%rdx
ffff80000011ecab:	80 ff ff 
ffff80000011ecae:	ff d2                	callq  *%rdx
ffff80000011ecb0:	83 6d fc 01          	subl   $0x1,-0x4(%rbp)
ffff80000011ecb4:	e9 eb 00 00 00       	jmpq   ffff80000011eda4 <builtin_shell+0x1a3>
ffff80000011ecb9:	48 bf c9 14 12 00 00 	movabs $0xffff8000001214c9,%rdi
ffff80000011ecc0:	80 ff ff 
ffff80000011ecc3:	b8 00 00 00 00       	mov    $0x0,%eax
ffff80000011ecc8:	48 ba 32 f8 11 00 00 	movabs $0xffff80000011f832,%rdx
ffff80000011eccf:	80 ff ff 
ffff80000011ecd2:	ff d2                	callq  *%rdx
ffff80000011ecd4:	83 7d fc 00          	cmpl   $0x0,-0x4(%rbp)
ffff80000011ecd8:	7e 23                	jle    ffff80000011ecfd <builtin_shell+0xfc>
ffff80000011ecda:	8b 45 fc             	mov    -0x4(%rbp),%eax
ffff80000011ecdd:	48 98                	cltq   
ffff80000011ecdf:	c6 84 05 c0 fe ff ff 	movb   $0x0,-0x140(%rbp,%rax,1)
ffff80000011ece6:	00 
ffff80000011ece7:	48 8d 85 c0 fe ff ff 	lea    -0x140(%rbp),%rax
ffff80000011ecee:	48 89 c7             	mov    %rax,%rdi
ffff80000011ecf1:	48 b8 aa ed 11 00 00 	movabs $0xffff80000011edaa,%rax
ffff80000011ecf8:	80 ff ff 
ffff80000011ecfb:	ff d0                	callq  *%rax
ffff80000011ecfd:	48 be cb 14 12 00 00 	movabs $0xffff8000001214cb,%rsi
ffff80000011ed04:	80 ff ff 
ffff80000011ed07:	48 bf ce 14 12 00 00 	movabs $0xffff8000001214ce,%rdi
ffff80000011ed0e:	80 ff ff 
ffff80000011ed11:	b8 00 00 00 00       	mov    $0x0,%eax
ffff80000011ed16:	48 ba 32 f8 11 00 00 	movabs $0xffff80000011f832,%rdx
ffff80000011ed1d:	80 ff ff 
ffff80000011ed20:	ff d2                	callq  *%rdx
ffff80000011ed22:	48 8d 85 c0 fe ff ff 	lea    -0x140(%rbp),%rax
ffff80000011ed29:	ba 2c 01 00 00       	mov    $0x12c,%edx
ffff80000011ed2e:	be 00 00 00 00       	mov    $0x0,%esi
ffff80000011ed33:	48 89 c7             	mov    %rax,%rdi
ffff80000011ed36:	48 b8 50 00 12 00 00 	movabs $0xffff800000120050,%rax
ffff80000011ed3d:	80 ff ff 
ffff80000011ed40:	ff d0                	callq  *%rax
ffff80000011ed42:	c7 45 fc 00 00 00 00 	movl   $0x0,-0x4(%rbp)
ffff80000011ed49:	eb 5a                	jmp    ffff80000011eda5 <builtin_shell+0x1a4>
ffff80000011ed4b:	80 7d fb 09          	cmpb   $0x9,-0x5(%rbp)
ffff80000011ed4f:	75 04                	jne    ffff80000011ed55 <builtin_shell+0x154>
ffff80000011ed51:	c6 45 fb 20          	movb   $0x20,-0x5(%rbp)
ffff80000011ed55:	81 7d fc 2b 01 00 00 	cmpl   $0x12b,-0x4(%rbp)
ffff80000011ed5c:	0f 8f cc fe ff ff    	jg     ffff80000011ec2e <builtin_shell+0x2d>
ffff80000011ed62:	8b 45 fc             	mov    -0x4(%rbp),%eax
ffff80000011ed65:	8d 50 01             	lea    0x1(%rax),%edx
ffff80000011ed68:	89 55 fc             	mov    %edx,-0x4(%rbp)
ffff80000011ed6b:	0f b6 55 fb          	movzbl -0x5(%rbp),%edx
ffff80000011ed6f:	48 98                	cltq   
ffff80000011ed71:	88 94 05 c0 fe ff ff 	mov    %dl,-0x140(%rbp,%rax,1)
ffff80000011ed78:	0f b6 45 fb          	movzbl -0x5(%rbp),%eax
ffff80000011ed7c:	89 c6                	mov    %eax,%esi
ffff80000011ed7e:	48 bf d1 14 12 00 00 	movabs $0xffff8000001214d1,%rdi
ffff80000011ed85:	80 ff ff 
ffff80000011ed88:	b8 00 00 00 00       	mov    $0x0,%eax
ffff80000011ed8d:	48 ba 32 f8 11 00 00 	movabs $0xffff80000011f832,%rdx
ffff80000011ed94:	80 ff ff 
ffff80000011ed97:	ff d2                	callq  *%rdx
ffff80000011ed99:	e9 90 fe ff ff       	jmpq   ffff80000011ec2e <builtin_shell+0x2d>
ffff80000011ed9e:	90                   	nop
ffff80000011ed9f:	e9 8a fe ff ff       	jmpq   ffff80000011ec2e <builtin_shell+0x2d>
ffff80000011eda4:	90                   	nop
ffff80000011eda5:	e9 84 fe ff ff       	jmpq   ffff80000011ec2e <builtin_shell+0x2d>

ffff80000011edaa <run_cmd>:
ffff80000011edaa:	55                   	push   %rbp
ffff80000011edab:	48 89 e5             	mov    %rsp,%rbp
ffff80000011edae:	48 83 ec 30          	sub    $0x30,%rsp
ffff80000011edb2:	48 89 7d d8          	mov    %rdi,-0x28(%rbp)
ffff80000011edb6:	48 8b 45 d8          	mov    -0x28(%rbp),%rax
ffff80000011edba:	48 89 c7             	mov    %rax,%rdi
ffff80000011edbd:	48 b8 cc 02 12 00 00 	movabs $0xffff8000001202cc,%rax
ffff80000011edc4:	80 ff ff 
ffff80000011edc7:	ff d0                	callq  *%rax
ffff80000011edc9:	89 45 f4             	mov    %eax,-0xc(%rbp)
ffff80000011edcc:	c7 45 f8 00 00 00 00 	movl   $0x0,-0x8(%rbp)
ffff80000011edd3:	eb 18                	jmp    ffff80000011eded <run_cmd+0x43>
ffff80000011edd5:	8b 45 f8             	mov    -0x8(%rbp),%eax
ffff80000011edd8:	48 63 d0             	movslq %eax,%rdx
ffff80000011eddb:	48 8b 45 d8          	mov    -0x28(%rbp),%rax
ffff80000011eddf:	48 01 d0             	add    %rdx,%rax
ffff80000011ede2:	0f b6 00             	movzbl (%rax),%eax
ffff80000011ede5:	3c 20                	cmp    $0x20,%al
ffff80000011ede7:	74 0e                	je     ffff80000011edf7 <run_cmd+0x4d>
ffff80000011ede9:	83 45 f8 01          	addl   $0x1,-0x8(%rbp)
ffff80000011eded:	8b 45 f8             	mov    -0x8(%rbp),%eax
ffff80000011edf0:	3b 45 f4             	cmp    -0xc(%rbp),%eax
ffff80000011edf3:	7c e0                	jl     ffff80000011edd5 <run_cmd+0x2b>
ffff80000011edf5:	eb 01                	jmp    ffff80000011edf8 <run_cmd+0x4e>
ffff80000011edf7:	90                   	nop
ffff80000011edf8:	c7 45 f0 01 00 00 00 	movl   $0x1,-0x10(%rbp)
ffff80000011edff:	c7 45 fc 00 00 00 00 	movl   $0x0,-0x4(%rbp)
ffff80000011ee06:	e9 a5 00 00 00       	jmpq   ffff80000011eeb0 <run_cmd+0x106>
ffff80000011ee0b:	48 b8 00 2a 12 00 00 	movabs $0xffff800000122a00,%rax
ffff80000011ee12:	80 ff ff 
ffff80000011ee15:	8b 55 fc             	mov    -0x4(%rbp),%edx
ffff80000011ee18:	48 63 d2             	movslq %edx,%rdx
ffff80000011ee1b:	48 c1 e2 04          	shl    $0x4,%rdx
ffff80000011ee1f:	48 01 d0             	add    %rdx,%rax
ffff80000011ee22:	48 8b 00             	mov    (%rax),%rax
ffff80000011ee25:	48 89 c7             	mov    %rax,%rdi
ffff80000011ee28:	48 b8 cc 02 12 00 00 	movabs $0xffff8000001202cc,%rax
ffff80000011ee2f:	80 ff ff 
ffff80000011ee32:	ff d0                	callq  *%rax
ffff80000011ee34:	89 45 ec             	mov    %eax,-0x14(%rbp)
ffff80000011ee37:	8b 45 ec             	mov    -0x14(%rbp),%eax
ffff80000011ee3a:	3b 45 f8             	cmp    -0x8(%rbp),%eax
ffff80000011ee3d:	75 6d                	jne    ffff80000011eeac <run_cmd+0x102>
ffff80000011ee3f:	48 b8 00 2a 12 00 00 	movabs $0xffff800000122a00,%rax
ffff80000011ee46:	80 ff ff 
ffff80000011ee49:	8b 55 fc             	mov    -0x4(%rbp),%edx
ffff80000011ee4c:	48 63 d2             	movslq %edx,%rdx
ffff80000011ee4f:	48 c1 e2 04          	shl    $0x4,%rdx
ffff80000011ee53:	48 01 d0             	add    %rdx,%rax
ffff80000011ee56:	48 8b 00             	mov    (%rax),%rax
ffff80000011ee59:	8b 55 f8             	mov    -0x8(%rbp),%edx
ffff80000011ee5c:	48 8b 4d d8          	mov    -0x28(%rbp),%rcx
ffff80000011ee60:	48 89 ce             	mov    %rcx,%rsi
ffff80000011ee63:	48 89 c7             	mov    %rax,%rdi
ffff80000011ee66:	48 b8 b8 00 12 00 00 	movabs $0xffff8000001200b8,%rax
ffff80000011ee6d:	80 ff ff 
ffff80000011ee70:	ff d0                	callq  *%rax
ffff80000011ee72:	85 c0                	test   %eax,%eax
ffff80000011ee74:	75 36                	jne    ffff80000011eeac <run_cmd+0x102>
ffff80000011ee76:	48 b8 00 2a 12 00 00 	movabs $0xffff800000122a00,%rax
ffff80000011ee7d:	80 ff ff 
ffff80000011ee80:	8b 55 fc             	mov    -0x4(%rbp),%edx
ffff80000011ee83:	48 63 d2             	movslq %edx,%rdx
ffff80000011ee86:	48 c1 e2 04          	shl    $0x4,%rdx
ffff80000011ee8a:	48 01 d0             	add    %rdx,%rax
ffff80000011ee8d:	48 83 c0 08          	add    $0x8,%rax
ffff80000011ee91:	48 8b 00             	mov    (%rax),%rax
ffff80000011ee94:	8b 55 f8             	mov    -0x8(%rbp),%edx
ffff80000011ee97:	48 63 d2             	movslq %edx,%rdx
ffff80000011ee9a:	48 8d 4a 01          	lea    0x1(%rdx),%rcx
ffff80000011ee9e:	48 8b 55 d8          	mov    -0x28(%rbp),%rdx
ffff80000011eea2:	48 01 ca             	add    %rcx,%rdx
ffff80000011eea5:	48 89 d7             	mov    %rdx,%rdi
ffff80000011eea8:	ff d0                	callq  *%rax
ffff80000011eeaa:	eb 10                	jmp    ffff80000011eebc <run_cmd+0x112>
ffff80000011eeac:	83 45 fc 01          	addl   $0x1,-0x4(%rbp)
ffff80000011eeb0:	8b 45 fc             	mov    -0x4(%rbp),%eax
ffff80000011eeb3:	3b 45 f0             	cmp    -0x10(%rbp),%eax
ffff80000011eeb6:	0f 8c 4f ff ff ff    	jl     ffff80000011ee0b <run_cmd+0x61>
ffff80000011eebc:	8b 45 fc             	mov    -0x4(%rbp),%eax
ffff80000011eebf:	3b 45 f0             	cmp    -0x10(%rbp),%eax
ffff80000011eec2:	7c 22                	jl     ffff80000011eee6 <run_cmd+0x13c>
ffff80000011eec4:	48 8b 45 d8          	mov    -0x28(%rbp),%rax
ffff80000011eec8:	48 89 c6             	mov    %rax,%rsi
ffff80000011eecb:	48 bf d4 14 12 00 00 	movabs $0xffff8000001214d4,%rdi
ffff80000011eed2:	80 ff ff 
ffff80000011eed5:	b8 00 00 00 00       	mov    $0x0,%eax
ffff80000011eeda:	48 ba 32 f8 11 00 00 	movabs $0xffff80000011f832,%rdx
ffff80000011eee1:	80 ff ff 
ffff80000011eee4:	ff d2                	callq  *%rdx
ffff80000011eee6:	90                   	nop
ffff80000011eee7:	c9                   	leaveq 
ffff80000011eee8:	c3                   	retq   

ffff80000011eee9 <param_init>:
ffff80000011eee9:	55                   	push   %rbp
ffff80000011eeea:	48 89 e5             	mov    %rsp,%rbp
ffff80000011eeed:	48 83 ec 10          	sub    $0x10,%rsp
ffff80000011eef1:	48 89 7d f8          	mov    %rdi,-0x8(%rbp)
ffff80000011eef5:	48 89 75 f0          	mov    %rsi,-0x10(%rbp)
ffff80000011eef9:	48 8b 45 f8          	mov    -0x8(%rbp),%rax
ffff80000011eefd:	48 8b 55 f0          	mov    -0x10(%rbp),%rdx
ffff80000011ef01:	48 89 10             	mov    %rdx,(%rax)
ffff80000011ef04:	48 8b 45 f0          	mov    -0x10(%rbp),%rax
ffff80000011ef08:	48 89 c7             	mov    %rax,%rdi
ffff80000011ef0b:	48 b8 cc 02 12 00 00 	movabs $0xffff8000001202cc,%rax
ffff80000011ef12:	80 ff ff 
ffff80000011ef15:	ff d0                	callq  *%rax
ffff80000011ef17:	89 c2                	mov    %eax,%edx
ffff80000011ef19:	48 8b 45 f8          	mov    -0x8(%rbp),%rax
ffff80000011ef1d:	89 50 08             	mov    %edx,0x8(%rax)
ffff80000011ef20:	48 8b 45 f8          	mov    -0x8(%rbp),%rax
ffff80000011ef24:	c7 40 0c 00 00 00 00 	movl   $0x0,0xc(%rax)
ffff80000011ef2b:	90                   	nop
ffff80000011ef2c:	c9                   	leaveq 
ffff80000011ef2d:	c3                   	retq   

ffff80000011ef2e <next_param>:
ffff80000011ef2e:	55                   	push   %rbp
ffff80000011ef2f:	48 89 e5             	mov    %rsp,%rbp
ffff80000011ef32:	48 83 ec 20          	sub    $0x20,%rsp
ffff80000011ef36:	48 89 7d e8          	mov    %rdi,-0x18(%rbp)
ffff80000011ef3a:	48 89 75 e0          	mov    %rsi,-0x20(%rbp)
ffff80000011ef3e:	48 8b 45 e8          	mov    -0x18(%rbp),%rax
ffff80000011ef42:	8b 50 08             	mov    0x8(%rax),%edx
ffff80000011ef45:	48 8b 45 e8          	mov    -0x18(%rbp),%rax
ffff80000011ef49:	8b 40 0c             	mov    0xc(%rax),%eax
ffff80000011ef4c:	39 c2                	cmp    %eax,%edx
ffff80000011ef4e:	7f 0a                	jg     ffff80000011ef5a <next_param+0x2c>
ffff80000011ef50:	b8 00 00 00 00       	mov    $0x0,%eax
ffff80000011ef55:	e9 9b 00 00 00       	jmpq   ffff80000011eff5 <next_param+0xc7>
ffff80000011ef5a:	48 8b 45 e8          	mov    -0x18(%rbp),%rax
ffff80000011ef5e:	8b 40 0c             	mov    0xc(%rax),%eax
ffff80000011ef61:	89 45 fc             	mov    %eax,-0x4(%rbp)
ffff80000011ef64:	eb 1a                	jmp    ffff80000011ef80 <next_param+0x52>
ffff80000011ef66:	48 8b 45 e8          	mov    -0x18(%rbp),%rax
ffff80000011ef6a:	48 8b 10             	mov    (%rax),%rdx
ffff80000011ef6d:	8b 45 fc             	mov    -0x4(%rbp),%eax
ffff80000011ef70:	48 98                	cltq   
ffff80000011ef72:	48 01 d0             	add    %rdx,%rax
ffff80000011ef75:	0f b6 00             	movzbl (%rax),%eax
ffff80000011ef78:	3c 20                	cmp    $0x20,%al
ffff80000011ef7a:	74 12                	je     ffff80000011ef8e <next_param+0x60>
ffff80000011ef7c:	83 45 fc 01          	addl   $0x1,-0x4(%rbp)
ffff80000011ef80:	48 8b 45 e8          	mov    -0x18(%rbp),%rax
ffff80000011ef84:	8b 40 08             	mov    0x8(%rax),%eax
ffff80000011ef87:	3b 45 fc             	cmp    -0x4(%rbp),%eax
ffff80000011ef8a:	7f da                	jg     ffff80000011ef66 <next_param+0x38>
ffff80000011ef8c:	eb 01                	jmp    ffff80000011ef8f <next_param+0x61>
ffff80000011ef8e:	90                   	nop
ffff80000011ef8f:	8b 55 fc             	mov    -0x4(%rbp),%edx
ffff80000011ef92:	48 8b 45 e8          	mov    -0x18(%rbp),%rax
ffff80000011ef96:	48 8b 08             	mov    (%rax),%rcx
ffff80000011ef99:	48 8b 45 e8          	mov    -0x18(%rbp),%rax
ffff80000011ef9d:	8b 40 0c             	mov    0xc(%rax),%eax
ffff80000011efa0:	48 98                	cltq   
ffff80000011efa2:	48 01 c1             	add    %rax,%rcx
ffff80000011efa5:	48 8b 45 e0          	mov    -0x20(%rbp),%rax
ffff80000011efa9:	48 89 ce             	mov    %rcx,%rsi
ffff80000011efac:	48 89 c7             	mov    %rax,%rdi
ffff80000011efaf:	48 b8 7e 00 12 00 00 	movabs $0xffff80000012007e,%rax
ffff80000011efb6:	80 ff ff 
ffff80000011efb9:	ff d0                	callq  *%rax
ffff80000011efbb:	48 8b 45 e8          	mov    -0x18(%rbp),%rax
ffff80000011efbf:	8b 40 0c             	mov    0xc(%rax),%eax
ffff80000011efc2:	8b 55 fc             	mov    -0x4(%rbp),%edx
ffff80000011efc5:	29 c2                	sub    %eax,%edx
ffff80000011efc7:	89 d0                	mov    %edx,%eax
ffff80000011efc9:	89 45 f8             	mov    %eax,-0x8(%rbp)
ffff80000011efcc:	8b 45 f8             	mov    -0x8(%rbp),%eax
ffff80000011efcf:	48 63 d0             	movslq %eax,%rdx
ffff80000011efd2:	48 8b 45 e0          	mov    -0x20(%rbp),%rax
ffff80000011efd6:	48 01 d0             	add    %rdx,%rax
ffff80000011efd9:	c6 00 00             	movb   $0x0,(%rax)
ffff80000011efdc:	48 8b 45 e8          	mov    -0x18(%rbp),%rax
ffff80000011efe0:	8b 40 0c             	mov    0xc(%rax),%eax
ffff80000011efe3:	8b 55 f8             	mov    -0x8(%rbp),%edx
ffff80000011efe6:	83 c2 01             	add    $0x1,%edx
ffff80000011efe9:	01 c2                	add    %eax,%edx
ffff80000011efeb:	48 8b 45 e8          	mov    -0x18(%rbp),%rax
ffff80000011efef:	89 50 0c             	mov    %edx,0xc(%rax)
ffff80000011eff2:	8b 45 f8             	mov    -0x8(%rbp),%eax
ffff80000011eff5:	c9                   	leaveq 
ffff80000011eff6:	c3                   	retq   

ffff80000011eff7 <print_task>:
ffff80000011eff7:	55                   	push   %rbp
ffff80000011eff8:	48 89 e5             	mov    %rsp,%rbp
ffff80000011effb:	48 83 ec 10          	sub    $0x10,%rsp
ffff80000011efff:	48 89 7d f8          	mov    %rdi,-0x8(%rbp)
ffff80000011f003:	48 83 7d f8 00       	cmpq   $0x0,-0x8(%rbp)
ffff80000011f008:	75 20                	jne    ffff80000011f02a <print_task+0x33>
ffff80000011f00a:	48 bf e8 14 12 00 00 	movabs $0xffff8000001214e8,%rdi
ffff80000011f011:	80 ff ff 
ffff80000011f014:	b8 00 00 00 00       	mov    $0x0,%eax
ffff80000011f019:	48 ba 32 f8 11 00 00 	movabs $0xffff80000011f832,%rdx
ffff80000011f020:	80 ff ff 
ffff80000011f023:	ff d2                	callq  *%rdx
ffff80000011f025:	e9 b6 00 00 00       	jmpq   ffff80000011f0e0 <print_task+0xe9>
ffff80000011f02a:	48 8b 45 f8          	mov    -0x8(%rbp),%rax
ffff80000011f02e:	0f b6 80 28 03 00 00 	movzbl 0x328(%rax),%eax
ffff80000011f035:	0f b6 f0             	movzbl %al,%esi
ffff80000011f038:	48 8b 45 f8          	mov    -0x8(%rbp),%rax
ffff80000011f03c:	48 8b 48 18          	mov    0x18(%rax),%rcx
ffff80000011f040:	48 8b 45 f8          	mov    -0x8(%rbp),%rax
ffff80000011f044:	48 8b 40 10          	mov    0x10(%rax),%rax
ffff80000011f048:	48 8b 50 08          	mov    0x8(%rax),%rdx
ffff80000011f04c:	48 8b 45 f8          	mov    -0x8(%rbp),%rax
ffff80000011f050:	48 8b 40 08          	mov    0x8(%rax),%rax
ffff80000011f054:	41 89 f0             	mov    %esi,%r8d
ffff80000011f057:	48 89 c6             	mov    %rax,%rsi
ffff80000011f05a:	48 bf f1 14 12 00 00 	movabs $0xffff8000001214f1,%rdi
ffff80000011f061:	80 ff ff 
ffff80000011f064:	b8 00 00 00 00       	mov    $0x0,%eax
ffff80000011f069:	49 b9 32 f8 11 00 00 	movabs $0xffff80000011f832,%r9
ffff80000011f070:	80 ff ff 
ffff80000011f073:	41 ff d1             	callq  *%r9
ffff80000011f076:	48 8b 45 f8          	mov    -0x8(%rbp),%rax
ffff80000011f07a:	48 8b 90 e0 00 00 00 	mov    0xe0(%rax),%rdx
ffff80000011f081:	48 8b 45 f8          	mov    -0x8(%rbp),%rax
ffff80000011f085:	48 8b 80 f8 02 00 00 	mov    0x2f8(%rax),%rax
ffff80000011f08c:	48 89 c6             	mov    %rax,%rsi
ffff80000011f08f:	48 bf fd 14 12 00 00 	movabs $0xffff8000001214fd,%rdi
ffff80000011f096:	80 ff ff 
ffff80000011f099:	b8 00 00 00 00       	mov    $0x0,%eax
ffff80000011f09e:	48 b9 32 f8 11 00 00 	movabs $0xffff80000011f832,%rcx
ffff80000011f0a5:	80 ff ff 
ffff80000011f0a8:	ff d1                	callq  *%rcx
ffff80000011f0aa:	48 8b 45 f8          	mov    -0x8(%rbp),%rax
ffff80000011f0ae:	48 8b 90 20 03 00 00 	mov    0x320(%rax),%rdx
ffff80000011f0b5:	48 8b 45 f8          	mov    -0x8(%rbp),%rax
ffff80000011f0b9:	0f b6 80 f0 00 00 00 	movzbl 0xf0(%rax),%eax
ffff80000011f0c0:	0f b6 c0             	movzbl %al,%eax
ffff80000011f0c3:	89 c6                	mov    %eax,%esi
ffff80000011f0c5:	48 bf 04 15 12 00 00 	movabs $0xffff800000121504,%rdi
ffff80000011f0cc:	80 ff ff 
ffff80000011f0cf:	b8 00 00 00 00       	mov    $0x0,%eax
ffff80000011f0d4:	48 b9 32 f8 11 00 00 	movabs $0xffff80000011f832,%rcx
ffff80000011f0db:	80 ff ff 
ffff80000011f0de:	ff d1                	callq  *%rcx
ffff80000011f0e0:	90                   	nop
ffff80000011f0e1:	c9                   	leaveq 
ffff80000011f0e2:	c3                   	retq   

ffff80000011f0e3 <cmd_ps>:
ffff80000011f0e3:	55                   	push   %rbp
ffff80000011f0e4:	48 89 e5             	mov    %rsp,%rbp
ffff80000011f0e7:	48 83 ec 20          	sub    $0x20,%rsp
ffff80000011f0eb:	48 89 7d e8          	mov    %rdi,-0x18(%rbp)
ffff80000011f0ef:	48 bf 10 15 12 00 00 	movabs $0xffff800000121510,%rdi
ffff80000011f0f6:	80 ff ff 
ffff80000011f0f9:	b8 00 00 00 00       	mov    $0x0,%eax
ffff80000011f0fe:	48 ba 32 f8 11 00 00 	movabs $0xffff80000011f832,%rdx
ffff80000011f105:	80 ff ff 
ffff80000011f108:	ff d2                	callq  *%rdx
ffff80000011f10a:	48 b8 e0 37 12 00 00 	movabs $0xffff8000001237e0,%rax
ffff80000011f111:	80 ff ff 
ffff80000011f114:	48 8b 40 08          	mov    0x8(%rax),%rax
ffff80000011f118:	48 89 c7             	mov    %rax,%rdi
ffff80000011f11b:	48 b8 f7 ef 11 00 00 	movabs $0xffff80000011eff7,%rax
ffff80000011f122:	80 ff ff 
ffff80000011f125:	ff d0                	callq  *%rax
ffff80000011f127:	48 bf 42 15 12 00 00 	movabs $0xffff800000121542,%rdi
ffff80000011f12e:	80 ff ff 
ffff80000011f131:	b8 00 00 00 00       	mov    $0x0,%eax
ffff80000011f136:	48 ba 32 f8 11 00 00 	movabs $0xffff80000011f832,%rdx
ffff80000011f13d:	80 ff ff 
ffff80000011f140:	ff d2                	callq  *%rdx
ffff80000011f142:	48 b8 e0 37 12 00 00 	movabs $0xffff8000001237e0,%rax
ffff80000011f149:	80 ff ff 
ffff80000011f14c:	48 8b 40 10          	mov    0x10(%rax),%rax
ffff80000011f150:	48 89 c7             	mov    %rax,%rdi
ffff80000011f153:	48 b8 f7 ef 11 00 00 	movabs $0xffff80000011eff7,%rax
ffff80000011f15a:	80 ff ff 
ffff80000011f15d:	ff d0                	callq  *%rax
ffff80000011f15f:	48 bf 4b 15 12 00 00 	movabs $0xffff80000012154b,%rdi
ffff80000011f166:	80 ff ff 
ffff80000011f169:	b8 00 00 00 00       	mov    $0x0,%eax
ffff80000011f16e:	48 ba 32 f8 11 00 00 	movabs $0xffff80000011f832,%rdx
ffff80000011f175:	80 ff ff 
ffff80000011f178:	ff d2                	callq  *%rdx
ffff80000011f17a:	48 b8 e0 37 12 00 00 	movabs $0xffff8000001237e0,%rax
ffff80000011f181:	80 ff ff 
ffff80000011f184:	48 8b 40 18          	mov    0x18(%rax),%rax
ffff80000011f188:	48 89 c7             	mov    %rax,%rdi
ffff80000011f18b:	48 b8 f7 ef 11 00 00 	movabs $0xffff80000011eff7,%rax
ffff80000011f192:	80 ff ff 
ffff80000011f195:	ff d0                	callq  *%rax
ffff80000011f197:	48 bf 54 15 12 00 00 	movabs $0xffff800000121554,%rdi
ffff80000011f19e:	80 ff ff 
ffff80000011f1a1:	b8 00 00 00 00       	mov    $0x0,%eax
ffff80000011f1a6:	48 ba 32 f8 11 00 00 	movabs $0xffff80000011f832,%rdx
ffff80000011f1ad:	80 ff ff 
ffff80000011f1b0:	ff d2                	callq  *%rdx
ffff80000011f1b2:	48 b8 e0 37 12 00 00 	movabs $0xffff8000001237e0,%rax
ffff80000011f1b9:	80 ff ff 
ffff80000011f1bc:	48 8b 40 20          	mov    0x20(%rax),%rax
ffff80000011f1c0:	48 89 c7             	mov    %rax,%rdi
ffff80000011f1c3:	48 b8 f7 ef 11 00 00 	movabs $0xffff80000011eff7,%rax
ffff80000011f1ca:	80 ff ff 
ffff80000011f1cd:	ff d0                	callq  *%rax
ffff80000011f1cf:	48 b8 e4 0c 12 00 00 	movabs $0xffff800000120ce4,%rax
ffff80000011f1d6:	80 ff ff 
ffff80000011f1d9:	ff d0                	callq  *%rax
ffff80000011f1db:	89 45 f0             	mov    %eax,-0x10(%rbp)
ffff80000011f1de:	83 7d f0 00          	cmpl   $0x0,-0x10(%rbp)
ffff80000011f1e2:	75 20                	jne    ffff80000011f204 <cmd_ps+0x121>
ffff80000011f1e4:	48 bf 5d 15 12 00 00 	movabs $0xffff80000012155d,%rdi
ffff80000011f1eb:	80 ff ff 
ffff80000011f1ee:	b8 00 00 00 00       	mov    $0x0,%eax
ffff80000011f1f3:	48 ba 32 f8 11 00 00 	movabs $0xffff80000011f832,%rdx
ffff80000011f1fa:	80 ff ff 
ffff80000011f1fd:	ff d2                	callq  *%rdx
ffff80000011f1ff:	e9 88 00 00 00       	jmpq   ffff80000011f28c <cmd_ps+0x1a9>
ffff80000011f204:	8b 45 f0             	mov    -0x10(%rbp),%eax
ffff80000011f207:	89 c6                	mov    %eax,%esi
ffff80000011f209:	48 bf 6c 15 12 00 00 	movabs $0xffff80000012156c,%rdi
ffff80000011f210:	80 ff ff 
ffff80000011f213:	b8 00 00 00 00       	mov    $0x0,%eax
ffff80000011f218:	48 ba 32 f8 11 00 00 	movabs $0xffff80000011f832,%rdx
ffff80000011f21f:	80 ff ff 
ffff80000011f222:	ff d2                	callq  *%rdx
ffff80000011f224:	48 b8 e0 37 12 00 00 	movabs $0xffff8000001237e0,%rax
ffff80000011f22b:	80 ff ff 
ffff80000011f22e:	48 8b 40 48          	mov    0x48(%rax),%rax
ffff80000011f232:	48 89 45 f8          	mov    %rax,-0x8(%rbp)
ffff80000011f236:	c7 45 f4 00 00 00 00 	movl   $0x0,-0xc(%rbp)
ffff80000011f23d:	eb 46                	jmp    ffff80000011f285 <cmd_ps+0x1a2>
ffff80000011f23f:	8b 45 f4             	mov    -0xc(%rbp),%eax
ffff80000011f242:	89 c6                	mov    %eax,%esi
ffff80000011f244:	48 bf 82 15 12 00 00 	movabs $0xffff800000121582,%rdi
ffff80000011f24b:	80 ff ff 
ffff80000011f24e:	b8 00 00 00 00       	mov    $0x0,%eax
ffff80000011f253:	48 ba 32 f8 11 00 00 	movabs $0xffff80000011f832,%rdx
ffff80000011f25a:	80 ff ff 
ffff80000011f25d:	ff d2                	callq  *%rdx
ffff80000011f25f:	48 8b 45 f8          	mov    -0x8(%rbp),%rax
ffff80000011f263:	48 8b 40 08          	mov    0x8(%rax),%rax
ffff80000011f267:	48 89 c7             	mov    %rax,%rdi
ffff80000011f26a:	48 b8 f7 ef 11 00 00 	movabs $0xffff80000011eff7,%rax
ffff80000011f271:	80 ff ff 
ffff80000011f274:	ff d0                	callq  *%rax
ffff80000011f276:	48 8b 45 f8          	mov    -0x8(%rbp),%rax
ffff80000011f27a:	48 8b 00             	mov    (%rax),%rax
ffff80000011f27d:	48 89 45 f8          	mov    %rax,-0x8(%rbp)
ffff80000011f281:	83 45 f4 01          	addl   $0x1,-0xc(%rbp)
ffff80000011f285:	48 83 7d f8 00       	cmpq   $0x0,-0x8(%rbp)
ffff80000011f28a:	75 b3                	jne    ffff80000011f23f <cmd_ps+0x15c>
ffff80000011f28c:	48 bf 90 15 12 00 00 	movabs $0xffff800000121590,%rdi
ffff80000011f293:	80 ff ff 
ffff80000011f296:	b8 00 00 00 00       	mov    $0x0,%eax
ffff80000011f29b:	48 ba 32 f8 11 00 00 	movabs $0xffff80000011f832,%rdx
ffff80000011f2a2:	80 ff ff 
ffff80000011f2a5:	ff d2                	callq  *%rdx
ffff80000011f2a7:	90                   	nop
ffff80000011f2a8:	c9                   	leaveq 
ffff80000011f2a9:	c3                   	retq   

ffff80000011f2aa <print_dec>:
ffff80000011f2aa:	55                   	push   %rbp
ffff80000011f2ab:	48 89 e5             	mov    %rsp,%rbp
ffff80000011f2ae:	48 89 7d c8          	mov    %rdi,-0x38(%rbp)
ffff80000011f2b2:	48 89 75 c0          	mov    %rsi,-0x40(%rbp)
ffff80000011f2b6:	48 89 55 b8          	mov    %rdx,-0x48(%rbp)
ffff80000011f2ba:	48 89 4d b0          	mov    %rcx,-0x50(%rbp)
ffff80000011f2be:	48 c7 45 f8 01 00 00 	movq   $0x1,-0x8(%rbp)
ffff80000011f2c5:	00 
ffff80000011f2c6:	48 c7 45 f0 09 00 00 	movq   $0x9,-0x10(%rbp)
ffff80000011f2cd:	00 
ffff80000011f2ce:	eb 1f                	jmp    ffff80000011f2ef <print_dec+0x45>
ffff80000011f2d0:	48 83 45 f8 01       	addq   $0x1,-0x8(%rbp)
ffff80000011f2d5:	48 8b 55 f0          	mov    -0x10(%rbp),%rdx
ffff80000011f2d9:	48 89 d0             	mov    %rdx,%rax
ffff80000011f2dc:	48 c1 e0 02          	shl    $0x2,%rax
ffff80000011f2e0:	48 01 d0             	add    %rdx,%rax
ffff80000011f2e3:	48 01 c0             	add    %rax,%rax
ffff80000011f2e6:	48 89 45 f0          	mov    %rax,-0x10(%rbp)
ffff80000011f2ea:	48 83 45 f0 09       	addq   $0x9,-0x10(%rbp)
ffff80000011f2ef:	48 8b 45 c8          	mov    -0x38(%rbp),%rax
ffff80000011f2f3:	48 3b 45 f0          	cmp    -0x10(%rbp),%rax
ffff80000011f2f7:	76 07                	jbe    ffff80000011f300 <print_dec+0x56>
ffff80000011f2f9:	48 83 7d f0 ff       	cmpq   $0xffffffffffffffff,-0x10(%rbp)
ffff80000011f2fe:	75 d0                	jne    ffff80000011f2d0 <print_dec+0x26>
ffff80000011f300:	c7 45 ec 00 00 00 00 	movl   $0x0,-0x14(%rbp)
ffff80000011f307:	eb 27                	jmp    ffff80000011f330 <print_dec+0x86>
ffff80000011f309:	48 8b 45 b0          	mov    -0x50(%rbp),%rax
ffff80000011f30d:	48 8b 10             	mov    (%rax),%rdx
ffff80000011f310:	48 8b 45 b8          	mov    -0x48(%rbp),%rax
ffff80000011f314:	48 01 d0             	add    %rdx,%rax
ffff80000011f317:	c6 00 30             	movb   $0x30,(%rax)
ffff80000011f31a:	48 8b 45 b0          	mov    -0x50(%rbp),%rax
ffff80000011f31e:	48 8b 00             	mov    (%rax),%rax
ffff80000011f321:	48 8d 50 01          	lea    0x1(%rax),%rdx
ffff80000011f325:	48 8b 45 b0          	mov    -0x50(%rbp),%rax
ffff80000011f329:	48 89 10             	mov    %rdx,(%rax)
ffff80000011f32c:	83 45 ec 01          	addl   $0x1,-0x14(%rbp)
ffff80000011f330:	8b 45 ec             	mov    -0x14(%rbp),%eax
ffff80000011f333:	48 63 d0             	movslq %eax,%rdx
ffff80000011f336:	48 8b 45 f8          	mov    -0x8(%rbp),%rax
ffff80000011f33a:	48 01 d0             	add    %rdx,%rax
ffff80000011f33d:	48 3b 45 c0          	cmp    -0x40(%rbp),%rax
ffff80000011f341:	72 c6                	jb     ffff80000011f309 <print_dec+0x5f>
ffff80000011f343:	48 8b 45 f8          	mov    -0x8(%rbp),%rax
ffff80000011f347:	48 89 45 f0          	mov    %rax,-0x10(%rbp)
ffff80000011f34b:	eb 7a                	jmp    ffff80000011f3c7 <print_dec+0x11d>
ffff80000011f34d:	48 8b 45 c8          	mov    -0x38(%rbp),%rax
ffff80000011f351:	48 ba cd cc cc cc cc 	movabs $0xcccccccccccccccd,%rdx
ffff80000011f358:	cc cc cc 
ffff80000011f35b:	48 f7 e2             	mul    %rdx
ffff80000011f35e:	48 89 d0             	mov    %rdx,%rax
ffff80000011f361:	48 c1 e8 03          	shr    $0x3,%rax
ffff80000011f365:	48 89 45 e0          	mov    %rax,-0x20(%rbp)
ffff80000011f369:	48 8b 4d c8          	mov    -0x38(%rbp),%rcx
ffff80000011f36d:	48 ba cd cc cc cc cc 	movabs $0xcccccccccccccccd,%rdx
ffff80000011f374:	cc cc cc 
ffff80000011f377:	48 89 c8             	mov    %rcx,%rax
ffff80000011f37a:	48 f7 e2             	mul    %rdx
ffff80000011f37d:	48 c1 ea 03          	shr    $0x3,%rdx
ffff80000011f381:	48 89 d0             	mov    %rdx,%rax
ffff80000011f384:	48 c1 e0 02          	shl    $0x2,%rax
ffff80000011f388:	48 01 d0             	add    %rdx,%rax
ffff80000011f38b:	48 01 c0             	add    %rax,%rax
ffff80000011f38e:	48 29 c1             	sub    %rax,%rcx
ffff80000011f391:	48 89 c8             	mov    %rcx,%rax
ffff80000011f394:	48 89 45 d8          	mov    %rax,-0x28(%rbp)
ffff80000011f398:	48 8b 45 b0          	mov    -0x50(%rbp),%rax
ffff80000011f39c:	48 8b 10             	mov    (%rax),%rdx
ffff80000011f39f:	48 8b 45 f0          	mov    -0x10(%rbp),%rax
ffff80000011f3a3:	48 01 d0             	add    %rdx,%rax
ffff80000011f3a6:	48 8d 50 ff          	lea    -0x1(%rax),%rdx
ffff80000011f3aa:	48 8b 45 b8          	mov    -0x48(%rbp),%rax
ffff80000011f3ae:	48 01 d0             	add    %rdx,%rax
ffff80000011f3b1:	48 8b 55 d8          	mov    -0x28(%rbp),%rdx
ffff80000011f3b5:	83 c2 30             	add    $0x30,%edx
ffff80000011f3b8:	88 10                	mov    %dl,(%rax)
ffff80000011f3ba:	48 83 6d f0 01       	subq   $0x1,-0x10(%rbp)
ffff80000011f3bf:	48 8b 45 e0          	mov    -0x20(%rbp),%rax
ffff80000011f3c3:	48 89 45 c8          	mov    %rax,-0x38(%rbp)
ffff80000011f3c7:	48 83 7d f0 00       	cmpq   $0x0,-0x10(%rbp)
ffff80000011f3cc:	0f 85 7b ff ff ff    	jne    ffff80000011f34d <print_dec+0xa3>
ffff80000011f3d2:	48 8b 45 b0          	mov    -0x50(%rbp),%rax
ffff80000011f3d6:	48 8b 10             	mov    (%rax),%rdx
ffff80000011f3d9:	48 8b 45 f8          	mov    -0x8(%rbp),%rax
ffff80000011f3dd:	48 01 c2             	add    %rax,%rdx
ffff80000011f3e0:	48 8b 45 b0          	mov    -0x50(%rbp),%rax
ffff80000011f3e4:	48 89 10             	mov    %rdx,(%rax)
ffff80000011f3e7:	90                   	nop
ffff80000011f3e8:	5d                   	pop    %rbp
ffff80000011f3e9:	c3                   	retq   

ffff80000011f3ea <print_hex>:
ffff80000011f3ea:	55                   	push   %rbp
ffff80000011f3eb:	48 89 e5             	mov    %rsp,%rbp
ffff80000011f3ee:	48 89 7d d8          	mov    %rdi,-0x28(%rbp)
ffff80000011f3f2:	48 89 75 d0          	mov    %rsi,-0x30(%rbp)
ffff80000011f3f6:	48 89 55 c8          	mov    %rdx,-0x38(%rbp)
ffff80000011f3fa:	48 89 4d c0          	mov    %rcx,-0x40(%rbp)
ffff80000011f3fe:	48 8b 45 d0          	mov    -0x30(%rbp),%rax
ffff80000011f402:	48 89 45 f8          	mov    %rax,-0x8(%rbp)
ffff80000011f406:	48 83 7d f8 00       	cmpq   $0x0,-0x8(%rbp)
ffff80000011f40b:	75 08                	jne    ffff80000011f415 <print_hex+0x2b>
ffff80000011f40d:	48 c7 45 f8 10 00 00 	movq   $0x10,-0x8(%rbp)
ffff80000011f414:	00 
ffff80000011f415:	48 c7 45 f0 01 00 00 	movq   $0x1,-0x10(%rbp)
ffff80000011f41c:	00 
ffff80000011f41d:	48 c7 45 e8 0f 00 00 	movq   $0xf,-0x18(%rbp)
ffff80000011f424:	00 
ffff80000011f425:	eb 0f                	jmp    ffff80000011f436 <print_hex+0x4c>
ffff80000011f427:	48 83 45 f0 01       	addq   $0x1,-0x10(%rbp)
ffff80000011f42c:	48 c1 65 e8 04       	shlq   $0x4,-0x18(%rbp)
ffff80000011f431:	48 83 45 e8 0f       	addq   $0xf,-0x18(%rbp)
ffff80000011f436:	48 8b 45 d8          	mov    -0x28(%rbp),%rax
ffff80000011f43a:	48 3b 45 e8          	cmp    -0x18(%rbp),%rax
ffff80000011f43e:	76 31                	jbe    ffff80000011f471 <print_hex+0x87>
ffff80000011f440:	48 83 7d e8 ff       	cmpq   $0xffffffffffffffff,-0x18(%rbp)
ffff80000011f445:	75 e0                	jne    ffff80000011f427 <print_hex+0x3d>
ffff80000011f447:	eb 28                	jmp    ffff80000011f471 <print_hex+0x87>
ffff80000011f449:	48 8b 45 c0          	mov    -0x40(%rbp),%rax
ffff80000011f44d:	48 8b 10             	mov    (%rax),%rdx
ffff80000011f450:	48 8b 45 c8          	mov    -0x38(%rbp),%rax
ffff80000011f454:	48 01 d0             	add    %rdx,%rax
ffff80000011f457:	c6 00 30             	movb   $0x30,(%rax)
ffff80000011f45a:	48 8b 45 c0          	mov    -0x40(%rbp),%rax
ffff80000011f45e:	48 8b 00             	mov    (%rax),%rax
ffff80000011f461:	48 8d 50 01          	lea    0x1(%rax),%rdx
ffff80000011f465:	48 8b 45 c0          	mov    -0x40(%rbp),%rax
ffff80000011f469:	48 89 10             	mov    %rdx,(%rax)
ffff80000011f46c:	48 83 6d f8 01       	subq   $0x1,-0x8(%rbp)
ffff80000011f471:	48 8b 45 f8          	mov    -0x8(%rbp),%rax
ffff80000011f475:	48 3b 45 f0          	cmp    -0x10(%rbp),%rax
ffff80000011f479:	77 ce                	ja     ffff80000011f449 <print_hex+0x5f>
ffff80000011f47b:	48 8b 45 f0          	mov    -0x10(%rbp),%rax
ffff80000011f47f:	48 89 45 f8          	mov    %rax,-0x8(%rbp)
ffff80000011f483:	eb 49                	jmp    ffff80000011f4ce <print_hex+0xe4>
ffff80000011f485:	48 8b 45 c0          	mov    -0x40(%rbp),%rax
ffff80000011f489:	48 8b 10             	mov    (%rax),%rdx
ffff80000011f48c:	48 8b 45 c8          	mov    -0x38(%rbp),%rax
ffff80000011f490:	48 01 c2             	add    %rax,%rdx
ffff80000011f493:	48 8b 45 f8          	mov    -0x8(%rbp),%rax
ffff80000011f497:	c1 e0 02             	shl    $0x2,%eax
ffff80000011f49a:	48 8b 75 d8          	mov    -0x28(%rbp),%rsi
ffff80000011f49e:	89 c1                	mov    %eax,%ecx
ffff80000011f4a0:	48 d3 ee             	shr    %cl,%rsi
ffff80000011f4a3:	48 89 f0             	mov    %rsi,%rax
ffff80000011f4a6:	83 e0 0f             	and    $0xf,%eax
ffff80000011f4a9:	48 89 c1             	mov    %rax,%rcx
ffff80000011f4ac:	48 b8 b9 15 12 00 00 	movabs $0xffff8000001215b9,%rax
ffff80000011f4b3:	80 ff ff 
ffff80000011f4b6:	0f b6 04 08          	movzbl (%rax,%rcx,1),%eax
ffff80000011f4ba:	88 02                	mov    %al,(%rdx)
ffff80000011f4bc:	48 8b 45 c0          	mov    -0x40(%rbp),%rax
ffff80000011f4c0:	48 8b 00             	mov    (%rax),%rax
ffff80000011f4c3:	48 8d 50 01          	lea    0x1(%rax),%rdx
ffff80000011f4c7:	48 8b 45 c0          	mov    -0x40(%rbp),%rax
ffff80000011f4cb:	48 89 10             	mov    %rdx,(%rax)
ffff80000011f4ce:	48 8b 45 f8          	mov    -0x8(%rbp),%rax
ffff80000011f4d2:	48 8d 50 ff          	lea    -0x1(%rax),%rdx
ffff80000011f4d6:	48 89 55 f8          	mov    %rdx,-0x8(%rbp)
ffff80000011f4da:	48 85 c0             	test   %rax,%rax
ffff80000011f4dd:	75 a6                	jne    ffff80000011f485 <print_hex+0x9b>
ffff80000011f4df:	90                   	nop
ffff80000011f4e0:	5d                   	pop    %rbp
ffff80000011f4e1:	c3                   	retq   

ffff80000011f4e2 <vasprintf>:
ffff80000011f4e2:	55                   	push   %rbp
ffff80000011f4e3:	48 89 e5             	mov    %rsp,%rbp
ffff80000011f4e6:	48 83 ec 50          	sub    $0x50,%rsp
ffff80000011f4ea:	48 89 7d c8          	mov    %rdi,-0x38(%rbp)
ffff80000011f4ee:	48 89 75 c0          	mov    %rsi,-0x40(%rbp)
ffff80000011f4f2:	48 89 55 b8          	mov    %rdx,-0x48(%rbp)
ffff80000011f4f6:	48 c7 45 f8 00 00 00 	movq   $0x0,-0x8(%rbp)
ffff80000011f4fd:	00 
ffff80000011f4fe:	48 c7 45 d8 00 00 00 	movq   $0x0,-0x28(%rbp)
ffff80000011f505:	00 
ffff80000011f506:	48 8b 45 c0          	mov    -0x40(%rbp),%rax
ffff80000011f50a:	48 89 c7             	mov    %rax,%rdi
ffff80000011f50d:	b8 00 00 00 00       	mov    $0x0,%eax
ffff80000011f512:	48 ba cc 02 12 00 00 	movabs $0xffff8000001202cc,%rdx
ffff80000011f519:	80 ff ff 
ffff80000011f51c:	ff d2                	callq  *%rdx
ffff80000011f51e:	48 98                	cltq   
ffff80000011f520:	48 89 45 e0          	mov    %rax,-0x20(%rbp)
ffff80000011f524:	e9 d5 02 00 00       	jmpq   ffff80000011f7fe <vasprintf+0x31c>
ffff80000011f529:	48 8b 55 c0          	mov    -0x40(%rbp),%rdx
ffff80000011f52d:	48 8b 45 f8          	mov    -0x8(%rbp),%rax
ffff80000011f531:	48 01 d0             	add    %rdx,%rax
ffff80000011f534:	0f b6 00             	movzbl (%rax),%eax
ffff80000011f537:	3c 25                	cmp    $0x25,%al
ffff80000011f539:	74 28                	je     ffff80000011f563 <vasprintf+0x81>
ffff80000011f53b:	48 8b 45 d8          	mov    -0x28(%rbp),%rax
ffff80000011f53f:	48 8d 50 01          	lea    0x1(%rax),%rdx
ffff80000011f543:	48 89 55 d8          	mov    %rdx,-0x28(%rbp)
ffff80000011f547:	48 8b 55 c8          	mov    -0x38(%rbp),%rdx
ffff80000011f54b:	48 01 c2             	add    %rax,%rdx
ffff80000011f54e:	48 8b 4d c0          	mov    -0x40(%rbp),%rcx
ffff80000011f552:	48 8b 45 f8          	mov    -0x8(%rbp),%rax
ffff80000011f556:	48 01 c8             	add    %rcx,%rax
ffff80000011f559:	0f b6 00             	movzbl (%rax),%eax
ffff80000011f55c:	88 02                	mov    %al,(%rdx)
ffff80000011f55e:	e9 96 02 00 00       	jmpq   ffff80000011f7f9 <vasprintf+0x317>
ffff80000011f563:	48 83 45 f8 01       	addq   $0x1,-0x8(%rbp)
ffff80000011f568:	48 c7 45 e8 00 00 00 	movq   $0x0,-0x18(%rbp)
ffff80000011f56f:	00 
ffff80000011f570:	eb 34                	jmp    ffff80000011f5a6 <vasprintf+0xc4>
ffff80000011f572:	48 8b 55 e8          	mov    -0x18(%rbp),%rdx
ffff80000011f576:	48 89 d0             	mov    %rdx,%rax
ffff80000011f579:	48 c1 e0 02          	shl    $0x2,%rax
ffff80000011f57d:	48 01 d0             	add    %rdx,%rax
ffff80000011f580:	48 01 c0             	add    %rax,%rax
ffff80000011f583:	48 89 45 e8          	mov    %rax,-0x18(%rbp)
ffff80000011f587:	48 8b 55 c0          	mov    -0x40(%rbp),%rdx
ffff80000011f58b:	48 8b 45 f8          	mov    -0x8(%rbp),%rax
ffff80000011f58f:	48 01 d0             	add    %rdx,%rax
ffff80000011f592:	0f b6 00             	movzbl (%rax),%eax
ffff80000011f595:	0f be c0             	movsbl %al,%eax
ffff80000011f598:	83 e8 30             	sub    $0x30,%eax
ffff80000011f59b:	48 98                	cltq   
ffff80000011f59d:	48 01 45 e8          	add    %rax,-0x18(%rbp)
ffff80000011f5a1:	48 83 45 f8 01       	addq   $0x1,-0x8(%rbp)
ffff80000011f5a6:	48 8b 55 c0          	mov    -0x40(%rbp),%rdx
ffff80000011f5aa:	48 8b 45 f8          	mov    -0x8(%rbp),%rax
ffff80000011f5ae:	48 01 d0             	add    %rdx,%rax
ffff80000011f5b1:	0f b6 00             	movzbl (%rax),%eax
ffff80000011f5b4:	3c 2f                	cmp    $0x2f,%al
ffff80000011f5b6:	7e 12                	jle    ffff80000011f5ca <vasprintf+0xe8>
ffff80000011f5b8:	48 8b 55 c0          	mov    -0x40(%rbp),%rdx
ffff80000011f5bc:	48 8b 45 f8          	mov    -0x8(%rbp),%rax
ffff80000011f5c0:	48 01 d0             	add    %rdx,%rax
ffff80000011f5c3:	0f b6 00             	movzbl (%rax),%eax
ffff80000011f5c6:	3c 39                	cmp    $0x39,%al
ffff80000011f5c8:	7e a8                	jle    ffff80000011f572 <vasprintf+0x90>
ffff80000011f5ca:	48 8b 55 c0          	mov    -0x40(%rbp),%rdx
ffff80000011f5ce:	48 8b 45 f8          	mov    -0x8(%rbp),%rax
ffff80000011f5d2:	48 01 d0             	add    %rdx,%rax
ffff80000011f5d5:	0f b6 00             	movzbl (%rax),%eax
ffff80000011f5d8:	0f be c0             	movsbl %al,%eax
ffff80000011f5db:	83 f8 64             	cmp    $0x64,%eax
ffff80000011f5de:	0f 84 76 01 00 00    	je     ffff80000011f75a <vasprintf+0x278>
ffff80000011f5e4:	83 f8 64             	cmp    $0x64,%eax
ffff80000011f5e7:	7f 17                	jg     ffff80000011f600 <vasprintf+0x11e>
ffff80000011f5e9:	83 f8 25             	cmp    $0x25,%eax
ffff80000011f5ec:	0f 84 cb 01 00 00    	je     ffff80000011f7bd <vasprintf+0x2db>
ffff80000011f5f2:	83 f8 63             	cmp    $0x63,%eax
ffff80000011f5f5:	0f 84 99 00 00 00    	je     ffff80000011f694 <vasprintf+0x1b2>
ffff80000011f5fb:	e9 d5 01 00 00       	jmpq   ffff80000011f7d5 <vasprintf+0x2f3>
ffff80000011f600:	83 f8 73             	cmp    $0x73,%eax
ffff80000011f603:	74 0e                	je     ffff80000011f613 <vasprintf+0x131>
ffff80000011f605:	83 f8 78             	cmp    $0x78,%eax
ffff80000011f608:	0f 84 e6 00 00 00    	je     ffff80000011f6f4 <vasprintf+0x212>
ffff80000011f60e:	e9 c2 01 00 00       	jmpq   ffff80000011f7d5 <vasprintf+0x2f3>
ffff80000011f613:	48 8b 45 b8          	mov    -0x48(%rbp),%rax
ffff80000011f617:	8b 00                	mov    (%rax),%eax
ffff80000011f619:	83 f8 2f             	cmp    $0x2f,%eax
ffff80000011f61c:	77 24                	ja     ffff80000011f642 <vasprintf+0x160>
ffff80000011f61e:	48 8b 45 b8          	mov    -0x48(%rbp),%rax
ffff80000011f622:	48 8b 50 10          	mov    0x10(%rax),%rdx
ffff80000011f626:	48 8b 45 b8          	mov    -0x48(%rbp),%rax
ffff80000011f62a:	8b 00                	mov    (%rax),%eax
ffff80000011f62c:	89 c0                	mov    %eax,%eax
ffff80000011f62e:	48 01 d0             	add    %rdx,%rax
ffff80000011f631:	48 8b 55 b8          	mov    -0x48(%rbp),%rdx
ffff80000011f635:	8b 12                	mov    (%rdx),%edx
ffff80000011f637:	8d 4a 08             	lea    0x8(%rdx),%ecx
ffff80000011f63a:	48 8b 55 b8          	mov    -0x48(%rbp),%rdx
ffff80000011f63e:	89 0a                	mov    %ecx,(%rdx)
ffff80000011f640:	eb 14                	jmp    ffff80000011f656 <vasprintf+0x174>
ffff80000011f642:	48 8b 45 b8          	mov    -0x48(%rbp),%rax
ffff80000011f646:	48 8b 40 08          	mov    0x8(%rax),%rax
ffff80000011f64a:	48 8d 48 08          	lea    0x8(%rax),%rcx
ffff80000011f64e:	48 8b 55 b8          	mov    -0x48(%rbp),%rdx
ffff80000011f652:	48 89 4a 08          	mov    %rcx,0x8(%rdx)
ffff80000011f656:	48 8b 00             	mov    (%rax),%rax
ffff80000011f659:	48 89 45 f0          	mov    %rax,-0x10(%rbp)
ffff80000011f65d:	eb 25                	jmp    ffff80000011f684 <vasprintf+0x1a2>
ffff80000011f65f:	48 8b 45 d8          	mov    -0x28(%rbp),%rax
ffff80000011f663:	48 8d 50 01          	lea    0x1(%rax),%rdx
ffff80000011f667:	48 89 55 d8          	mov    %rdx,-0x28(%rbp)
ffff80000011f66b:	48 8b 55 c8          	mov    -0x38(%rbp),%rdx
ffff80000011f66f:	48 8d 0c 10          	lea    (%rax,%rdx,1),%rcx
ffff80000011f673:	48 8b 45 f0          	mov    -0x10(%rbp),%rax
ffff80000011f677:	48 8d 50 01          	lea    0x1(%rax),%rdx
ffff80000011f67b:	48 89 55 f0          	mov    %rdx,-0x10(%rbp)
ffff80000011f67f:	0f b6 00             	movzbl (%rax),%eax
ffff80000011f682:	88 01                	mov    %al,(%rcx)
ffff80000011f684:	48 8b 45 f0          	mov    -0x10(%rbp),%rax
ffff80000011f688:	0f b6 00             	movzbl (%rax),%eax
ffff80000011f68b:	84 c0                	test   %al,%al
ffff80000011f68d:	75 d0                	jne    ffff80000011f65f <vasprintf+0x17d>
ffff80000011f68f:	e9 65 01 00 00       	jmpq   ffff80000011f7f9 <vasprintf+0x317>
ffff80000011f694:	48 8b 45 d8          	mov    -0x28(%rbp),%rax
ffff80000011f698:	48 8d 50 01          	lea    0x1(%rax),%rdx
ffff80000011f69c:	48 89 55 d8          	mov    %rdx,-0x28(%rbp)
ffff80000011f6a0:	48 8b 55 c8          	mov    -0x38(%rbp),%rdx
ffff80000011f6a4:	48 8d 34 10          	lea    (%rax,%rdx,1),%rsi
ffff80000011f6a8:	48 8b 45 b8          	mov    -0x48(%rbp),%rax
ffff80000011f6ac:	8b 00                	mov    (%rax),%eax
ffff80000011f6ae:	83 f8 2f             	cmp    $0x2f,%eax
ffff80000011f6b1:	77 24                	ja     ffff80000011f6d7 <vasprintf+0x1f5>
ffff80000011f6b3:	48 8b 45 b8          	mov    -0x48(%rbp),%rax
ffff80000011f6b7:	48 8b 50 10          	mov    0x10(%rax),%rdx
ffff80000011f6bb:	48 8b 45 b8          	mov    -0x48(%rbp),%rax
ffff80000011f6bf:	8b 00                	mov    (%rax),%eax
ffff80000011f6c1:	89 c0                	mov    %eax,%eax
ffff80000011f6c3:	48 01 d0             	add    %rdx,%rax
ffff80000011f6c6:	48 8b 55 b8          	mov    -0x48(%rbp),%rdx
ffff80000011f6ca:	8b 12                	mov    (%rdx),%edx
ffff80000011f6cc:	8d 4a 08             	lea    0x8(%rdx),%ecx
ffff80000011f6cf:	48 8b 55 b8          	mov    -0x48(%rbp),%rdx
ffff80000011f6d3:	89 0a                	mov    %ecx,(%rdx)
ffff80000011f6d5:	eb 14                	jmp    ffff80000011f6eb <vasprintf+0x209>
ffff80000011f6d7:	48 8b 45 b8          	mov    -0x48(%rbp),%rax
ffff80000011f6db:	48 8b 40 08          	mov    0x8(%rax),%rax
ffff80000011f6df:	48 8d 48 08          	lea    0x8(%rax),%rcx
ffff80000011f6e3:	48 8b 55 b8          	mov    -0x48(%rbp),%rdx
ffff80000011f6e7:	48 89 4a 08          	mov    %rcx,0x8(%rdx)
ffff80000011f6eb:	8b 00                	mov    (%rax),%eax
ffff80000011f6ed:	88 06                	mov    %al,(%rsi)
ffff80000011f6ef:	e9 05 01 00 00       	jmpq   ffff80000011f7f9 <vasprintf+0x317>
ffff80000011f6f4:	48 8b 45 b8          	mov    -0x48(%rbp),%rax
ffff80000011f6f8:	8b 00                	mov    (%rax),%eax
ffff80000011f6fa:	83 f8 2f             	cmp    $0x2f,%eax
ffff80000011f6fd:	77 24                	ja     ffff80000011f723 <vasprintf+0x241>
ffff80000011f6ff:	48 8b 45 b8          	mov    -0x48(%rbp),%rax
ffff80000011f703:	48 8b 50 10          	mov    0x10(%rax),%rdx
ffff80000011f707:	48 8b 45 b8          	mov    -0x48(%rbp),%rax
ffff80000011f70b:	8b 00                	mov    (%rax),%eax
ffff80000011f70d:	89 c0                	mov    %eax,%eax
ffff80000011f70f:	48 01 d0             	add    %rdx,%rax
ffff80000011f712:	48 8b 55 b8          	mov    -0x48(%rbp),%rdx
ffff80000011f716:	8b 12                	mov    (%rdx),%edx
ffff80000011f718:	8d 4a 08             	lea    0x8(%rdx),%ecx
ffff80000011f71b:	48 8b 55 b8          	mov    -0x48(%rbp),%rdx
ffff80000011f71f:	89 0a                	mov    %ecx,(%rdx)
ffff80000011f721:	eb 14                	jmp    ffff80000011f737 <vasprintf+0x255>
ffff80000011f723:	48 8b 45 b8          	mov    -0x48(%rbp),%rax
ffff80000011f727:	48 8b 40 08          	mov    0x8(%rax),%rax
ffff80000011f72b:	48 8d 48 08          	lea    0x8(%rax),%rcx
ffff80000011f72f:	48 8b 55 b8          	mov    -0x48(%rbp),%rdx
ffff80000011f733:	48 89 4a 08          	mov    %rcx,0x8(%rdx)
ffff80000011f737:	48 8b 00             	mov    (%rax),%rax
ffff80000011f73a:	48 8d 4d d8          	lea    -0x28(%rbp),%rcx
ffff80000011f73e:	48 8b 55 c8          	mov    -0x38(%rbp),%rdx
ffff80000011f742:	48 8b 75 e8          	mov    -0x18(%rbp),%rsi
ffff80000011f746:	48 89 c7             	mov    %rax,%rdi
ffff80000011f749:	48 b8 ea f3 11 00 00 	movabs $0xffff80000011f3ea,%rax
ffff80000011f750:	80 ff ff 
ffff80000011f753:	ff d0                	callq  *%rax
ffff80000011f755:	e9 9f 00 00 00       	jmpq   ffff80000011f7f9 <vasprintf+0x317>
ffff80000011f75a:	48 8b 45 b8          	mov    -0x48(%rbp),%rax
ffff80000011f75e:	8b 00                	mov    (%rax),%eax
ffff80000011f760:	83 f8 2f             	cmp    $0x2f,%eax
ffff80000011f763:	77 24                	ja     ffff80000011f789 <vasprintf+0x2a7>
ffff80000011f765:	48 8b 45 b8          	mov    -0x48(%rbp),%rax
ffff80000011f769:	48 8b 50 10          	mov    0x10(%rax),%rdx
ffff80000011f76d:	48 8b 45 b8          	mov    -0x48(%rbp),%rax
ffff80000011f771:	8b 00                	mov    (%rax),%eax
ffff80000011f773:	89 c0                	mov    %eax,%eax
ffff80000011f775:	48 01 d0             	add    %rdx,%rax
ffff80000011f778:	48 8b 55 b8          	mov    -0x48(%rbp),%rdx
ffff80000011f77c:	8b 12                	mov    (%rdx),%edx
ffff80000011f77e:	8d 4a 08             	lea    0x8(%rdx),%ecx
ffff80000011f781:	48 8b 55 b8          	mov    -0x48(%rbp),%rdx
ffff80000011f785:	89 0a                	mov    %ecx,(%rdx)
ffff80000011f787:	eb 14                	jmp    ffff80000011f79d <vasprintf+0x2bb>
ffff80000011f789:	48 8b 45 b8          	mov    -0x48(%rbp),%rax
ffff80000011f78d:	48 8b 40 08          	mov    0x8(%rax),%rax
ffff80000011f791:	48 8d 48 08          	lea    0x8(%rax),%rcx
ffff80000011f795:	48 8b 55 b8          	mov    -0x48(%rbp),%rdx
ffff80000011f799:	48 89 4a 08          	mov    %rcx,0x8(%rdx)
ffff80000011f79d:	48 8b 00             	mov    (%rax),%rax
ffff80000011f7a0:	48 8d 4d d8          	lea    -0x28(%rbp),%rcx
ffff80000011f7a4:	48 8b 55 c8          	mov    -0x38(%rbp),%rdx
ffff80000011f7a8:	48 8b 75 e8          	mov    -0x18(%rbp),%rsi
ffff80000011f7ac:	48 89 c7             	mov    %rax,%rdi
ffff80000011f7af:	48 b8 aa f2 11 00 00 	movabs $0xffff80000011f2aa,%rax
ffff80000011f7b6:	80 ff ff 
ffff80000011f7b9:	ff d0                	callq  *%rax
ffff80000011f7bb:	eb 3c                	jmp    ffff80000011f7f9 <vasprintf+0x317>
ffff80000011f7bd:	48 8b 45 d8          	mov    -0x28(%rbp),%rax
ffff80000011f7c1:	48 8d 50 01          	lea    0x1(%rax),%rdx
ffff80000011f7c5:	48 89 55 d8          	mov    %rdx,-0x28(%rbp)
ffff80000011f7c9:	48 8b 55 c8          	mov    -0x38(%rbp),%rdx
ffff80000011f7cd:	48 01 d0             	add    %rdx,%rax
ffff80000011f7d0:	c6 00 25             	movb   $0x25,(%rax)
ffff80000011f7d3:	eb 24                	jmp    ffff80000011f7f9 <vasprintf+0x317>
ffff80000011f7d5:	48 8b 45 d8          	mov    -0x28(%rbp),%rax
ffff80000011f7d9:	48 8d 50 01          	lea    0x1(%rax),%rdx
ffff80000011f7dd:	48 89 55 d8          	mov    %rdx,-0x28(%rbp)
ffff80000011f7e1:	48 8b 55 c8          	mov    -0x38(%rbp),%rdx
ffff80000011f7e5:	48 01 c2             	add    %rax,%rdx
ffff80000011f7e8:	48 8b 4d c0          	mov    -0x40(%rbp),%rcx
ffff80000011f7ec:	48 8b 45 f8          	mov    -0x8(%rbp),%rax
ffff80000011f7f0:	48 01 c8             	add    %rcx,%rax
ffff80000011f7f3:	0f b6 00             	movzbl (%rax),%eax
ffff80000011f7f6:	88 02                	mov    %al,(%rdx)
ffff80000011f7f8:	90                   	nop
ffff80000011f7f9:	48 83 45 f8 01       	addq   $0x1,-0x8(%rbp)
ffff80000011f7fe:	48 8b 45 f8          	mov    -0x8(%rbp),%rax
ffff80000011f802:	48 3b 45 e0          	cmp    -0x20(%rbp),%rax
ffff80000011f806:	73 16                	jae    ffff80000011f81e <vasprintf+0x33c>
ffff80000011f808:	48 8b 55 c0          	mov    -0x40(%rbp),%rdx
ffff80000011f80c:	48 8b 45 f8          	mov    -0x8(%rbp),%rax
ffff80000011f810:	48 01 d0             	add    %rdx,%rax
ffff80000011f813:	0f b6 00             	movzbl (%rax),%eax
ffff80000011f816:	84 c0                	test   %al,%al
ffff80000011f818:	0f 85 0b fd ff ff    	jne    ffff80000011f529 <vasprintf+0x47>
ffff80000011f81e:	48 8b 55 d8          	mov    -0x28(%rbp),%rdx
ffff80000011f822:	48 8b 45 c8          	mov    -0x38(%rbp),%rax
ffff80000011f826:	48 01 d0             	add    %rdx,%rax
ffff80000011f829:	c6 00 00             	movb   $0x0,(%rax)
ffff80000011f82c:	48 8b 45 d8          	mov    -0x28(%rbp),%rax
ffff80000011f830:	c9                   	leaveq 
ffff80000011f831:	c3                   	retq   

ffff80000011f832 <printk>:
ffff80000011f832:	55                   	push   %rbp
ffff80000011f833:	48 89 e5             	mov    %rsp,%rbp
ffff80000011f836:	48 81 ec e0 04 00 00 	sub    $0x4e0,%rsp
ffff80000011f83d:	48 89 bd 28 fb ff ff 	mov    %rdi,-0x4d8(%rbp)
ffff80000011f844:	48 89 b5 58 ff ff ff 	mov    %rsi,-0xa8(%rbp)
ffff80000011f84b:	48 89 95 60 ff ff ff 	mov    %rdx,-0xa0(%rbp)
ffff80000011f852:	48 89 8d 68 ff ff ff 	mov    %rcx,-0x98(%rbp)
ffff80000011f859:	4c 89 85 70 ff ff ff 	mov    %r8,-0x90(%rbp)
ffff80000011f860:	4c 89 8d 78 ff ff ff 	mov    %r9,-0x88(%rbp)
ffff80000011f867:	84 c0                	test   %al,%al
ffff80000011f869:	74 20                	je     ffff80000011f88b <printk+0x59>
ffff80000011f86b:	0f 29 45 80          	movaps %xmm0,-0x80(%rbp)
ffff80000011f86f:	0f 29 4d 90          	movaps %xmm1,-0x70(%rbp)
ffff80000011f873:	0f 29 55 a0          	movaps %xmm2,-0x60(%rbp)
ffff80000011f877:	0f 29 5d b0          	movaps %xmm3,-0x50(%rbp)
ffff80000011f87b:	0f 29 65 c0          	movaps %xmm4,-0x40(%rbp)
ffff80000011f87f:	0f 29 6d d0          	movaps %xmm5,-0x30(%rbp)
ffff80000011f883:	0f 29 75 e0          	movaps %xmm6,-0x20(%rbp)
ffff80000011f887:	0f 29 7d f0          	movaps %xmm7,-0x10(%rbp)
ffff80000011f88b:	c7 85 30 ff ff ff 08 	movl   $0x8,-0xd0(%rbp)
ffff80000011f892:	00 00 00 
ffff80000011f895:	c7 85 34 ff ff ff 30 	movl   $0x30,-0xcc(%rbp)
ffff80000011f89c:	00 00 00 
ffff80000011f89f:	48 8d 45 10          	lea    0x10(%rbp),%rax
ffff80000011f8a3:	48 89 85 38 ff ff ff 	mov    %rax,-0xc8(%rbp)
ffff80000011f8aa:	48 8d 85 50 ff ff ff 	lea    -0xb0(%rbp),%rax
ffff80000011f8b1:	48 89 85 40 ff ff ff 	mov    %rax,-0xc0(%rbp)
ffff80000011f8b8:	48 8d 95 30 ff ff ff 	lea    -0xd0(%rbp),%rdx
ffff80000011f8bf:	48 8b 8d 28 fb ff ff 	mov    -0x4d8(%rbp),%rcx
ffff80000011f8c6:	48 8d 85 30 fb ff ff 	lea    -0x4d0(%rbp),%rax
ffff80000011f8cd:	48 89 ce             	mov    %rcx,%rsi
ffff80000011f8d0:	48 89 c7             	mov    %rax,%rdi
ffff80000011f8d3:	48 b8 e2 f4 11 00 00 	movabs $0xffff80000011f4e2,%rax
ffff80000011f8da:	80 ff ff 
ffff80000011f8dd:	ff d0                	callq  *%rax
ffff80000011f8df:	48 bf c0 2b 12 00 00 	movabs $0xffff800000122bc0,%rdi
ffff80000011f8e6:	80 ff ff 
ffff80000011f8e9:	48 b8 54 fc 11 00 00 	movabs $0xffff80000011fc54,%rax
ffff80000011f8f0:	80 ff ff 
ffff80000011f8f3:	ff d0                	callq  *%rax
ffff80000011f8f5:	48 8d 85 30 fb ff ff 	lea    -0x4d0(%rbp),%rax
ffff80000011f8fc:	48 89 c7             	mov    %rax,%rdi
ffff80000011f8ff:	48 b8 b7 c9 11 00 00 	movabs $0xffff80000011c9b7,%rax
ffff80000011f906:	80 ff ff 
ffff80000011f909:	ff d0                	callq  *%rax
ffff80000011f90b:	89 85 4c ff ff ff    	mov    %eax,-0xb4(%rbp)
ffff80000011f911:	8b 8d 4c ff ff ff    	mov    -0xb4(%rbp),%ecx
ffff80000011f917:	ba 67 66 66 66       	mov    $0x66666667,%edx
ffff80000011f91c:	89 c8                	mov    %ecx,%eax
ffff80000011f91e:	f7 ea                	imul   %edx
ffff80000011f920:	c1 fa 05             	sar    $0x5,%edx
ffff80000011f923:	89 c8                	mov    %ecx,%eax
ffff80000011f925:	c1 f8 1f             	sar    $0x1f,%eax
ffff80000011f928:	89 d6                	mov    %edx,%esi
ffff80000011f92a:	29 c6                	sub    %eax,%esi
ffff80000011f92c:	8b 8d 4c ff ff ff    	mov    -0xb4(%rbp),%ecx
ffff80000011f932:	ba 67 66 66 66       	mov    $0x66666667,%edx
ffff80000011f937:	89 c8                	mov    %ecx,%eax
ffff80000011f939:	f7 ea                	imul   %edx
ffff80000011f93b:	c1 fa 05             	sar    $0x5,%edx
ffff80000011f93e:	89 c8                	mov    %ecx,%eax
ffff80000011f940:	c1 f8 1f             	sar    $0x1f,%eax
ffff80000011f943:	29 c2                	sub    %eax,%edx
ffff80000011f945:	89 d0                	mov    %edx,%eax
ffff80000011f947:	c1 e0 02             	shl    $0x2,%eax
ffff80000011f94a:	01 d0                	add    %edx,%eax
ffff80000011f94c:	c1 e0 04             	shl    $0x4,%eax
ffff80000011f94f:	29 c1                	sub    %eax,%ecx
ffff80000011f951:	89 ca                	mov    %ecx,%edx
ffff80000011f953:	89 d7                	mov    %edx,%edi
ffff80000011f955:	48 b8 a7 c8 11 00 00 	movabs $0xffff80000011c8a7,%rax
ffff80000011f95c:	80 ff ff 
ffff80000011f95f:	ff d0                	callq  *%rax
ffff80000011f961:	48 bf c0 2b 12 00 00 	movabs $0xffff800000122bc0,%rdi
ffff80000011f968:	80 ff ff 
ffff80000011f96b:	48 b8 31 fd 11 00 00 	movabs $0xffff80000011fd31,%rax
ffff80000011f972:	80 ff ff 
ffff80000011f975:	ff d0                	callq  *%rax
ffff80000011f977:	90                   	nop
ffff80000011f978:	c9                   	leaveq 
ffff80000011f979:	c3                   	retq   

ffff80000011f97a <sprintf>:
ffff80000011f97a:	55                   	push   %rbp
ffff80000011f97b:	48 89 e5             	mov    %rsp,%rbp
ffff80000011f97e:	48 81 ec e0 00 00 00 	sub    $0xe0,%rsp
ffff80000011f985:	48 89 bd 28 ff ff ff 	mov    %rdi,-0xd8(%rbp)
ffff80000011f98c:	48 89 b5 20 ff ff ff 	mov    %rsi,-0xe0(%rbp)
ffff80000011f993:	48 89 95 60 ff ff ff 	mov    %rdx,-0xa0(%rbp)
ffff80000011f99a:	48 89 8d 68 ff ff ff 	mov    %rcx,-0x98(%rbp)
ffff80000011f9a1:	4c 89 85 70 ff ff ff 	mov    %r8,-0x90(%rbp)
ffff80000011f9a8:	4c 89 8d 78 ff ff ff 	mov    %r9,-0x88(%rbp)
ffff80000011f9af:	84 c0                	test   %al,%al
ffff80000011f9b1:	74 20                	je     ffff80000011f9d3 <sprintf+0x59>
ffff80000011f9b3:	0f 29 45 80          	movaps %xmm0,-0x80(%rbp)
ffff80000011f9b7:	0f 29 4d 90          	movaps %xmm1,-0x70(%rbp)
ffff80000011f9bb:	0f 29 55 a0          	movaps %xmm2,-0x60(%rbp)
ffff80000011f9bf:	0f 29 5d b0          	movaps %xmm3,-0x50(%rbp)
ffff80000011f9c3:	0f 29 65 c0          	movaps %xmm4,-0x40(%rbp)
ffff80000011f9c7:	0f 29 6d d0          	movaps %xmm5,-0x30(%rbp)
ffff80000011f9cb:	0f 29 75 e0          	movaps %xmm6,-0x20(%rbp)
ffff80000011f9cf:	0f 29 7d f0          	movaps %xmm7,-0x10(%rbp)
ffff80000011f9d3:	c7 85 30 ff ff ff 10 	movl   $0x10,-0xd0(%rbp)
ffff80000011f9da:	00 00 00 
ffff80000011f9dd:	c7 85 34 ff ff ff 30 	movl   $0x30,-0xcc(%rbp)
ffff80000011f9e4:	00 00 00 
ffff80000011f9e7:	48 8d 45 10          	lea    0x10(%rbp),%rax
ffff80000011f9eb:	48 89 85 38 ff ff ff 	mov    %rax,-0xc8(%rbp)
ffff80000011f9f2:	48 8d 85 50 ff ff ff 	lea    -0xb0(%rbp),%rax
ffff80000011f9f9:	48 89 85 40 ff ff ff 	mov    %rax,-0xc0(%rbp)
ffff80000011fa00:	48 8d 95 30 ff ff ff 	lea    -0xd0(%rbp),%rdx
ffff80000011fa07:	48 8b 8d 20 ff ff ff 	mov    -0xe0(%rbp),%rcx
ffff80000011fa0e:	48 8b 85 28 ff ff ff 	mov    -0xd8(%rbp),%rax
ffff80000011fa15:	48 89 ce             	mov    %rcx,%rsi
ffff80000011fa18:	48 89 c7             	mov    %rax,%rdi
ffff80000011fa1b:	48 b8 e2 f4 11 00 00 	movabs $0xffff80000011f4e2,%rax
ffff80000011fa22:	80 ff ff 
ffff80000011fa25:	ff d0                	callq  *%rax
ffff80000011fa27:	89 85 4c ff ff ff    	mov    %eax,-0xb4(%rbp)
ffff80000011fa2d:	8b 85 4c ff ff ff    	mov    -0xb4(%rbp),%eax
ffff80000011fa33:	c9                   	leaveq 
ffff80000011fa34:	c3                   	retq   

ffff80000011fa35 <mutex_init>:
ffff80000011fa35:	55                   	push   %rbp
ffff80000011fa36:	48 89 e5             	mov    %rsp,%rbp
ffff80000011fa39:	48 89 7d f8          	mov    %rdi,-0x8(%rbp)
ffff80000011fa3d:	48 8b 45 f8          	mov    -0x8(%rbp),%rax
ffff80000011fa41:	c6 40 0c 00          	movb   $0x0,0xc(%rax)
ffff80000011fa45:	48 8b 45 f8          	mov    -0x8(%rbp),%rax
ffff80000011fa49:	c7 40 08 00 00 00 00 	movl   $0x0,0x8(%rax)
ffff80000011fa50:	48 8b 45 f8          	mov    -0x8(%rbp),%rax
ffff80000011fa54:	48 c7 00 00 00 00 00 	movq   $0x0,(%rax)
ffff80000011fa5b:	90                   	nop
ffff80000011fa5c:	5d                   	pop    %rbp
ffff80000011fa5d:	c3                   	retq   

ffff80000011fa5e <mutex_lock>:
ffff80000011fa5e:	55                   	push   %rbp
ffff80000011fa5f:	48 89 e5             	mov    %rsp,%rbp
ffff80000011fa62:	53                   	push   %rbx
ffff80000011fa63:	48 83 ec 28          	sub    $0x28,%rsp
ffff80000011fa67:	48 89 7d d8          	mov    %rdi,-0x28(%rbp)
ffff80000011fa6b:	bf 00 00 00 00       	mov    $0x0,%edi
ffff80000011fa70:	48 b8 73 02 12 00 00 	movabs $0xffff800000120273,%rax
ffff80000011fa77:	80 ff ff 
ffff80000011fa7a:	ff d0                	callq  *%rax
ffff80000011fa7c:	88 45 ef             	mov    %al,-0x11(%rbp)
ffff80000011fa7f:	48 b8 18 c7 11 00 00 	movabs $0xffff80000011c718,%rax
ffff80000011fa86:	80 ff ff 
ffff80000011fa89:	ff d0                	callq  *%rax
ffff80000011fa8b:	88 45 ee             	mov    %al,-0x12(%rbp)
ffff80000011fa8e:	48 8b 45 d8          	mov    -0x28(%rbp),%rax
ffff80000011fa92:	48 83 c0 0c          	add    $0xc,%rax
ffff80000011fa96:	ba 01 00 00 00       	mov    $0x1,%edx
ffff80000011fa9b:	be 00 00 00 00       	mov    $0x0,%esi
ffff80000011faa0:	48 89 c7             	mov    %rax,%rdi
ffff80000011faa3:	48 b8 97 13 12 00 00 	movabs $0xffff800000121397,%rax
ffff80000011faaa:	80 ff ff 
ffff80000011faad:	ff d0                	callq  *%rax
ffff80000011faaf:	84 c0                	test   %al,%al
ffff80000011fab1:	75 74                	jne    ffff80000011fb27 <mutex_lock+0xc9>
ffff80000011fab3:	48 8b 45 d8          	mov    -0x28(%rbp),%rax
ffff80000011fab7:	48 8b 18             	mov    (%rax),%rbx
ffff80000011faba:	0f b6 45 ee          	movzbl -0x12(%rbp),%eax
ffff80000011fabe:	89 c7                	mov    %eax,%edi
ffff80000011fac0:	48 b8 c8 0a 12 00 00 	movabs $0xffff800000120ac8,%rax
ffff80000011fac7:	80 ff ff 
ffff80000011faca:	ff d0                	callq  *%rax
ffff80000011facc:	48 39 c3             	cmp    %rax,%rbx
ffff80000011facf:	75 31                	jne    ffff80000011fb02 <mutex_lock+0xa4>
ffff80000011fad1:	0f b6 45 ef          	movzbl -0x11(%rbp),%eax
ffff80000011fad5:	89 c7                	mov    %eax,%edi
ffff80000011fad7:	48 b8 73 02 12 00 00 	movabs $0xffff800000120273,%rax
ffff80000011fade:	80 ff ff 
ffff80000011fae1:	ff d0                	callq  *%rax
ffff80000011fae3:	48 8b 45 d8          	mov    -0x28(%rbp),%rax
ffff80000011fae7:	8b 40 08             	mov    0x8(%rax),%eax
ffff80000011faea:	8d 50 01             	lea    0x1(%rax),%edx
ffff80000011faed:	48 8b 45 d8          	mov    -0x28(%rbp),%rax
ffff80000011faf1:	89 50 08             	mov    %edx,0x8(%rax)
ffff80000011faf4:	eb 6a                	jmp    ffff80000011fb60 <mutex_lock+0x102>
ffff80000011faf6:	48 b8 ce 05 12 00 00 	movabs $0xffff8000001205ce,%rax
ffff80000011fafd:	80 ff ff 
ffff80000011fb00:	ff d0                	callq  *%rax
ffff80000011fb02:	48 8b 45 d8          	mov    -0x28(%rbp),%rax
ffff80000011fb06:	48 83 c0 0c          	add    $0xc,%rax
ffff80000011fb0a:	ba 01 00 00 00       	mov    $0x1,%edx
ffff80000011fb0f:	be 00 00 00 00       	mov    $0x0,%esi
ffff80000011fb14:	48 89 c7             	mov    %rax,%rdi
ffff80000011fb17:	48 b8 97 13 12 00 00 	movabs $0xffff800000121397,%rax
ffff80000011fb1e:	80 ff ff 
ffff80000011fb21:	ff d0                	callq  *%rax
ffff80000011fb23:	84 c0                	test   %al,%al
ffff80000011fb25:	74 cf                	je     ffff80000011faf6 <mutex_lock+0x98>
ffff80000011fb27:	48 8b 45 d8          	mov    -0x28(%rbp),%rax
ffff80000011fb2b:	c7 40 08 01 00 00 00 	movl   $0x1,0x8(%rax)
ffff80000011fb32:	0f b6 45 ee          	movzbl -0x12(%rbp),%eax
ffff80000011fb36:	89 c7                	mov    %eax,%edi
ffff80000011fb38:	48 b8 c8 0a 12 00 00 	movabs $0xffff800000120ac8,%rax
ffff80000011fb3f:	80 ff ff 
ffff80000011fb42:	ff d0                	callq  *%rax
ffff80000011fb44:	48 89 c2             	mov    %rax,%rdx
ffff80000011fb47:	48 8b 45 d8          	mov    -0x28(%rbp),%rax
ffff80000011fb4b:	48 89 10             	mov    %rdx,(%rax)
ffff80000011fb4e:	0f b6 45 ef          	movzbl -0x11(%rbp),%eax
ffff80000011fb52:	89 c7                	mov    %eax,%edi
ffff80000011fb54:	48 b8 73 02 12 00 00 	movabs $0xffff800000120273,%rax
ffff80000011fb5b:	80 ff ff 
ffff80000011fb5e:	ff d0                	callq  *%rax
ffff80000011fb60:	48 83 c4 28          	add    $0x28,%rsp
ffff80000011fb64:	5b                   	pop    %rbx
ffff80000011fb65:	5d                   	pop    %rbp
ffff80000011fb66:	c3                   	retq   

ffff80000011fb67 <mutex_unlock>:
ffff80000011fb67:	55                   	push   %rbp
ffff80000011fb68:	48 89 e5             	mov    %rsp,%rbp
ffff80000011fb6b:	53                   	push   %rbx
ffff80000011fb6c:	48 83 ec 28          	sub    $0x28,%rsp
ffff80000011fb70:	48 89 7d d8          	mov    %rdi,-0x28(%rbp)
ffff80000011fb74:	bf 00 00 00 00       	mov    $0x0,%edi
ffff80000011fb79:	48 b8 73 02 12 00 00 	movabs $0xffff800000120273,%rax
ffff80000011fb80:	80 ff ff 
ffff80000011fb83:	ff d0                	callq  *%rax
ffff80000011fb85:	88 45 ef             	mov    %al,-0x11(%rbp)
ffff80000011fb88:	48 8b 45 d8          	mov    -0x28(%rbp),%rax
ffff80000011fb8c:	0f b6 40 0c          	movzbl 0xc(%rax),%eax
ffff80000011fb90:	84 c0                	test   %al,%al
ffff80000011fb92:	74 29                	je     ffff80000011fbbd <mutex_unlock+0x56>
ffff80000011fb94:	48 8b 45 d8          	mov    -0x28(%rbp),%rax
ffff80000011fb98:	48 8b 18             	mov    (%rax),%rbx
ffff80000011fb9b:	48 b8 18 c7 11 00 00 	movabs $0xffff80000011c718,%rax
ffff80000011fba2:	80 ff ff 
ffff80000011fba5:	ff d0                	callq  *%rax
ffff80000011fba7:	0f b6 c0             	movzbl %al,%eax
ffff80000011fbaa:	89 c7                	mov    %eax,%edi
ffff80000011fbac:	48 b8 c8 0a 12 00 00 	movabs $0xffff800000120ac8,%rax
ffff80000011fbb3:	80 ff ff 
ffff80000011fbb6:	ff d0                	callq  *%rax
ffff80000011fbb8:	48 39 c3             	cmp    %rax,%rbx
ffff80000011fbbb:	74 14                	je     ffff80000011fbd1 <mutex_unlock+0x6a>
ffff80000011fbbd:	0f b6 45 ef          	movzbl -0x11(%rbp),%eax
ffff80000011fbc1:	89 c7                	mov    %eax,%edi
ffff80000011fbc3:	48 b8 73 02 12 00 00 	movabs $0xffff800000120273,%rax
ffff80000011fbca:	80 ff ff 
ffff80000011fbcd:	ff d0                	callq  *%rax
ffff80000011fbcf:	eb 4f                	jmp    ffff80000011fc20 <mutex_unlock+0xb9>
ffff80000011fbd1:	48 8b 45 d8          	mov    -0x28(%rbp),%rax
ffff80000011fbd5:	8b 40 08             	mov    0x8(%rax),%eax
ffff80000011fbd8:	83 f8 01             	cmp    $0x1,%eax
ffff80000011fbdb:	76 13                	jbe    ffff80000011fbf0 <mutex_unlock+0x89>
ffff80000011fbdd:	48 8b 45 d8          	mov    -0x28(%rbp),%rax
ffff80000011fbe1:	8b 40 08             	mov    0x8(%rax),%eax
ffff80000011fbe4:	8d 50 ff             	lea    -0x1(%rax),%edx
ffff80000011fbe7:	48 8b 45 d8          	mov    -0x28(%rbp),%rax
ffff80000011fbeb:	89 50 08             	mov    %edx,0x8(%rax)
ffff80000011fbee:	eb 1e                	jmp    ffff80000011fc0e <mutex_unlock+0xa7>
ffff80000011fbf0:	48 8b 45 d8          	mov    -0x28(%rbp),%rax
ffff80000011fbf4:	48 c7 00 00 00 00 00 	movq   $0x0,(%rax)
ffff80000011fbfb:	48 8b 45 d8          	mov    -0x28(%rbp),%rax
ffff80000011fbff:	c7 40 08 00 00 00 00 	movl   $0x0,0x8(%rax)
ffff80000011fc06:	48 8b 45 d8          	mov    -0x28(%rbp),%rax
ffff80000011fc0a:	c6 40 0c 00          	movb   $0x0,0xc(%rax)
ffff80000011fc0e:	0f b6 45 ef          	movzbl -0x11(%rbp),%eax
ffff80000011fc12:	89 c7                	mov    %eax,%edi
ffff80000011fc14:	48 b8 73 02 12 00 00 	movabs $0xffff800000120273,%rax
ffff80000011fc1b:	80 ff ff 
ffff80000011fc1e:	ff d0                	callq  *%rax
ffff80000011fc20:	48 83 c4 28          	add    $0x28,%rsp
ffff80000011fc24:	5b                   	pop    %rbx
ffff80000011fc25:	5d                   	pop    %rbp
ffff80000011fc26:	c3                   	retq   

ffff80000011fc27 <spinlock_init>:
ffff80000011fc27:	55                   	push   %rbp
ffff80000011fc28:	48 89 e5             	mov    %rsp,%rbp
ffff80000011fc2b:	48 89 7d f8          	mov    %rdi,-0x8(%rbp)
ffff80000011fc2f:	48 8b 45 f8          	mov    -0x8(%rbp),%rax
ffff80000011fc33:	c6 40 05 00          	movb   $0x0,0x5(%rax)
ffff80000011fc37:	48 8b 45 f8          	mov    -0x8(%rbp),%rax
ffff80000011fc3b:	c7 00 00 00 00 00    	movl   $0x0,(%rax)
ffff80000011fc41:	48 8b 45 f8          	mov    -0x8(%rbp),%rax
ffff80000011fc45:	c6 40 04 ff          	movb   $0xff,0x4(%rax)
ffff80000011fc49:	48 8b 45 f8          	mov    -0x8(%rbp),%rax
ffff80000011fc4d:	c6 40 06 00          	movb   $0x0,0x6(%rax)
ffff80000011fc51:	90                   	nop
ffff80000011fc52:	5d                   	pop    %rbp
ffff80000011fc53:	c3                   	retq   

ffff80000011fc54 <spinlock_lock>:
ffff80000011fc54:	55                   	push   %rbp
ffff80000011fc55:	48 89 e5             	mov    %rsp,%rbp
ffff80000011fc58:	53                   	push   %rbx
ffff80000011fc59:	48 83 ec 28          	sub    $0x28,%rsp
ffff80000011fc5d:	48 89 7d d8          	mov    %rdi,-0x28(%rbp)
ffff80000011fc61:	bf 00 00 00 00       	mov    $0x0,%edi
ffff80000011fc66:	48 b8 73 02 12 00 00 	movabs $0xffff800000120273,%rax
ffff80000011fc6d:	80 ff ff 
ffff80000011fc70:	ff d0                	callq  *%rax
ffff80000011fc72:	88 45 ef             	mov    %al,-0x11(%rbp)
ffff80000011fc75:	48 8b 45 d8          	mov    -0x28(%rbp),%rax
ffff80000011fc79:	48 83 c0 05          	add    $0x5,%rax
ffff80000011fc7d:	ba 01 00 00 00       	mov    $0x1,%edx
ffff80000011fc82:	be 00 00 00 00       	mov    $0x0,%esi
ffff80000011fc87:	48 89 c7             	mov    %rax,%rdi
ffff80000011fc8a:	48 b8 97 13 12 00 00 	movabs $0xffff800000121397,%rax
ffff80000011fc91:	80 ff ff 
ffff80000011fc94:	ff d0                	callq  *%rax
ffff80000011fc96:	84 c0                	test   %al,%al
ffff80000011fc98:	75 66                	jne    ffff80000011fd00 <spinlock_lock+0xac>
ffff80000011fc9a:	48 8b 45 d8          	mov    -0x28(%rbp),%rax
ffff80000011fc9e:	0f b6 58 04          	movzbl 0x4(%rax),%ebx
ffff80000011fca2:	48 b8 18 c7 11 00 00 	movabs $0xffff80000011c718,%rax
ffff80000011fca9:	80 ff ff 
ffff80000011fcac:	ff d0                	callq  *%rax
ffff80000011fcae:	38 c3                	cmp    %al,%bl
ffff80000011fcb0:	75 29                	jne    ffff80000011fcdb <spinlock_lock+0x87>
ffff80000011fcb2:	48 8b 45 d8          	mov    -0x28(%rbp),%rax
ffff80000011fcb6:	8b 00                	mov    (%rax),%eax
ffff80000011fcb8:	8d 50 01             	lea    0x1(%rax),%edx
ffff80000011fcbb:	48 8b 45 d8          	mov    -0x28(%rbp),%rax
ffff80000011fcbf:	89 10                	mov    %edx,(%rax)
ffff80000011fcc1:	eb 67                	jmp    ffff80000011fd2a <spinlock_lock+0xd6>
ffff80000011fcc3:	48 b8 dd 13 12 00 00 	movabs $0xffff8000001213dd,%rax
ffff80000011fcca:	80 ff ff 
ffff80000011fccd:	ff d0                	callq  *%rax
ffff80000011fccf:	48 8b 45 d8          	mov    -0x28(%rbp),%rax
ffff80000011fcd3:	0f b6 40 05          	movzbl 0x5(%rax),%eax
ffff80000011fcd7:	3c 01                	cmp    $0x1,%al
ffff80000011fcd9:	74 e8                	je     ffff80000011fcc3 <spinlock_lock+0x6f>
ffff80000011fcdb:	48 8b 45 d8          	mov    -0x28(%rbp),%rax
ffff80000011fcdf:	48 83 c0 05          	add    $0x5,%rax
ffff80000011fce3:	ba 01 00 00 00       	mov    $0x1,%edx
ffff80000011fce8:	be 00 00 00 00       	mov    $0x0,%esi
ffff80000011fced:	48 89 c7             	mov    %rax,%rdi
ffff80000011fcf0:	48 b8 97 13 12 00 00 	movabs $0xffff800000121397,%rax
ffff80000011fcf7:	80 ff ff 
ffff80000011fcfa:	ff d0                	callq  *%rax
ffff80000011fcfc:	84 c0                	test   %al,%al
ffff80000011fcfe:	74 cf                	je     ffff80000011fccf <spinlock_lock+0x7b>
ffff80000011fd00:	48 8b 45 d8          	mov    -0x28(%rbp),%rax
ffff80000011fd04:	c7 00 01 00 00 00    	movl   $0x1,(%rax)
ffff80000011fd0a:	48 b8 18 c7 11 00 00 	movabs $0xffff80000011c718,%rax
ffff80000011fd11:	80 ff ff 
ffff80000011fd14:	ff d0                	callq  *%rax
ffff80000011fd16:	89 c2                	mov    %eax,%edx
ffff80000011fd18:	48 8b 45 d8          	mov    -0x28(%rbp),%rax
ffff80000011fd1c:	88 50 04             	mov    %dl,0x4(%rax)
ffff80000011fd1f:	48 8b 45 d8          	mov    -0x28(%rbp),%rax
ffff80000011fd23:	0f b6 55 ef          	movzbl -0x11(%rbp),%edx
ffff80000011fd27:	88 50 06             	mov    %dl,0x6(%rax)
ffff80000011fd2a:	48 83 c4 28          	add    $0x28,%rsp
ffff80000011fd2e:	5b                   	pop    %rbx
ffff80000011fd2f:	5d                   	pop    %rbp
ffff80000011fd30:	c3                   	retq   

ffff80000011fd31 <spinlock_unlock>:
ffff80000011fd31:	55                   	push   %rbp
ffff80000011fd32:	48 89 e5             	mov    %rsp,%rbp
ffff80000011fd35:	53                   	push   %rbx
ffff80000011fd36:	48 83 ec 28          	sub    $0x28,%rsp
ffff80000011fd3a:	48 89 7d d8          	mov    %rdi,-0x28(%rbp)
ffff80000011fd3e:	bf 00 00 00 00       	mov    $0x0,%edi
ffff80000011fd43:	48 b8 73 02 12 00 00 	movabs $0xffff800000120273,%rax
ffff80000011fd4a:	80 ff ff 
ffff80000011fd4d:	ff d0                	callq  *%rax
ffff80000011fd4f:	88 45 ef             	mov    %al,-0x11(%rbp)
ffff80000011fd52:	48 8b 45 d8          	mov    -0x28(%rbp),%rax
ffff80000011fd56:	0f b6 40 05          	movzbl 0x5(%rax),%eax
ffff80000011fd5a:	84 c0                	test   %al,%al
ffff80000011fd5c:	74 18                	je     ffff80000011fd76 <spinlock_unlock+0x45>
ffff80000011fd5e:	48 8b 45 d8          	mov    -0x28(%rbp),%rax
ffff80000011fd62:	0f b6 58 04          	movzbl 0x4(%rax),%ebx
ffff80000011fd66:	48 b8 18 c7 11 00 00 	movabs $0xffff80000011c718,%rax
ffff80000011fd6d:	80 ff ff 
ffff80000011fd70:	ff d0                	callq  *%rax
ffff80000011fd72:	38 c3                	cmp    %al,%bl
ffff80000011fd74:	74 14                	je     ffff80000011fd8a <spinlock_unlock+0x59>
ffff80000011fd76:	0f b6 45 ef          	movzbl -0x11(%rbp),%eax
ffff80000011fd7a:	89 c7                	mov    %eax,%edi
ffff80000011fd7c:	48 b8 73 02 12 00 00 	movabs $0xffff800000120273,%rax
ffff80000011fd83:	80 ff ff 
ffff80000011fd86:	ff d0                	callq  *%rax
ffff80000011fd88:	eb 5b                	jmp    ffff80000011fde5 <spinlock_unlock+0xb4>
ffff80000011fd8a:	48 8b 45 d8          	mov    -0x28(%rbp),%rax
ffff80000011fd8e:	8b 00                	mov    (%rax),%eax
ffff80000011fd90:	83 f8 01             	cmp    $0x1,%eax
ffff80000011fd93:	76 11                	jbe    ffff80000011fda6 <spinlock_unlock+0x75>
ffff80000011fd95:	48 8b 45 d8          	mov    -0x28(%rbp),%rax
ffff80000011fd99:	8b 00                	mov    (%rax),%eax
ffff80000011fd9b:	8d 50 ff             	lea    -0x1(%rax),%edx
ffff80000011fd9e:	48 8b 45 d8          	mov    -0x28(%rbp),%rax
ffff80000011fda2:	89 10                	mov    %edx,(%rax)
ffff80000011fda4:	eb 3f                	jmp    ffff80000011fde5 <spinlock_unlock+0xb4>
ffff80000011fda6:	48 8b 45 d8          	mov    -0x28(%rbp),%rax
ffff80000011fdaa:	0f b6 40 06          	movzbl 0x6(%rax),%eax
ffff80000011fdae:	88 45 ef             	mov    %al,-0x11(%rbp)
ffff80000011fdb1:	48 8b 45 d8          	mov    -0x28(%rbp),%rax
ffff80000011fdb5:	c6 40 04 ff          	movb   $0xff,0x4(%rax)
ffff80000011fdb9:	48 8b 45 d8          	mov    -0x28(%rbp),%rax
ffff80000011fdbd:	c7 00 00 00 00 00    	movl   $0x0,(%rax)
ffff80000011fdc3:	48 8b 45 d8          	mov    -0x28(%rbp),%rax
ffff80000011fdc7:	c6 40 06 00          	movb   $0x0,0x6(%rax)
ffff80000011fdcb:	48 8b 45 d8          	mov    -0x28(%rbp),%rax
ffff80000011fdcf:	c6 40 05 00          	movb   $0x0,0x5(%rax)
ffff80000011fdd3:	0f b6 45 ef          	movzbl -0x11(%rbp),%eax
ffff80000011fdd7:	89 c7                	mov    %eax,%edi
ffff80000011fdd9:	48 b8 73 02 12 00 00 	movabs $0xffff800000120273,%rax
ffff80000011fde0:	80 ff ff 
ffff80000011fde3:	ff d0                	callq  *%rax
ffff80000011fde5:	48 83 c4 28          	add    $0x28,%rsp
ffff80000011fde9:	5b                   	pop    %rbx
ffff80000011fdea:	5d                   	pop    %rbp
ffff80000011fdeb:	c3                   	retq   

ffff80000011fdec <print_regs>:
ffff80000011fdec:	55                   	push   %rbp
ffff80000011fded:	48 89 e5             	mov    %rsp,%rbp
ffff80000011fdf0:	48 83 ec 10          	sub    $0x10,%rsp
ffff80000011fdf4:	48 89 7d f8          	mov    %rdi,-0x8(%rbp)
ffff80000011fdf8:	48 8b 45 f8          	mov    -0x8(%rbp),%rax
ffff80000011fdfc:	48 8b 88 b8 00 00 00 	mov    0xb8(%rax),%rcx
ffff80000011fe03:	48 8b 45 f8          	mov    -0x8(%rbp),%rax
ffff80000011fe07:	48 8b 90 c0 00 00 00 	mov    0xc0(%rax),%rdx
ffff80000011fe0e:	48 8b 45 f8          	mov    -0x8(%rbp),%rax
ffff80000011fe12:	48 8b 80 c8 00 00 00 	mov    0xc8(%rax),%rax
ffff80000011fe19:	48 89 c6             	mov    %rax,%rsi
ffff80000011fe1c:	48 bf ca 15 12 00 00 	movabs $0xffff8000001215ca,%rdi
ffff80000011fe23:	80 ff ff 
ffff80000011fe26:	b8 00 00 00 00       	mov    $0x0,%eax
ffff80000011fe2b:	49 b8 32 f8 11 00 00 	movabs $0xffff80000011f832,%r8
ffff80000011fe32:	80 ff ff 
ffff80000011fe35:	41 ff d0             	callq  *%r8
ffff80000011fe38:	48 8b 45 f8          	mov    -0x8(%rbp),%rax
ffff80000011fe3c:	48 8b 90 a8 00 00 00 	mov    0xa8(%rax),%rdx
ffff80000011fe43:	48 8b 45 f8          	mov    -0x8(%rbp),%rax
ffff80000011fe47:	48 8b 80 b0 00 00 00 	mov    0xb0(%rax),%rax
ffff80000011fe4e:	48 89 c6             	mov    %rax,%rsi
ffff80000011fe51:	48 bf e2 15 12 00 00 	movabs $0xffff8000001215e2,%rdi
ffff80000011fe58:	80 ff ff 
ffff80000011fe5b:	b8 00 00 00 00       	mov    $0x0,%eax
ffff80000011fe60:	48 b9 32 f8 11 00 00 	movabs $0xffff80000011f832,%rcx
ffff80000011fe67:	80 ff ff 
ffff80000011fe6a:	ff d1                	callq  *%rcx
ffff80000011fe6c:	48 8b 45 f8          	mov    -0x8(%rbp),%rax
ffff80000011fe70:	48 8b 90 98 00 00 00 	mov    0x98(%rax),%rdx
ffff80000011fe77:	48 8b 45 f8          	mov    -0x8(%rbp),%rax
ffff80000011fe7b:	48 8b 80 a0 00 00 00 	mov    0xa0(%rax),%rax
ffff80000011fe82:	48 89 c6             	mov    %rax,%rsi
ffff80000011fe85:	48 bf f0 15 12 00 00 	movabs $0xffff8000001215f0,%rdi
ffff80000011fe8c:	80 ff ff 
ffff80000011fe8f:	b8 00 00 00 00       	mov    $0x0,%eax
ffff80000011fe94:	48 b9 32 f8 11 00 00 	movabs $0xffff80000011f832,%rcx
ffff80000011fe9b:	80 ff ff 
ffff80000011fe9e:	ff d1                	callq  *%rcx
ffff80000011fea0:	48 8b 45 f8          	mov    -0x8(%rbp),%rax
ffff80000011fea4:	48 8b 88 80 00 00 00 	mov    0x80(%rax),%rcx
ffff80000011feab:	48 8b 45 f8          	mov    -0x8(%rbp),%rax
ffff80000011feaf:	48 8b 90 88 00 00 00 	mov    0x88(%rax),%rdx
ffff80000011feb6:	48 8b 45 f8          	mov    -0x8(%rbp),%rax
ffff80000011feba:	48 8b 80 90 00 00 00 	mov    0x90(%rax),%rax
ffff80000011fec1:	48 89 c6             	mov    %rax,%rsi
ffff80000011fec4:	48 bf 07 16 12 00 00 	movabs $0xffff800000121607,%rdi
ffff80000011fecb:	80 ff ff 
ffff80000011fece:	b8 00 00 00 00       	mov    $0x0,%eax
ffff80000011fed3:	49 b8 32 f8 11 00 00 	movabs $0xffff80000011f832,%r8
ffff80000011feda:	80 ff ff 
ffff80000011fedd:	41 ff d0             	callq  *%r8
ffff80000011fee0:	48 8b 45 f8          	mov    -0x8(%rbp),%rax
ffff80000011fee4:	48 8b 48 68          	mov    0x68(%rax),%rcx
ffff80000011fee8:	48 8b 45 f8          	mov    -0x8(%rbp),%rax
ffff80000011feec:	48 8b 50 70          	mov    0x70(%rax),%rdx
ffff80000011fef0:	48 8b 45 f8          	mov    -0x8(%rbp),%rax
ffff80000011fef4:	48 8b 40 78          	mov    0x78(%rax),%rax
ffff80000011fef8:	48 89 c6             	mov    %rax,%rsi
ffff80000011fefb:	48 bf 1d 16 12 00 00 	movabs $0xffff80000012161d,%rdi
ffff80000011ff02:	80 ff ff 
ffff80000011ff05:	b8 00 00 00 00       	mov    $0x0,%eax
ffff80000011ff0a:	49 b8 32 f8 11 00 00 	movabs $0xffff80000011f832,%r8
ffff80000011ff11:	80 ff ff 
ffff80000011ff14:	41 ff d0             	callq  *%r8
ffff80000011ff17:	48 8b 45 f8          	mov    -0x8(%rbp),%rax
ffff80000011ff1b:	48 8b 48 50          	mov    0x50(%rax),%rcx
ffff80000011ff1f:	48 8b 45 f8          	mov    -0x8(%rbp),%rax
ffff80000011ff23:	48 8b 50 58          	mov    0x58(%rax),%rdx
ffff80000011ff27:	48 8b 45 f8          	mov    -0x8(%rbp),%rax
ffff80000011ff2b:	48 8b 40 60          	mov    0x60(%rax),%rax
ffff80000011ff2f:	48 89 c6             	mov    %rax,%rsi
ffff80000011ff32:	48 bf 33 16 12 00 00 	movabs $0xffff800000121633,%rdi
ffff80000011ff39:	80 ff ff 
ffff80000011ff3c:	b8 00 00 00 00       	mov    $0x0,%eax
ffff80000011ff41:	49 b8 32 f8 11 00 00 	movabs $0xffff80000011f832,%r8
ffff80000011ff48:	80 ff ff 
ffff80000011ff4b:	41 ff d0             	callq  *%r8
ffff80000011ff4e:	48 8b 45 f8          	mov    -0x8(%rbp),%rax
ffff80000011ff52:	48 8b 48 38          	mov    0x38(%rax),%rcx
ffff80000011ff56:	48 8b 45 f8          	mov    -0x8(%rbp),%rax
ffff80000011ff5a:	48 8b 50 40          	mov    0x40(%rax),%rdx
ffff80000011ff5e:	48 8b 45 f8          	mov    -0x8(%rbp),%rax
ffff80000011ff62:	48 8b 40 48          	mov    0x48(%rax),%rax
ffff80000011ff66:	48 89 c6             	mov    %rax,%rsi
ffff80000011ff69:	48 bf 47 16 12 00 00 	movabs $0xffff800000121647,%rdi
ffff80000011ff70:	80 ff ff 
ffff80000011ff73:	b8 00 00 00 00       	mov    $0x0,%eax
ffff80000011ff78:	49 b8 32 f8 11 00 00 	movabs $0xffff80000011f832,%r8
ffff80000011ff7f:	80 ff ff 
ffff80000011ff82:	41 ff d0             	callq  *%r8
ffff80000011ff85:	48 8b 45 f8          	mov    -0x8(%rbp),%rax
ffff80000011ff89:	48 8b 48 20          	mov    0x20(%rax),%rcx
ffff80000011ff8d:	48 8b 45 f8          	mov    -0x8(%rbp),%rax
ffff80000011ff91:	48 8b 50 28          	mov    0x28(%rax),%rdx
ffff80000011ff95:	48 8b 45 f8          	mov    -0x8(%rbp),%rax
ffff80000011ff99:	48 8b 40 30          	mov    0x30(%rax),%rax
ffff80000011ff9d:	48 89 c6             	mov    %rax,%rsi
ffff80000011ffa0:	48 bf 5d 16 12 00 00 	movabs $0xffff80000012165d,%rdi
ffff80000011ffa7:	80 ff ff 
ffff80000011ffaa:	b8 00 00 00 00       	mov    $0x0,%eax
ffff80000011ffaf:	49 b8 32 f8 11 00 00 	movabs $0xffff80000011f832,%r8
ffff80000011ffb6:	80 ff ff 
ffff80000011ffb9:	41 ff d0             	callq  *%r8
ffff80000011ffbc:	48 8b 45 f8          	mov    -0x8(%rbp),%rax
ffff80000011ffc0:	48 8b 48 08          	mov    0x8(%rax),%rcx
ffff80000011ffc4:	48 8b 45 f8          	mov    -0x8(%rbp),%rax
ffff80000011ffc8:	48 8b 50 10          	mov    0x10(%rax),%rdx
ffff80000011ffcc:	48 8b 45 f8          	mov    -0x8(%rbp),%rax
ffff80000011ffd0:	48 8b 40 18          	mov    0x18(%rax),%rax
ffff80000011ffd4:	48 89 c6             	mov    %rax,%rsi
ffff80000011ffd7:	48 bf 73 16 12 00 00 	movabs $0xffff800000121673,%rdi
ffff80000011ffde:	80 ff ff 
ffff80000011ffe1:	b8 00 00 00 00       	mov    $0x0,%eax
ffff80000011ffe6:	49 b8 32 f8 11 00 00 	movabs $0xffff80000011f832,%r8
ffff80000011ffed:	80 ff ff 
ffff80000011fff0:	41 ff d0             	callq  *%r8
ffff80000011fff3:	48 8b 45 f8          	mov    -0x8(%rbp),%rax
ffff80000011fff7:	48 8b 00             	mov    (%rax),%rax
ffff80000011fffa:	48 89 c6             	mov    %rax,%rsi
ffff80000011fffd:	48 bf 86 16 12 00 00 	movabs $0xffff800000121686,%rdi
ffff800000120004:	80 ff ff 
ffff800000120007:	b8 00 00 00 00       	mov    $0x0,%eax
ffff80000012000c:	48 ba 32 f8 11 00 00 	movabs $0xffff80000011f832,%rdx
ffff800000120013:	80 ff ff 
ffff800000120016:	ff d2                	callq  *%rdx
ffff800000120018:	90                   	nop
ffff800000120019:	c9                   	leaveq 
ffff80000012001a:	c3                   	retq   

ffff80000012001b <in_port_b>:
ffff80000012001b:	55                   	push   %rbp
ffff80000012001c:	48 89 e5             	mov    %rsp,%rbp
ffff80000012001f:	89 f8                	mov    %edi,%eax
ffff800000120021:	66 89 45 ec          	mov    %ax,-0x14(%rbp)
ffff800000120025:	0f b7 45 ec          	movzwl -0x14(%rbp),%eax
ffff800000120029:	89 c2                	mov    %eax,%edx
ffff80000012002b:	ec                   	in     (%dx),%al
ffff80000012002c:	88 45 ff             	mov    %al,-0x1(%rbp)
ffff80000012002f:	0f b6 45 ff          	movzbl -0x1(%rbp),%eax
ffff800000120033:	5d                   	pop    %rbp
ffff800000120034:	c3                   	retq   

ffff800000120035 <out_port_b>:
ffff800000120035:	55                   	push   %rbp
ffff800000120036:	48 89 e5             	mov    %rsp,%rbp
ffff800000120039:	89 fa                	mov    %edi,%edx
ffff80000012003b:	89 f0                	mov    %esi,%eax
ffff80000012003d:	66 89 55 fc          	mov    %dx,-0x4(%rbp)
ffff800000120041:	88 45 f8             	mov    %al,-0x8(%rbp)
ffff800000120044:	0f b7 55 fc          	movzwl -0x4(%rbp),%edx
ffff800000120048:	0f b6 45 f8          	movzbl -0x8(%rbp),%eax
ffff80000012004c:	ee                   	out    %al,(%dx)
ffff80000012004d:	90                   	nop
ffff80000012004e:	5d                   	pop    %rbp
ffff80000012004f:	c3                   	retq   

ffff800000120050 <memset>:
ffff800000120050:	55                   	push   %rbp
ffff800000120051:	48 89 e5             	mov    %rsp,%rbp
ffff800000120054:	48 89 7d f8          	mov    %rdi,-0x8(%rbp)
ffff800000120058:	89 75 f4             	mov    %esi,-0xc(%rbp)
ffff80000012005b:	89 55 f0             	mov    %edx,-0x10(%rbp)
ffff80000012005e:	8b 45 f4             	mov    -0xc(%rbp),%eax
ffff800000120061:	8b 4d f0             	mov    -0x10(%rbp),%ecx
ffff800000120064:	48 8b 55 f8          	mov    -0x8(%rbp),%rdx
ffff800000120068:	48 89 d7             	mov    %rdx,%rdi
ffff80000012006b:	fc                   	cld    
ffff80000012006c:	f3 aa                	rep stos %al,%es:(%rdi)
ffff80000012006e:	48 89 fa             	mov    %rdi,%rdx
ffff800000120071:	89 4d f0             	mov    %ecx,-0x10(%rbp)
ffff800000120074:	48 89 55 f8          	mov    %rdx,-0x8(%rbp)
ffff800000120078:	48 8b 45 f8          	mov    -0x8(%rbp),%rax
ffff80000012007c:	5d                   	pop    %rbp
ffff80000012007d:	c3                   	retq   

ffff80000012007e <memcpy>:
ffff80000012007e:	55                   	push   %rbp
ffff80000012007f:	48 89 e5             	mov    %rsp,%rbp
ffff800000120082:	48 89 7d f8          	mov    %rdi,-0x8(%rbp)
ffff800000120086:	48 89 75 f0          	mov    %rsi,-0x10(%rbp)
ffff80000012008a:	89 55 ec             	mov    %edx,-0x14(%rbp)
ffff80000012008d:	8b 4d ec             	mov    -0x14(%rbp),%ecx
ffff800000120090:	48 8b 55 f0          	mov    -0x10(%rbp),%rdx
ffff800000120094:	48 8b 45 f8          	mov    -0x8(%rbp),%rax
ffff800000120098:	48 89 d6             	mov    %rdx,%rsi
ffff80000012009b:	48 89 c7             	mov    %rax,%rdi
ffff80000012009e:	fc                   	cld    
ffff80000012009f:	f3 a4                	rep movsb %ds:(%rsi),%es:(%rdi)
ffff8000001200a1:	48 89 f8             	mov    %rdi,%rax
ffff8000001200a4:	48 89 f2             	mov    %rsi,%rdx
ffff8000001200a7:	89 4d ec             	mov    %ecx,-0x14(%rbp)
ffff8000001200aa:	48 89 55 f0          	mov    %rdx,-0x10(%rbp)
ffff8000001200ae:	48 89 45 f8          	mov    %rax,-0x8(%rbp)
ffff8000001200b2:	48 8b 45 f8          	mov    -0x8(%rbp),%rax
ffff8000001200b6:	5d                   	pop    %rbp
ffff8000001200b7:	c3                   	retq   

ffff8000001200b8 <memcmp>:
ffff8000001200b8:	55                   	push   %rbp
ffff8000001200b9:	48 89 e5             	mov    %rsp,%rbp
ffff8000001200bc:	48 89 7d e8          	mov    %rdi,-0x18(%rbp)
ffff8000001200c0:	48 89 75 e0          	mov    %rsi,-0x20(%rbp)
ffff8000001200c4:	89 55 dc             	mov    %edx,-0x24(%rbp)
ffff8000001200c7:	c7 45 fc 00 00 00 00 	movl   $0x0,-0x4(%rbp)
ffff8000001200ce:	eb 4e                	jmp    ffff80000012011e <memcmp+0x66>
ffff8000001200d0:	8b 55 fc             	mov    -0x4(%rbp),%edx
ffff8000001200d3:	48 8b 45 e8          	mov    -0x18(%rbp),%rax
ffff8000001200d7:	48 01 d0             	add    %rdx,%rax
ffff8000001200da:	0f b6 10             	movzbl (%rax),%edx
ffff8000001200dd:	8b 4d fc             	mov    -0x4(%rbp),%ecx
ffff8000001200e0:	48 8b 45 e0          	mov    -0x20(%rbp),%rax
ffff8000001200e4:	48 01 c8             	add    %rcx,%rax
ffff8000001200e7:	0f b6 00             	movzbl (%rax),%eax
ffff8000001200ea:	38 c2                	cmp    %al,%dl
ffff8000001200ec:	7d 07                	jge    ffff8000001200f5 <memcmp+0x3d>
ffff8000001200ee:	b8 ff ff ff ff       	mov    $0xffffffff,%eax
ffff8000001200f3:	eb 36                	jmp    ffff80000012012b <memcmp+0x73>
ffff8000001200f5:	8b 55 fc             	mov    -0x4(%rbp),%edx
ffff8000001200f8:	48 8b 45 e8          	mov    -0x18(%rbp),%rax
ffff8000001200fc:	48 01 d0             	add    %rdx,%rax
ffff8000001200ff:	0f b6 10             	movzbl (%rax),%edx
ffff800000120102:	8b 4d fc             	mov    -0x4(%rbp),%ecx
ffff800000120105:	48 8b 45 e0          	mov    -0x20(%rbp),%rax
ffff800000120109:	48 01 c8             	add    %rcx,%rax
ffff80000012010c:	0f b6 00             	movzbl (%rax),%eax
ffff80000012010f:	38 c2                	cmp    %al,%dl
ffff800000120111:	7e 07                	jle    ffff80000012011a <memcmp+0x62>
ffff800000120113:	b8 01 00 00 00       	mov    $0x1,%eax
ffff800000120118:	eb 11                	jmp    ffff80000012012b <memcmp+0x73>
ffff80000012011a:	83 45 fc 01          	addl   $0x1,-0x4(%rbp)
ffff80000012011e:	8b 45 dc             	mov    -0x24(%rbp),%eax
ffff800000120121:	39 45 fc             	cmp    %eax,-0x4(%rbp)
ffff800000120124:	72 aa                	jb     ffff8000001200d0 <memcmp+0x18>
ffff800000120126:	b8 00 00 00 00       	mov    $0x0,%eax
ffff80000012012b:	5d                   	pop    %rbp
ffff80000012012c:	c3                   	retq   

ffff80000012012d <strdup>:
ffff80000012012d:	55                   	push   %rbp
ffff80000012012e:	48 89 e5             	mov    %rsp,%rbp
ffff800000120131:	48 83 ec 20          	sub    $0x20,%rsp
ffff800000120135:	48 89 7d e8          	mov    %rdi,-0x18(%rbp)
ffff800000120139:	48 8b 45 e8          	mov    -0x18(%rbp),%rax
ffff80000012013d:	48 89 c7             	mov    %rax,%rdi
ffff800000120140:	48 b8 cc 02 12 00 00 	movabs $0xffff8000001202cc,%rax
ffff800000120147:	80 ff ff 
ffff80000012014a:	ff d0                	callq  *%rax
ffff80000012014c:	89 45 fc             	mov    %eax,-0x4(%rbp)
ffff80000012014f:	8b 45 fc             	mov    -0x4(%rbp),%eax
ffff800000120152:	83 c0 01             	add    $0x1,%eax
ffff800000120155:	89 c7                	mov    %eax,%edi
ffff800000120157:	48 b8 31 de 11 00 00 	movabs $0xffff80000011de31,%rax
ffff80000012015e:	80 ff ff 
ffff800000120161:	ff d0                	callq  *%rax
ffff800000120163:	48 89 45 f0          	mov    %rax,-0x10(%rbp)
ffff800000120167:	8b 45 fc             	mov    -0x4(%rbp),%eax
ffff80000012016a:	83 c0 01             	add    $0x1,%eax
ffff80000012016d:	89 c2                	mov    %eax,%edx
ffff80000012016f:	48 8b 4d e8          	mov    -0x18(%rbp),%rcx
ffff800000120173:	48 8b 45 f0          	mov    -0x10(%rbp),%rax
ffff800000120177:	48 89 ce             	mov    %rcx,%rsi
ffff80000012017a:	48 89 c7             	mov    %rax,%rdi
ffff80000012017d:	48 b8 7e 00 12 00 00 	movabs $0xffff80000012007e,%rax
ffff800000120184:	80 ff ff 
ffff800000120187:	ff d0                	callq  *%rax
ffff800000120189:	48 8b 45 f0          	mov    -0x10(%rbp),%rax
ffff80000012018d:	c9                   	leaveq 
ffff80000012018e:	c3                   	retq   

ffff80000012018f <strcat>:
ffff80000012018f:	55                   	push   %rbp
ffff800000120190:	48 89 e5             	mov    %rsp,%rbp
ffff800000120193:	48 83 ec 20          	sub    $0x20,%rsp
ffff800000120197:	48 89 7d e8          	mov    %rdi,-0x18(%rbp)
ffff80000012019b:	48 89 75 e0          	mov    %rsi,-0x20(%rbp)
ffff80000012019f:	c7 45 fc 00 00 00 00 	movl   $0x0,-0x4(%rbp)
ffff8000001201a6:	eb 04                	jmp    ffff8000001201ac <strcat+0x1d>
ffff8000001201a8:	83 45 fc 01          	addl   $0x1,-0x4(%rbp)
ffff8000001201ac:	8b 45 fc             	mov    -0x4(%rbp),%eax
ffff8000001201af:	48 63 d0             	movslq %eax,%rdx
ffff8000001201b2:	48 8b 45 e8          	mov    -0x18(%rbp),%rax
ffff8000001201b6:	48 01 d0             	add    %rdx,%rax
ffff8000001201b9:	0f b6 00             	movzbl (%rax),%eax
ffff8000001201bc:	84 c0                	test   %al,%al
ffff8000001201be:	75 e8                	jne    ffff8000001201a8 <strcat+0x19>
ffff8000001201c0:	8b 45 fc             	mov    -0x4(%rbp),%eax
ffff8000001201c3:	89 45 f8             	mov    %eax,-0x8(%rbp)
ffff8000001201c6:	c7 45 fc 00 00 00 00 	movl   $0x0,-0x4(%rbp)
ffff8000001201cd:	eb 04                	jmp    ffff8000001201d3 <strcat+0x44>
ffff8000001201cf:	83 45 fc 01          	addl   $0x1,-0x4(%rbp)
ffff8000001201d3:	8b 45 fc             	mov    -0x4(%rbp),%eax
ffff8000001201d6:	48 63 d0             	movslq %eax,%rdx
ffff8000001201d9:	48 8b 45 e0          	mov    -0x20(%rbp),%rax
ffff8000001201dd:	48 01 d0             	add    %rdx,%rax
ffff8000001201e0:	0f b6 00             	movzbl (%rax),%eax
ffff8000001201e3:	84 c0                	test   %al,%al
ffff8000001201e5:	75 e8                	jne    ffff8000001201cf <strcat+0x40>
ffff8000001201e7:	8b 45 fc             	mov    -0x4(%rbp),%eax
ffff8000001201ea:	89 45 f4             	mov    %eax,-0xc(%rbp)
ffff8000001201ed:	8b 45 f4             	mov    -0xc(%rbp),%eax
ffff8000001201f0:	83 c0 01             	add    $0x1,%eax
ffff8000001201f3:	89 c6                	mov    %eax,%esi
ffff8000001201f5:	8b 45 f8             	mov    -0x8(%rbp),%eax
ffff8000001201f8:	48 63 d0             	movslq %eax,%rdx
ffff8000001201fb:	48 8b 45 e8          	mov    -0x18(%rbp),%rax
ffff8000001201ff:	48 8d 0c 02          	lea    (%rdx,%rax,1),%rcx
ffff800000120203:	48 8b 45 e0          	mov    -0x20(%rbp),%rax
ffff800000120207:	89 f2                	mov    %esi,%edx
ffff800000120209:	48 89 c6             	mov    %rax,%rsi
ffff80000012020c:	48 89 cf             	mov    %rcx,%rdi
ffff80000012020f:	48 b8 7e 00 12 00 00 	movabs $0xffff80000012007e,%rax
ffff800000120216:	80 ff ff 
ffff800000120219:	ff d0                	callq  *%rax
ffff80000012021b:	8b 55 f8             	mov    -0x8(%rbp),%edx
ffff80000012021e:	8b 45 f4             	mov    -0xc(%rbp),%eax
ffff800000120221:	01 d0                	add    %edx,%eax
ffff800000120223:	c9                   	leaveq 
ffff800000120224:	c3                   	retq   

ffff800000120225 <strcpy>:
ffff800000120225:	55                   	push   %rbp
ffff800000120226:	48 89 e5             	mov    %rsp,%rbp
ffff800000120229:	48 83 ec 20          	sub    $0x20,%rsp
ffff80000012022d:	48 89 7d e8          	mov    %rdi,-0x18(%rbp)
ffff800000120231:	48 89 75 e0          	mov    %rsi,-0x20(%rbp)
ffff800000120235:	48 8b 45 e0          	mov    -0x20(%rbp),%rax
ffff800000120239:	48 89 c7             	mov    %rax,%rdi
ffff80000012023c:	48 b8 cc 02 12 00 00 	movabs $0xffff8000001202cc,%rax
ffff800000120243:	80 ff ff 
ffff800000120246:	ff d0                	callq  *%rax
ffff800000120248:	89 45 fc             	mov    %eax,-0x4(%rbp)
ffff80000012024b:	8b 45 fc             	mov    -0x4(%rbp),%eax
ffff80000012024e:	83 c0 01             	add    $0x1,%eax
ffff800000120251:	89 c2                	mov    %eax,%edx
ffff800000120253:	48 8b 4d e0          	mov    -0x20(%rbp),%rcx
ffff800000120257:	48 8b 45 e8          	mov    -0x18(%rbp),%rax
ffff80000012025b:	48 89 ce             	mov    %rcx,%rsi
ffff80000012025e:	48 89 c7             	mov    %rax,%rdi
ffff800000120261:	48 b8 7e 00 12 00 00 	movabs $0xffff80000012007e,%rax
ffff800000120268:	80 ff ff 
ffff80000012026b:	ff d0                	callq  *%rax
ffff80000012026d:	48 8b 45 e8          	mov    -0x18(%rbp),%rax
ffff800000120271:	c9                   	leaveq 
ffff800000120272:	c3                   	retq   

ffff800000120273 <set_intr>:
ffff800000120273:	55                   	push   %rbp
ffff800000120274:	48 89 e5             	mov    %rsp,%rbp
ffff800000120277:	48 83 ec 20          	sub    $0x20,%rsp
ffff80000012027b:	89 f8                	mov    %edi,%eax
ffff80000012027d:	88 45 ec             	mov    %al,-0x14(%rbp)
ffff800000120280:	48 b8 dd 12 12 00 00 	movabs $0xffff8000001212dd,%rax
ffff800000120287:	80 ff ff 
ffff80000012028a:	ff d0                	callq  *%rax
ffff80000012028c:	48 89 45 f8          	mov    %rax,-0x8(%rbp)
ffff800000120290:	80 7d ec 01          	cmpb   $0x1,-0x14(%rbp)
ffff800000120294:	75 0e                	jne    ffff8000001202a4 <set_intr+0x31>
ffff800000120296:	48 b8 d9 12 12 00 00 	movabs $0xffff8000001212d9,%rax
ffff80000012029d:	80 ff ff 
ffff8000001202a0:	ff d0                	callq  *%rax
ffff8000001202a2:	eb 0c                	jmp    ffff8000001202b0 <set_intr+0x3d>
ffff8000001202a4:	48 b8 db 12 12 00 00 	movabs $0xffff8000001212db,%rax
ffff8000001202ab:	80 ff ff 
ffff8000001202ae:	ff d0                	callq  *%rax
ffff8000001202b0:	48 8b 45 f8          	mov    -0x8(%rbp),%rax
ffff8000001202b4:	25 00 02 00 00       	and    $0x200,%eax
ffff8000001202b9:	48 85 c0             	test   %rax,%rax
ffff8000001202bc:	74 07                	je     ffff8000001202c5 <set_intr+0x52>
ffff8000001202be:	b8 01 00 00 00       	mov    $0x1,%eax
ffff8000001202c3:	eb 05                	jmp    ffff8000001202ca <set_intr+0x57>
ffff8000001202c5:	b8 00 00 00 00       	mov    $0x0,%eax
ffff8000001202ca:	c9                   	leaveq 
ffff8000001202cb:	c3                   	retq   

ffff8000001202cc <strlen>:
ffff8000001202cc:	55                   	push   %rbp
ffff8000001202cd:	48 89 e5             	mov    %rsp,%rbp
ffff8000001202d0:	48 89 7d e8          	mov    %rdi,-0x18(%rbp)
ffff8000001202d4:	c7 45 fc 00 00 00 00 	movl   $0x0,-0x4(%rbp)
ffff8000001202db:	eb 04                	jmp    ffff8000001202e1 <strlen+0x15>
ffff8000001202dd:	83 45 fc 01          	addl   $0x1,-0x4(%rbp)
ffff8000001202e1:	8b 45 fc             	mov    -0x4(%rbp),%eax
ffff8000001202e4:	48 63 d0             	movslq %eax,%rdx
ffff8000001202e7:	48 8b 45 e8          	mov    -0x18(%rbp),%rax
ffff8000001202eb:	48 01 d0             	add    %rdx,%rax
ffff8000001202ee:	0f b6 00             	movzbl (%rax),%eax
ffff8000001202f1:	84 c0                	test   %al,%al
ffff8000001202f3:	75 e8                	jne    ffff8000001202dd <strlen+0x11>
ffff8000001202f5:	8b 45 fc             	mov    -0x4(%rbp),%eax
ffff8000001202f8:	5d                   	pop    %rbp
ffff8000001202f9:	c3                   	retq   

ffff8000001202fa <get_memsize>:
ffff8000001202fa:	55                   	push   %rbp
ffff8000001202fb:	48 89 e5             	mov    %rsp,%rbp
ffff8000001202fe:	b8 80 00 00 00       	mov    $0x80,%eax
ffff800000120303:	5d                   	pop    %rbp
ffff800000120304:	c3                   	retq   

ffff800000120305 <atoi>:
ffff800000120305:	55                   	push   %rbp
ffff800000120306:	48 89 e5             	mov    %rsp,%rbp
ffff800000120309:	48 83 ec 28          	sub    $0x28,%rsp
ffff80000012030d:	48 89 7d d8          	mov    %rdi,-0x28(%rbp)
ffff800000120311:	48 8b 45 d8          	mov    -0x28(%rbp),%rax
ffff800000120315:	48 89 c7             	mov    %rax,%rdi
ffff800000120318:	48 b8 cc 02 12 00 00 	movabs $0xffff8000001202cc,%rax
ffff80000012031f:	80 ff ff 
ffff800000120322:	ff d0                	callq  *%rax
ffff800000120324:	48 98                	cltq   
ffff800000120326:	48 89 45 e0          	mov    %rax,-0x20(%rbp)
ffff80000012032a:	48 c7 45 f8 00 00 00 	movq   $0x0,-0x8(%rbp)
ffff800000120331:	00 
ffff800000120332:	48 c7 45 e8 01 00 00 	movq   $0x1,-0x18(%rbp)
ffff800000120339:	00 
ffff80000012033a:	48 8b 45 e0          	mov    -0x20(%rbp),%rax
ffff80000012033e:	48 89 45 f0          	mov    %rax,-0x10(%rbp)
ffff800000120342:	eb 3d                	jmp    ffff800000120381 <atoi+0x7c>
ffff800000120344:	48 8b 45 f0          	mov    -0x10(%rbp),%rax
ffff800000120348:	48 8d 50 ff          	lea    -0x1(%rax),%rdx
ffff80000012034c:	48 8b 45 d8          	mov    -0x28(%rbp),%rax
ffff800000120350:	48 01 d0             	add    %rdx,%rax
ffff800000120353:	0f b6 00             	movzbl (%rax),%eax
ffff800000120356:	0f be c0             	movsbl %al,%eax
ffff800000120359:	83 e8 30             	sub    $0x30,%eax
ffff80000012035c:	48 98                	cltq   
ffff80000012035e:	48 0f af 45 e8       	imul   -0x18(%rbp),%rax
ffff800000120363:	48 01 45 f8          	add    %rax,-0x8(%rbp)
ffff800000120367:	48 8b 55 e8          	mov    -0x18(%rbp),%rdx
ffff80000012036b:	48 89 d0             	mov    %rdx,%rax
ffff80000012036e:	48 c1 e0 02          	shl    $0x2,%rax
ffff800000120372:	48 01 d0             	add    %rdx,%rax
ffff800000120375:	48 01 c0             	add    %rax,%rax
ffff800000120378:	48 89 45 e8          	mov    %rax,-0x18(%rbp)
ffff80000012037c:	48 83 6d f0 01       	subq   $0x1,-0x10(%rbp)
ffff800000120381:	48 83 7d f0 00       	cmpq   $0x0,-0x10(%rbp)
ffff800000120386:	75 bc                	jne    ffff800000120344 <atoi+0x3f>
ffff800000120388:	48 8b 45 f8          	mov    -0x8(%rbp),%rax
ffff80000012038c:	c9                   	leaveq 
ffff80000012038d:	c3                   	retq   

ffff80000012038e <itoa>:
ffff80000012038e:	55                   	push   %rbp
ffff80000012038f:	48 89 e5             	mov    %rsp,%rbp
ffff800000120392:	48 83 ec 30          	sub    $0x30,%rsp
ffff800000120396:	48 89 7d e8          	mov    %rdi,-0x18(%rbp)
ffff80000012039a:	48 89 75 e0          	mov    %rsi,-0x20(%rbp)
ffff80000012039e:	89 55 dc             	mov    %edx,-0x24(%rbp)
ffff8000001203a1:	8b 45 dc             	mov    -0x24(%rbp),%eax
ffff8000001203a4:	83 f8 10             	cmp    $0x10,%eax
ffff8000001203a7:	75 26                	jne    ffff8000001203cf <itoa+0x41>
ffff8000001203a9:	48 8b 45 e8          	mov    -0x18(%rbp),%rax
ffff8000001203ad:	48 8d 4d f8          	lea    -0x8(%rbp),%rcx
ffff8000001203b1:	48 8b 55 e0          	mov    -0x20(%rbp),%rdx
ffff8000001203b5:	be 00 00 00 00       	mov    $0x0,%esi
ffff8000001203ba:	48 89 c7             	mov    %rax,%rdi
ffff8000001203bd:	48 b8 ea f3 11 00 00 	movabs $0xffff80000011f3ea,%rax
ffff8000001203c4:	80 ff ff 
ffff8000001203c7:	ff d0                	callq  *%rax
ffff8000001203c9:	48 8b 45 f8          	mov    -0x8(%rbp),%rax
ffff8000001203cd:	eb 24                	jmp    ffff8000001203f3 <itoa+0x65>
ffff8000001203cf:	48 8b 45 e8          	mov    -0x18(%rbp),%rax
ffff8000001203d3:	48 8d 4d f8          	lea    -0x8(%rbp),%rcx
ffff8000001203d7:	48 8b 55 e0          	mov    -0x20(%rbp),%rdx
ffff8000001203db:	be 00 00 00 00       	mov    $0x0,%esi
ffff8000001203e0:	48 89 c7             	mov    %rax,%rdi
ffff8000001203e3:	48 b8 aa f2 11 00 00 	movabs $0xffff80000011f2aa,%rax
ffff8000001203ea:	80 ff ff 
ffff8000001203ed:	ff d0                	callq  *%rax
ffff8000001203ef:	48 8b 45 f8          	mov    -0x8(%rbp),%rax
ffff8000001203f3:	c9                   	leaveq 
ffff8000001203f4:	c3                   	retq   

ffff8000001203f5 <str_reverse>:
ffff8000001203f5:	55                   	push   %rbp
ffff8000001203f6:	48 89 e5             	mov    %rsp,%rbp
ffff8000001203f9:	48 83 ec 18          	sub    $0x18,%rsp
ffff8000001203fd:	48 89 7d e8          	mov    %rdi,-0x18(%rbp)
ffff800000120401:	48 8b 45 e8          	mov    -0x18(%rbp),%rax
ffff800000120405:	48 89 c7             	mov    %rax,%rdi
ffff800000120408:	48 b8 cc 02 12 00 00 	movabs $0xffff8000001202cc,%rax
ffff80000012040f:	80 ff ff 
ffff800000120412:	ff d0                	callq  *%rax
ffff800000120414:	89 45 f8             	mov    %eax,-0x8(%rbp)
ffff800000120417:	c7 45 fc 00 00 00 00 	movl   $0x0,-0x4(%rbp)
ffff80000012041e:	eb 57                	jmp    ffff800000120477 <str_reverse+0x82>
ffff800000120420:	8b 45 fc             	mov    -0x4(%rbp),%eax
ffff800000120423:	48 63 d0             	movslq %eax,%rdx
ffff800000120426:	48 8b 45 e8          	mov    -0x18(%rbp),%rax
ffff80000012042a:	48 01 d0             	add    %rdx,%rax
ffff80000012042d:	0f b6 00             	movzbl (%rax),%eax
ffff800000120430:	0f be c0             	movsbl %al,%eax
ffff800000120433:	89 45 f4             	mov    %eax,-0xc(%rbp)
ffff800000120436:	8b 45 fc             	mov    -0x4(%rbp),%eax
ffff800000120439:	48 63 d0             	movslq %eax,%rdx
ffff80000012043c:	48 8b 45 e8          	mov    -0x18(%rbp),%rax
ffff800000120440:	48 01 c2             	add    %rax,%rdx
ffff800000120443:	8b 45 f8             	mov    -0x8(%rbp),%eax
ffff800000120446:	83 e8 01             	sub    $0x1,%eax
ffff800000120449:	2b 45 fc             	sub    -0x4(%rbp),%eax
ffff80000012044c:	48 63 c8             	movslq %eax,%rcx
ffff80000012044f:	48 8b 45 e8          	mov    -0x18(%rbp),%rax
ffff800000120453:	48 01 c8             	add    %rcx,%rax
ffff800000120456:	0f b6 00             	movzbl (%rax),%eax
ffff800000120459:	88 02                	mov    %al,(%rdx)
ffff80000012045b:	8b 45 f8             	mov    -0x8(%rbp),%eax
ffff80000012045e:	83 e8 01             	sub    $0x1,%eax
ffff800000120461:	2b 45 fc             	sub    -0x4(%rbp),%eax
ffff800000120464:	48 63 d0             	movslq %eax,%rdx
ffff800000120467:	48 8b 45 e8          	mov    -0x18(%rbp),%rax
ffff80000012046b:	48 01 d0             	add    %rdx,%rax
ffff80000012046e:	8b 55 f4             	mov    -0xc(%rbp),%edx
ffff800000120471:	88 10                	mov    %dl,(%rax)
ffff800000120473:	83 45 fc 01          	addl   $0x1,-0x4(%rbp)
ffff800000120477:	8b 45 f8             	mov    -0x8(%rbp),%eax
ffff80000012047a:	89 c2                	mov    %eax,%edx
ffff80000012047c:	c1 ea 1f             	shr    $0x1f,%edx
ffff80000012047f:	01 d0                	add    %edx,%eax
ffff800000120481:	d1 f8                	sar    %eax
ffff800000120483:	3b 45 fc             	cmp    -0x4(%rbp),%eax
ffff800000120486:	7f 98                	jg     ffff800000120420 <str_reverse+0x2b>
ffff800000120488:	90                   	nop
ffff800000120489:	c9                   	leaveq 
ffff80000012048a:	c3                   	retq   

ffff80000012048b <sleep>:
ffff80000012048b:	55                   	push   %rbp
ffff80000012048c:	48 89 e5             	mov    %rsp,%rbp
ffff80000012048f:	48 83 ec 20          	sub    $0x20,%rsp
ffff800000120493:	48 89 7d e8          	mov    %rdi,-0x18(%rbp)
ffff800000120497:	48 b8 b0 2b 12 00 00 	movabs $0xffff800000122bb0,%rax
ffff80000012049e:	80 ff ff 
ffff8000001204a1:	48 8b 00             	mov    (%rax),%rax
ffff8000001204a4:	48 89 45 f8          	mov    %rax,-0x8(%rbp)
ffff8000001204a8:	eb 11                	jmp    ffff8000001204bb <sleep+0x30>
ffff8000001204aa:	b8 00 00 00 00       	mov    $0x0,%eax
ffff8000001204af:	48 ba ce 05 12 00 00 	movabs $0xffff8000001205ce,%rdx
ffff8000001204b6:	80 ff ff 
ffff8000001204b9:	ff d2                	callq  *%rdx
ffff8000001204bb:	48 b8 b0 2b 12 00 00 	movabs $0xffff800000122bb0,%rax
ffff8000001204c2:	80 ff ff 
ffff8000001204c5:	48 8b 00             	mov    (%rax),%rax
ffff8000001204c8:	48 2b 45 f8          	sub    -0x8(%rbp),%rax
ffff8000001204cc:	48 3b 45 e8          	cmp    -0x18(%rbp),%rax
ffff8000001204d0:	76 d8                	jbe    ffff8000001204aa <sleep+0x1f>
ffff8000001204d2:	90                   	nop
ffff8000001204d3:	c9                   	leaveq 
ffff8000001204d4:	c3                   	retq   

ffff8000001204d5 <do_simple_schedule>:
ffff8000001204d5:	55                   	push   %rbp
ffff8000001204d6:	48 89 e5             	mov    %rsp,%rbp
ffff8000001204d9:	48 83 ec 20          	sub    $0x20,%rsp
ffff8000001204dd:	48 b8 18 c7 11 00 00 	movabs $0xffff80000011c718,%rax
ffff8000001204e4:	80 ff ff 
ffff8000001204e7:	ff d0                	callq  *%rax
ffff8000001204e9:	0f b6 c0             	movzbl %al,%eax
ffff8000001204ec:	89 45 fc             	mov    %eax,-0x4(%rbp)
ffff8000001204ef:	48 bf e0 37 12 00 00 	movabs $0xffff8000001237e0,%rdi
ffff8000001204f6:	80 ff ff 
ffff8000001204f9:	48 b8 54 fc 11 00 00 	movabs $0xffff80000011fc54,%rax
ffff800000120500:	80 ff ff 
ffff800000120503:	ff d0                	callq  *%rax
ffff800000120505:	48 b8 21 0b 12 00 00 	movabs $0xffff800000120b21,%rax
ffff80000012050c:	80 ff ff 
ffff80000012050f:	ff d0                	callq  *%rax
ffff800000120511:	48 89 45 f0          	mov    %rax,-0x10(%rbp)
ffff800000120515:	48 83 7d f0 00       	cmpq   $0x0,-0x10(%rbp)
ffff80000012051a:	75 1b                	jne    ffff800000120537 <do_simple_schedule+0x62>
ffff80000012051c:	48 bf e0 37 12 00 00 	movabs $0xffff8000001237e0,%rdi
ffff800000120523:	80 ff ff 
ffff800000120526:	48 b8 31 fd 11 00 00 	movabs $0xffff80000011fd31,%rax
ffff80000012052d:	80 ff ff 
ffff800000120530:	ff d0                	callq  *%rax
ffff800000120532:	e9 95 00 00 00       	jmpq   ffff8000001205cc <do_simple_schedule+0xf7>
ffff800000120537:	48 b8 e0 37 12 00 00 	movabs $0xffff8000001237e0,%rax
ffff80000012053e:	80 ff ff 
ffff800000120541:	8b 55 fc             	mov    -0x4(%rbp),%edx
ffff800000120544:	48 8b 44 d0 08       	mov    0x8(%rax,%rdx,8),%rax
ffff800000120549:	48 89 45 e8          	mov    %rax,-0x18(%rbp)
ffff80000012054d:	48 b8 e0 37 12 00 00 	movabs $0xffff8000001237e0,%rax
ffff800000120554:	80 ff ff 
ffff800000120557:	8b 55 fc             	mov    -0x4(%rbp),%edx
ffff80000012055a:	48 8b 4d f0          	mov    -0x10(%rbp),%rcx
ffff80000012055e:	48 89 4c d0 08       	mov    %rcx,0x8(%rax,%rdx,8)
ffff800000120563:	48 b8 e0 37 12 00 00 	movabs $0xffff8000001237e0,%rax
ffff80000012056a:	80 ff ff 
ffff80000012056d:	8b 55 fc             	mov    -0x4(%rbp),%edx
ffff800000120570:	48 83 c2 04          	add    $0x4,%rdx
ffff800000120574:	48 8b 44 d0 08       	mov    0x8(%rax,%rdx,8),%rax
ffff800000120579:	48 3b 45 f0          	cmp    -0x10(%rbp),%rax
ffff80000012057d:	74 13                	je     ffff800000120592 <do_simple_schedule+0xbd>
ffff80000012057f:	b8 00 00 00 00       	mov    $0x0,%eax
ffff800000120584:	48 ba b8 13 12 00 00 	movabs $0xffff8000001213b8,%rdx
ffff80000012058b:	80 ff ff 
ffff80000012058e:	ff d2                	callq  *%rdx
ffff800000120590:	eb 11                	jmp    ffff8000001205a3 <do_simple_schedule+0xce>
ffff800000120592:	b8 00 00 00 00       	mov    $0x0,%eax
ffff800000120597:	48 ba c5 13 12 00 00 	movabs $0xffff8000001213c5,%rdx
ffff80000012059e:	80 ff ff 
ffff8000001205a1:	ff d2                	callq  *%rdx
ffff8000001205a3:	48 8b 45 e8          	mov    -0x18(%rbp),%rax
ffff8000001205a7:	48 89 c7             	mov    %rax,%rdi
ffff8000001205aa:	48 b8 5b 0b 12 00 00 	movabs $0xffff800000120b5b,%rax
ffff8000001205b1:	80 ff ff 
ffff8000001205b4:	ff d0                	callq  *%rax
ffff8000001205b6:	48 bf e0 37 12 00 00 	movabs $0xffff8000001237e0,%rdi
ffff8000001205bd:	80 ff ff 
ffff8000001205c0:	48 b8 31 fd 11 00 00 	movabs $0xffff80000011fd31,%rax
ffff8000001205c7:	80 ff ff 
ffff8000001205ca:	ff d0                	callq  *%rax
ffff8000001205cc:	c9                   	leaveq 
ffff8000001205cd:	c3                   	retq   

ffff8000001205ce <schedule>:
ffff8000001205ce:	55                   	push   %rbp
ffff8000001205cf:	48 89 e5             	mov    %rsp,%rbp
ffff8000001205d2:	48 83 ec 20          	sub    $0x20,%rsp
ffff8000001205d6:	bf 00 00 00 00       	mov    $0x0,%edi
ffff8000001205db:	48 b8 73 02 12 00 00 	movabs $0xffff800000120273,%rax
ffff8000001205e2:	80 ff ff 
ffff8000001205e5:	ff d0                	callq  *%rax
ffff8000001205e7:	88 45 ff             	mov    %al,-0x1(%rbp)
ffff8000001205ea:	48 b8 18 c7 11 00 00 	movabs $0xffff80000011c718,%rax
ffff8000001205f1:	80 ff ff 
ffff8000001205f4:	ff d0                	callq  *%rax
ffff8000001205f6:	88 45 fe             	mov    %al,-0x2(%rbp)
ffff8000001205f9:	48 b8 e4 0c 12 00 00 	movabs $0xffff800000120ce4,%rax
ffff800000120600:	80 ff ff 
ffff800000120603:	ff d0                	callq  *%rax
ffff800000120605:	85 c0                	test   %eax,%eax
ffff800000120607:	7f 1c                	jg     ffff800000120625 <schedule+0x57>
ffff800000120609:	0f b6 45 ff          	movzbl -0x1(%rbp),%eax
ffff80000012060d:	89 c7                	mov    %eax,%edi
ffff80000012060f:	48 b8 73 02 12 00 00 	movabs $0xffff800000120273,%rax
ffff800000120616:	80 ff ff 
ffff800000120619:	ff d0                	callq  *%rax
ffff80000012061b:	b8 00 00 00 00       	mov    $0x0,%eax
ffff800000120620:	e9 1f 02 00 00       	jmpq   ffff800000120844 <schedule+0x276>
ffff800000120625:	48 bf e0 37 12 00 00 	movabs $0xffff8000001237e0,%rdi
ffff80000012062c:	80 ff ff 
ffff80000012062f:	48 b8 54 fc 11 00 00 	movabs $0xffff80000011fc54,%rax
ffff800000120636:	80 ff ff 
ffff800000120639:	ff d0                	callq  *%rax
ffff80000012063b:	48 b8 21 0b 12 00 00 	movabs $0xffff800000120b21,%rax
ffff800000120642:	80 ff ff 
ffff800000120645:	ff d0                	callq  *%rax
ffff800000120647:	48 89 45 f0          	mov    %rax,-0x10(%rbp)
ffff80000012064b:	48 83 7d f0 00       	cmpq   $0x0,-0x10(%rbp)
ffff800000120650:	75 32                	jne    ffff800000120684 <schedule+0xb6>
ffff800000120652:	48 bf e0 37 12 00 00 	movabs $0xffff8000001237e0,%rdi
ffff800000120659:	80 ff ff 
ffff80000012065c:	48 b8 31 fd 11 00 00 	movabs $0xffff80000011fd31,%rax
ffff800000120663:	80 ff ff 
ffff800000120666:	ff d0                	callq  *%rax
ffff800000120668:	0f b6 45 ff          	movzbl -0x1(%rbp),%eax
ffff80000012066c:	89 c7                	mov    %eax,%edi
ffff80000012066e:	48 b8 73 02 12 00 00 	movabs $0xffff800000120273,%rax
ffff800000120675:	80 ff ff 
ffff800000120678:	ff d0                	callq  *%rax
ffff80000012067a:	b8 00 00 00 00       	mov    $0x0,%eax
ffff80000012067f:	e9 c0 01 00 00       	jmpq   ffff800000120844 <schedule+0x276>
ffff800000120684:	0f b6 55 fe          	movzbl -0x2(%rbp),%edx
ffff800000120688:	48 b8 e0 37 12 00 00 	movabs $0xffff8000001237e0,%rax
ffff80000012068f:	80 ff ff 
ffff800000120692:	48 63 d2             	movslq %edx,%rdx
ffff800000120695:	48 8b 44 d0 08       	mov    0x8(%rax,%rdx,8),%rax
ffff80000012069a:	48 89 45 e8          	mov    %rax,-0x18(%rbp)
ffff80000012069e:	0f b6 55 fe          	movzbl -0x2(%rbp),%edx
ffff8000001206a2:	48 b8 e0 37 12 00 00 	movabs $0xffff8000001237e0,%rax
ffff8000001206a9:	80 ff ff 
ffff8000001206ac:	48 63 d2             	movslq %edx,%rdx
ffff8000001206af:	48 8b 4d f0          	mov    -0x10(%rbp),%rcx
ffff8000001206b3:	48 89 4c d0 08       	mov    %rcx,0x8(%rax,%rdx,8)
ffff8000001206b8:	0f b6 55 fe          	movzbl -0x2(%rbp),%edx
ffff8000001206bc:	48 b8 e0 37 12 00 00 	movabs $0xffff8000001237e0,%rax
ffff8000001206c3:	80 ff ff 
ffff8000001206c6:	48 63 d2             	movslq %edx,%rdx
ffff8000001206c9:	48 83 c2 04          	add    $0x4,%rdx
ffff8000001206cd:	48 8b 44 d0 08       	mov    0x8(%rax,%rdx,8),%rax
ffff8000001206d2:	48 3b 45 f0          	cmp    -0x10(%rbp),%rax
ffff8000001206d6:	74 13                	je     ffff8000001206eb <schedule+0x11d>
ffff8000001206d8:	b8 00 00 00 00       	mov    $0x0,%eax
ffff8000001206dd:	48 ba b8 13 12 00 00 	movabs $0xffff8000001213b8,%rdx
ffff8000001206e4:	80 ff ff 
ffff8000001206e7:	ff d2                	callq  *%rdx
ffff8000001206e9:	eb 11                	jmp    ffff8000001206fc <schedule+0x12e>
ffff8000001206eb:	b8 00 00 00 00       	mov    $0x0,%eax
ffff8000001206f0:	48 ba c5 13 12 00 00 	movabs $0xffff8000001213c5,%rdx
ffff8000001206f7:	80 ff ff 
ffff8000001206fa:	ff d2                	callq  *%rdx
ffff8000001206fc:	48 83 7d e8 00       	cmpq   $0x0,-0x18(%rbp)
ffff800000120701:	75 3c                	jne    ffff80000012073f <schedule+0x171>
ffff800000120703:	48 bf e0 37 12 00 00 	movabs $0xffff8000001237e0,%rdi
ffff80000012070a:	80 ff ff 
ffff80000012070d:	48 b8 31 fd 11 00 00 	movabs $0xffff80000011fd31,%rax
ffff800000120714:	80 ff ff 
ffff800000120717:	ff d0                	callq  *%rax
ffff800000120719:	48 8b 45 f0          	mov    -0x10(%rbp),%rax
ffff80000012071d:	48 83 c0 20          	add    $0x20,%rax
ffff800000120721:	48 89 c6             	mov    %rax,%rsi
ffff800000120724:	bf 00 00 00 00       	mov    $0x0,%edi
ffff800000120729:	b8 00 00 00 00       	mov    $0x0,%eax
ffff80000012072e:	48 ba f2 12 12 00 00 	movabs $0xffff8000001212f2,%rdx
ffff800000120735:	80 ff ff 
ffff800000120738:	ff d2                	callq  *%rdx
ffff80000012073a:	e9 ee 00 00 00       	jmpq   ffff80000012082d <schedule+0x25f>
ffff80000012073f:	48 8b 45 e8          	mov    -0x18(%rbp),%rax
ffff800000120743:	48 8b 80 20 03 00 00 	mov    0x320(%rax),%rax
ffff80000012074a:	48 85 c0             	test   %rax,%rax
ffff80000012074d:	79 4f                	jns    ffff80000012079e <schedule+0x1d0>
ffff80000012074f:	48 8b 45 e8          	mov    -0x18(%rbp),%rax
ffff800000120753:	48 89 c7             	mov    %rax,%rdi
ffff800000120756:	48 b8 c8 09 12 00 00 	movabs $0xffff8000001209c8,%rax
ffff80000012075d:	80 ff ff 
ffff800000120760:	ff d0                	callq  *%rax
ffff800000120762:	48 bf e0 37 12 00 00 	movabs $0xffff8000001237e0,%rdi
ffff800000120769:	80 ff ff 
ffff80000012076c:	48 b8 31 fd 11 00 00 	movabs $0xffff80000011fd31,%rax
ffff800000120773:	80 ff ff 
ffff800000120776:	ff d0                	callq  *%rax
ffff800000120778:	48 8b 45 f0          	mov    -0x10(%rbp),%rax
ffff80000012077c:	48 83 c0 20          	add    $0x20,%rax
ffff800000120780:	48 89 c6             	mov    %rax,%rsi
ffff800000120783:	bf 00 00 00 00       	mov    $0x0,%edi
ffff800000120788:	b8 00 00 00 00       	mov    $0x0,%eax
ffff80000012078d:	48 ba f2 12 12 00 00 	movabs $0xffff8000001212f2,%rdx
ffff800000120794:	80 ff ff 
ffff800000120797:	ff d2                	callq  *%rdx
ffff800000120799:	e9 8f 00 00 00       	jmpq   ffff80000012082d <schedule+0x25f>
ffff80000012079e:	48 8b 45 e8          	mov    -0x18(%rbp),%rax
ffff8000001207a2:	48 89 c7             	mov    %rax,%rdi
ffff8000001207a5:	48 b8 5b 0b 12 00 00 	movabs $0xffff800000120b5b,%rax
ffff8000001207ac:	80 ff ff 
ffff8000001207af:	ff d0                	callq  *%rax
ffff8000001207b1:	48 bf e0 37 12 00 00 	movabs $0xffff8000001237e0,%rdi
ffff8000001207b8:	80 ff ff 
ffff8000001207bb:	48 b8 31 fd 11 00 00 	movabs $0xffff80000011fd31,%rax
ffff8000001207c2:	80 ff ff 
ffff8000001207c5:	ff d0                	callq  *%rax
ffff8000001207c7:	48 8b 45 f0          	mov    -0x10(%rbp),%rax
ffff8000001207cb:	48 8b 50 08          	mov    0x8(%rax),%rdx
ffff8000001207cf:	48 8b 45 f0          	mov    -0x10(%rbp),%rax
ffff8000001207d3:	48 8b 40 18          	mov    0x18(%rax),%rax
ffff8000001207d7:	48 89 c6             	mov    %rax,%rsi
ffff8000001207da:	48 bf 8d 16 12 00 00 	movabs $0xffff80000012168d,%rdi
ffff8000001207e1:	80 ff ff 
ffff8000001207e4:	b8 00 00 00 00       	mov    $0x0,%eax
ffff8000001207e9:	48 b9 32 f8 11 00 00 	movabs $0xffff80000011f832,%rcx
ffff8000001207f0:	80 ff ff 
ffff8000001207f3:	ff d1                	callq  *%rcx
ffff8000001207f5:	b8 00 00 00 00       	mov    $0x0,%eax
ffff8000001207fa:	48 ba e3 f0 11 00 00 	movabs $0xffff80000011f0e3,%rdx
ffff800000120801:	80 ff ff 
ffff800000120804:	ff d2                	callq  *%rdx
ffff800000120806:	48 8b 45 f0          	mov    -0x10(%rbp),%rax
ffff80000012080a:	48 8d 50 20          	lea    0x20(%rax),%rdx
ffff80000012080e:	48 8b 45 e8          	mov    -0x18(%rbp),%rax
ffff800000120812:	48 83 c0 20          	add    $0x20,%rax
ffff800000120816:	48 89 d6             	mov    %rdx,%rsi
ffff800000120819:	48 89 c7             	mov    %rax,%rdi
ffff80000012081c:	b8 00 00 00 00       	mov    $0x0,%eax
ffff800000120821:	48 ba f2 12 12 00 00 	movabs $0xffff8000001212f2,%rdx
ffff800000120828:	80 ff ff 
ffff80000012082b:	ff d2                	callq  *%rdx
ffff80000012082d:	0f b6 45 ff          	movzbl -0x1(%rbp),%eax
ffff800000120831:	89 c7                	mov    %eax,%edi
ffff800000120833:	48 b8 73 02 12 00 00 	movabs $0xffff800000120273,%rax
ffff80000012083a:	80 ff ff 
ffff80000012083d:	ff d0                	callq  *%rax
ffff80000012083f:	b8 01 00 00 00       	mov    $0x1,%eax
ffff800000120844:	c9                   	leaveq 
ffff800000120845:	c3                   	retq   

ffff800000120846 <schedule_in_intr>:
ffff800000120846:	55                   	push   %rbp
ffff800000120847:	48 89 e5             	mov    %rsp,%rbp
ffff80000012084a:	48 83 ec 30          	sub    $0x30,%rsp
ffff80000012084e:	48 89 7d d8          	mov    %rdi,-0x28(%rbp)
ffff800000120852:	48 b8 18 c7 11 00 00 	movabs $0xffff80000011c718,%rax
ffff800000120859:	80 ff ff 
ffff80000012085c:	ff d0                	callq  *%rax
ffff80000012085e:	88 45 ff             	mov    %al,-0x1(%rbp)
ffff800000120861:	48 bf e0 37 12 00 00 	movabs $0xffff8000001237e0,%rdi
ffff800000120868:	80 ff ff 
ffff80000012086b:	48 b8 54 fc 11 00 00 	movabs $0xffff80000011fc54,%rax
ffff800000120872:	80 ff ff 
ffff800000120875:	ff d0                	callq  *%rax
ffff800000120877:	48 b8 21 0b 12 00 00 	movabs $0xffff800000120b21,%rax
ffff80000012087e:	80 ff ff 
ffff800000120881:	ff d0                	callq  *%rax
ffff800000120883:	48 89 45 f0          	mov    %rax,-0x10(%rbp)
ffff800000120887:	48 83 7d f0 00       	cmpq   $0x0,-0x10(%rbp)
ffff80000012088c:	75 20                	jne    ffff8000001208ae <schedule_in_intr+0x68>
ffff80000012088e:	48 bf e0 37 12 00 00 	movabs $0xffff8000001237e0,%rdi
ffff800000120895:	80 ff ff 
ffff800000120898:	48 b8 31 fd 11 00 00 	movabs $0xffff80000011fd31,%rax
ffff80000012089f:	80 ff ff 
ffff8000001208a2:	ff d0                	callq  *%rax
ffff8000001208a4:	b8 00 00 00 00       	mov    $0x0,%eax
ffff8000001208a9:	e9 18 01 00 00       	jmpq   ffff8000001209c6 <schedule_in_intr+0x180>
ffff8000001208ae:	0f b6 55 ff          	movzbl -0x1(%rbp),%edx
ffff8000001208b2:	48 b8 e0 37 12 00 00 	movabs $0xffff8000001237e0,%rax
ffff8000001208b9:	80 ff ff 
ffff8000001208bc:	48 63 d2             	movslq %edx,%rdx
ffff8000001208bf:	48 8b 44 d0 08       	mov    0x8(%rax,%rdx,8),%rax
ffff8000001208c4:	48 89 45 e8          	mov    %rax,-0x18(%rbp)
ffff8000001208c8:	0f b6 55 ff          	movzbl -0x1(%rbp),%edx
ffff8000001208cc:	48 b8 e0 37 12 00 00 	movabs $0xffff8000001237e0,%rax
ffff8000001208d3:	80 ff ff 
ffff8000001208d6:	48 63 d2             	movslq %edx,%rdx
ffff8000001208d9:	48 8b 4d f0          	mov    -0x10(%rbp),%rcx
ffff8000001208dd:	48 89 4c d0 08       	mov    %rcx,0x8(%rax,%rdx,8)
ffff8000001208e2:	48 83 7d e8 00       	cmpq   $0x0,-0x18(%rbp)
ffff8000001208e7:	74 5b                	je     ffff800000120944 <schedule_in_intr+0xfe>
ffff8000001208e9:	48 8b 45 e8          	mov    -0x18(%rbp),%rax
ffff8000001208ed:	48 8b 80 20 03 00 00 	mov    0x320(%rax),%rax
ffff8000001208f4:	48 85 c0             	test   %rax,%rax
ffff8000001208f7:	79 15                	jns    ffff80000012090e <schedule_in_intr+0xc8>
ffff8000001208f9:	48 8b 45 e8          	mov    -0x18(%rbp),%rax
ffff8000001208fd:	48 89 c7             	mov    %rax,%rdi
ffff800000120900:	48 b8 c8 09 12 00 00 	movabs $0xffff8000001209c8,%rax
ffff800000120907:	80 ff ff 
ffff80000012090a:	ff d0                	callq  *%rax
ffff80000012090c:	eb 36                	jmp    ffff800000120944 <schedule_in_intr+0xfe>
ffff80000012090e:	48 8b 45 e8          	mov    -0x18(%rbp),%rax
ffff800000120912:	48 89 c7             	mov    %rax,%rdi
ffff800000120915:	48 b8 5b 0b 12 00 00 	movabs $0xffff800000120b5b,%rax
ffff80000012091c:	80 ff ff 
ffff80000012091f:	ff d0                	callq  *%rax
ffff800000120921:	48 8b 45 e8          	mov    -0x18(%rbp),%rax
ffff800000120925:	48 8d 48 20          	lea    0x20(%rax),%rcx
ffff800000120929:	48 8b 45 d8          	mov    -0x28(%rbp),%rax
ffff80000012092d:	ba d0 00 00 00       	mov    $0xd0,%edx
ffff800000120932:	48 89 c6             	mov    %rax,%rsi
ffff800000120935:	48 89 cf             	mov    %rcx,%rdi
ffff800000120938:	48 b8 7e 00 12 00 00 	movabs $0xffff80000012007e,%rax
ffff80000012093f:	80 ff ff 
ffff800000120942:	ff d0                	callq  *%rax
ffff800000120944:	0f b6 55 ff          	movzbl -0x1(%rbp),%edx
ffff800000120948:	48 b8 e0 37 12 00 00 	movabs $0xffff8000001237e0,%rax
ffff80000012094f:	80 ff ff 
ffff800000120952:	48 63 d2             	movslq %edx,%rdx
ffff800000120955:	48 83 c2 04          	add    $0x4,%rdx
ffff800000120959:	48 8b 44 d0 08       	mov    0x8(%rax,%rdx,8),%rax
ffff80000012095e:	48 3b 45 f0          	cmp    -0x10(%rbp),%rax
ffff800000120962:	74 13                	je     ffff800000120977 <schedule_in_intr+0x131>
ffff800000120964:	b8 00 00 00 00       	mov    $0x0,%eax
ffff800000120969:	48 ba b8 13 12 00 00 	movabs $0xffff8000001213b8,%rdx
ffff800000120970:	80 ff ff 
ffff800000120973:	ff d2                	callq  *%rdx
ffff800000120975:	eb 11                	jmp    ffff800000120988 <schedule_in_intr+0x142>
ffff800000120977:	b8 00 00 00 00       	mov    $0x0,%eax
ffff80000012097c:	48 ba c5 13 12 00 00 	movabs $0xffff8000001213c5,%rdx
ffff800000120983:	80 ff ff 
ffff800000120986:	ff d2                	callq  *%rdx
ffff800000120988:	48 bf e0 37 12 00 00 	movabs $0xffff8000001237e0,%rdi
ffff80000012098f:	80 ff ff 
ffff800000120992:	48 b8 31 fd 11 00 00 	movabs $0xffff80000011fd31,%rax
ffff800000120999:	80 ff ff 
ffff80000012099c:	ff d0                	callq  *%rax
ffff80000012099e:	48 8b 45 f0          	mov    -0x10(%rbp),%rax
ffff8000001209a2:	48 8d 48 20          	lea    0x20(%rax),%rcx
ffff8000001209a6:	48 8b 45 d8          	mov    -0x28(%rbp),%rax
ffff8000001209aa:	ba d0 00 00 00       	mov    $0xd0,%edx
ffff8000001209af:	48 89 ce             	mov    %rcx,%rsi
ffff8000001209b2:	48 89 c7             	mov    %rax,%rdi
ffff8000001209b5:	48 b8 7e 00 12 00 00 	movabs $0xffff80000012007e,%rax
ffff8000001209bc:	80 ff ff 
ffff8000001209bf:	ff d0                	callq  *%rax
ffff8000001209c1:	b8 01 00 00 00       	mov    $0x1,%eax
ffff8000001209c6:	c9                   	leaveq 
ffff8000001209c7:	c3                   	retq   

ffff8000001209c8 <delete_task>:
ffff8000001209c8:	55                   	push   %rbp
ffff8000001209c9:	48 89 e5             	mov    %rsp,%rbp
ffff8000001209cc:	48 89 7d f8          	mov    %rdi,-0x8(%rbp)
ffff8000001209d0:	90                   	nop
ffff8000001209d1:	5d                   	pop    %rbp
ffff8000001209d2:	c3                   	retq   

ffff8000001209d3 <scheduler_init>:
ffff8000001209d3:	55                   	push   %rbp
ffff8000001209d4:	48 89 e5             	mov    %rsp,%rbp
ffff8000001209d7:	48 83 ec 10          	sub    $0x10,%rsp
ffff8000001209db:	48 bf 28 38 12 00 00 	movabs $0xffff800000123828,%rdi
ffff8000001209e2:	80 ff ff 
ffff8000001209e5:	48 b8 7b d7 11 00 00 	movabs $0xffff80000011d77b,%rax
ffff8000001209ec:	80 ff ff 
ffff8000001209ef:	ff d0                	callq  *%rax
ffff8000001209f1:	48 bf e0 37 12 00 00 	movabs $0xffff8000001237e0,%rdi
ffff8000001209f8:	80 ff ff 
ffff8000001209fb:	48 b8 27 fc 11 00 00 	movabs $0xffff80000011fc27,%rax
ffff800000120a02:	80 ff ff 
ffff800000120a05:	ff d0                	callq  *%rax
ffff800000120a07:	c7 45 fc 00 00 00 00 	movl   $0x0,-0x4(%rbp)
ffff800000120a0e:	eb 3a                	jmp    ffff800000120a4a <scheduler_init+0x77>
ffff800000120a10:	48 b8 e0 37 12 00 00 	movabs $0xffff8000001237e0,%rax
ffff800000120a17:	80 ff ff 
ffff800000120a1a:	8b 55 fc             	mov    -0x4(%rbp),%edx
ffff800000120a1d:	48 63 d2             	movslq %edx,%rdx
ffff800000120a20:	48 c7 44 d0 08 00 00 	movq   $0x0,0x8(%rax,%rdx,8)
ffff800000120a27:	00 00 
ffff800000120a29:	48 b8 e0 37 12 00 00 	movabs $0xffff8000001237e0,%rax
ffff800000120a30:	80 ff ff 
ffff800000120a33:	8b 55 fc             	mov    -0x4(%rbp),%edx
ffff800000120a36:	48 63 d2             	movslq %edx,%rdx
ffff800000120a39:	48 83 c2 04          	add    $0x4,%rdx
ffff800000120a3d:	48 c7 44 d0 08 00 00 	movq   $0x0,0x8(%rax,%rdx,8)
ffff800000120a44:	00 00 
ffff800000120a46:	83 45 fc 01          	addl   $0x1,-0x4(%rbp)
ffff800000120a4a:	83 7d fc 03          	cmpl   $0x3,-0x4(%rbp)
ffff800000120a4e:	7e c0                	jle    ffff800000120a10 <scheduler_init+0x3d>
ffff800000120a50:	48 bf 99 16 12 00 00 	movabs $0xffff800000121699,%rdi
ffff800000120a57:	80 ff ff 
ffff800000120a5a:	b8 00 00 00 00       	mov    $0x0,%eax
ffff800000120a5f:	48 ba 32 f8 11 00 00 	movabs $0xffff80000011f832,%rdx
ffff800000120a66:	80 ff ff 
ffff800000120a69:	ff d2                	callq  *%rdx
ffff800000120a6b:	90                   	nop
ffff800000120a6c:	c9                   	leaveq 
ffff800000120a6d:	c3                   	retq   

ffff800000120a6e <set_cur_task>:
ffff800000120a6e:	55                   	push   %rbp
ffff800000120a6f:	48 89 e5             	mov    %rsp,%rbp
ffff800000120a72:	48 83 ec 10          	sub    $0x10,%rsp
ffff800000120a76:	89 f8                	mov    %edi,%eax
ffff800000120a78:	48 89 75 f0          	mov    %rsi,-0x10(%rbp)
ffff800000120a7c:	88 45 fc             	mov    %al,-0x4(%rbp)
ffff800000120a7f:	48 bf e0 37 12 00 00 	movabs $0xffff8000001237e0,%rdi
ffff800000120a86:	80 ff ff 
ffff800000120a89:	48 b8 54 fc 11 00 00 	movabs $0xffff80000011fc54,%rax
ffff800000120a90:	80 ff ff 
ffff800000120a93:	ff d0                	callq  *%rax
ffff800000120a95:	0f b6 55 fc          	movzbl -0x4(%rbp),%edx
ffff800000120a99:	48 b8 e0 37 12 00 00 	movabs $0xffff8000001237e0,%rax
ffff800000120aa0:	80 ff ff 
ffff800000120aa3:	48 63 d2             	movslq %edx,%rdx
ffff800000120aa6:	48 8b 4d f0          	mov    -0x10(%rbp),%rcx
ffff800000120aaa:	48 89 4c d0 08       	mov    %rcx,0x8(%rax,%rdx,8)
ffff800000120aaf:	48 bf e0 37 12 00 00 	movabs $0xffff8000001237e0,%rdi
ffff800000120ab6:	80 ff ff 
ffff800000120ab9:	48 b8 31 fd 11 00 00 	movabs $0xffff80000011fd31,%rax
ffff800000120ac0:	80 ff ff 
ffff800000120ac3:	ff d0                	callq  *%rax
ffff800000120ac5:	90                   	nop
ffff800000120ac6:	c9                   	leaveq 
ffff800000120ac7:	c3                   	retq   

ffff800000120ac8 <get_cur_task>:
ffff800000120ac8:	55                   	push   %rbp
ffff800000120ac9:	48 89 e5             	mov    %rsp,%rbp
ffff800000120acc:	48 83 ec 20          	sub    $0x20,%rsp
ffff800000120ad0:	89 f8                	mov    %edi,%eax
ffff800000120ad2:	88 45 ec             	mov    %al,-0x14(%rbp)
ffff800000120ad5:	48 bf e0 37 12 00 00 	movabs $0xffff8000001237e0,%rdi
ffff800000120adc:	80 ff ff 
ffff800000120adf:	48 b8 54 fc 11 00 00 	movabs $0xffff80000011fc54,%rax
ffff800000120ae6:	80 ff ff 
ffff800000120ae9:	ff d0                	callq  *%rax
ffff800000120aeb:	0f b6 55 ec          	movzbl -0x14(%rbp),%edx
ffff800000120aef:	48 b8 e0 37 12 00 00 	movabs $0xffff8000001237e0,%rax
ffff800000120af6:	80 ff ff 
ffff800000120af9:	48 63 d2             	movslq %edx,%rdx
ffff800000120afc:	48 8b 44 d0 08       	mov    0x8(%rax,%rdx,8),%rax
ffff800000120b01:	48 89 45 f8          	mov    %rax,-0x8(%rbp)
ffff800000120b05:	48 bf e0 37 12 00 00 	movabs $0xffff8000001237e0,%rdi
ffff800000120b0c:	80 ff ff 
ffff800000120b0f:	48 b8 31 fd 11 00 00 	movabs $0xffff80000011fd31,%rax
ffff800000120b16:	80 ff ff 
ffff800000120b19:	ff d0                	callq  *%rax
ffff800000120b1b:	48 8b 45 f8          	mov    -0x8(%rbp),%rax
ffff800000120b1f:	c9                   	leaveq 
ffff800000120b20:	c3                   	retq   

ffff800000120b21 <pick_next_task>:
ffff800000120b21:	55                   	push   %rbp
ffff800000120b22:	48 89 e5             	mov    %rsp,%rbp
ffff800000120b25:	48 83 ec 10          	sub    $0x10,%rsp
ffff800000120b29:	48 bf 28 38 12 00 00 	movabs $0xffff800000123828,%rdi
ffff800000120b30:	80 ff ff 
ffff800000120b33:	48 b8 95 d9 11 00 00 	movabs $0xffff80000011d995,%rax
ffff800000120b3a:	80 ff ff 
ffff800000120b3d:	ff d0                	callq  *%rax
ffff800000120b3f:	48 89 45 f8          	mov    %rax,-0x8(%rbp)
ffff800000120b43:	48 83 7d f8 00       	cmpq   $0x0,-0x8(%rbp)
ffff800000120b48:	74 0a                	je     ffff800000120b54 <pick_next_task+0x33>
ffff800000120b4a:	48 8b 45 f8          	mov    -0x8(%rbp),%rax
ffff800000120b4e:	48 8b 40 08          	mov    0x8(%rax),%rax
ffff800000120b52:	eb 05                	jmp    ffff800000120b59 <pick_next_task+0x38>
ffff800000120b54:	b8 00 00 00 00       	mov    $0x0,%eax
ffff800000120b59:	c9                   	leaveq 
ffff800000120b5a:	c3                   	retq   

ffff800000120b5b <add_task_to_ready_list>:
ffff800000120b5b:	55                   	push   %rbp
ffff800000120b5c:	48 89 e5             	mov    %rsp,%rbp
ffff800000120b5f:	48 83 ec 10          	sub    $0x10,%rsp
ffff800000120b63:	48 89 7d f8          	mov    %rdi,-0x8(%rbp)
ffff800000120b67:	48 bf e0 37 12 00 00 	movabs $0xffff8000001237e0,%rdi
ffff800000120b6e:	80 ff ff 
ffff800000120b71:	48 b8 54 fc 11 00 00 	movabs $0xffff80000011fc54,%rax
ffff800000120b78:	80 ff ff 
ffff800000120b7b:	ff d0                	callq  *%rax
ffff800000120b7d:	48 8b 45 f8          	mov    -0x8(%rbp),%rax
ffff800000120b81:	48 05 00 03 00 00    	add    $0x300,%rax
ffff800000120b87:	48 89 c6             	mov    %rax,%rsi
ffff800000120b8a:	48 bf 28 38 12 00 00 	movabs $0xffff800000123828,%rdi
ffff800000120b91:	80 ff ff 
ffff800000120b94:	48 b8 b9 d7 11 00 00 	movabs $0xffff80000011d7b9,%rax
ffff800000120b9b:	80 ff ff 
ffff800000120b9e:	ff d0                	callq  *%rax
ffff800000120ba0:	48 bf e0 37 12 00 00 	movabs $0xffff8000001237e0,%rdi
ffff800000120ba7:	80 ff ff 
ffff800000120baa:	48 b8 31 fd 11 00 00 	movabs $0xffff80000011fd31,%rax
ffff800000120bb1:	80 ff ff 
ffff800000120bb4:	ff d0                	callq  *%rax
ffff800000120bb6:	90                   	nop
ffff800000120bb7:	c9                   	leaveq 
ffff800000120bb8:	c3                   	retq   

ffff800000120bb9 <remove_task_from_ready_list>:
ffff800000120bb9:	55                   	push   %rbp
ffff800000120bba:	48 89 e5             	mov    %rsp,%rbp
ffff800000120bbd:	48 83 ec 10          	sub    $0x10,%rsp
ffff800000120bc1:	48 89 7d f8          	mov    %rdi,-0x8(%rbp)
ffff800000120bc5:	48 8b 45 f8          	mov    -0x8(%rbp),%rax
ffff800000120bc9:	48 89 c6             	mov    %rax,%rsi
ffff800000120bcc:	48 bf 28 38 12 00 00 	movabs $0xffff800000123828,%rdi
ffff800000120bd3:	80 ff ff 
ffff800000120bd6:	48 b8 96 d8 11 00 00 	movabs $0xffff80000011d896,%rax
ffff800000120bdd:	80 ff ff 
ffff800000120be0:	ff d0                	callq  *%rax
ffff800000120be2:	c9                   	leaveq 
ffff800000120be3:	c3                   	retq   

ffff800000120be4 <kill_task>:
ffff800000120be4:	55                   	push   %rbp
ffff800000120be5:	48 89 e5             	mov    %rsp,%rbp
ffff800000120be8:	48 83 ec 20          	sub    $0x20,%rsp
ffff800000120bec:	48 89 7d e8          	mov    %rdi,-0x18(%rbp)
ffff800000120bf0:	48 bf e0 37 12 00 00 	movabs $0xffff8000001237e0,%rdi
ffff800000120bf7:	80 ff ff 
ffff800000120bfa:	48 b8 54 fc 11 00 00 	movabs $0xffff80000011fc54,%rax
ffff800000120c01:	80 ff ff 
ffff800000120c04:	ff d0                	callq  *%rax
ffff800000120c06:	48 8b 45 e8          	mov    -0x18(%rbp),%rax
ffff800000120c0a:	48 89 c7             	mov    %rax,%rdi
ffff800000120c0d:	48 b8 b9 0b 12 00 00 	movabs $0xffff800000120bb9,%rax
ffff800000120c14:	80 ff ff 
ffff800000120c17:	ff d0                	callq  *%rax
ffff800000120c19:	48 89 45 f8          	mov    %rax,-0x8(%rbp)
ffff800000120c1d:	48 83 7d f8 00       	cmpq   $0x0,-0x8(%rbp)
ffff800000120c22:	74 28                	je     ffff800000120c4c <kill_task+0x68>
ffff800000120c24:	48 8b 45 e8          	mov    -0x18(%rbp),%rax
ffff800000120c28:	48 89 c7             	mov    %rax,%rdi
ffff800000120c2b:	48 b8 b9 0b 12 00 00 	movabs $0xffff800000120bb9,%rax
ffff800000120c32:	80 ff ff 
ffff800000120c35:	ff d0                	callq  *%rax
ffff800000120c37:	48 8b 45 e8          	mov    -0x18(%rbp),%rax
ffff800000120c3b:	48 89 c7             	mov    %rax,%rdi
ffff800000120c3e:	48 b8 c8 09 12 00 00 	movabs $0xffff8000001209c8,%rax
ffff800000120c45:	80 ff ff 
ffff800000120c48:	ff d0                	callq  *%rax
ffff800000120c4a:	eb 44                	jmp    ffff800000120c90 <kill_task+0xac>
ffff800000120c4c:	48 8b 45 e8          	mov    -0x18(%rbp),%rax
ffff800000120c50:	48 8b 90 20 03 00 00 	mov    0x320(%rax),%rdx
ffff800000120c57:	48 b8 00 00 00 00 00 	movabs $0x8000000000000000,%rax
ffff800000120c5e:	00 00 80 
ffff800000120c61:	48 09 c2             	or     %rax,%rdx
ffff800000120c64:	48 8b 45 e8          	mov    -0x18(%rbp),%rax
ffff800000120c68:	48 89 90 20 03 00 00 	mov    %rdx,0x320(%rax)
ffff800000120c6f:	48 b8 18 c7 11 00 00 	movabs $0xffff80000011c718,%rax
ffff800000120c76:	80 ff ff 
ffff800000120c79:	ff d0                	callq  *%rax
ffff800000120c7b:	3a 45 f7             	cmp    -0x9(%rbp),%al
ffff800000120c7e:	75 10                	jne    ffff800000120c90 <kill_task+0xac>
ffff800000120c80:	48 b8 ce 05 12 00 00 	movabs $0xffff8000001205ce,%rax
ffff800000120c87:	80 ff ff 
ffff800000120c8a:	ff d0                	callq  *%rax
ffff800000120c8c:	fa                   	cli    
ffff800000120c8d:	f4                   	hlt    
ffff800000120c8e:	eb fd                	jmp    ffff800000120c8d <kill_task+0xa9>
ffff800000120c90:	48 bf e0 37 12 00 00 	movabs $0xffff8000001237e0,%rdi
ffff800000120c97:	80 ff ff 
ffff800000120c9a:	48 b8 31 fd 11 00 00 	movabs $0xffff80000011fd31,%rax
ffff800000120ca1:	80 ff ff 
ffff800000120ca4:	ff d0                	callq  *%rax
ffff800000120ca6:	b8 01 00 00 00       	mov    $0x1,%eax
ffff800000120cab:	c9                   	leaveq 
ffff800000120cac:	c3                   	retq   

ffff800000120cad <kill_me>:
ffff800000120cad:	55                   	push   %rbp
ffff800000120cae:	48 89 e5             	mov    %rsp,%rbp
ffff800000120cb1:	48 b8 18 c7 11 00 00 	movabs $0xffff80000011c718,%rax
ffff800000120cb8:	80 ff ff 
ffff800000120cbb:	ff d0                	callq  *%rax
ffff800000120cbd:	0f b6 d0             	movzbl %al,%edx
ffff800000120cc0:	48 b8 e0 37 12 00 00 	movabs $0xffff8000001237e0,%rax
ffff800000120cc7:	80 ff ff 
ffff800000120cca:	48 63 d2             	movslq %edx,%rdx
ffff800000120ccd:	48 8b 44 d0 08       	mov    0x8(%rax,%rdx,8),%rax
ffff800000120cd2:	48 89 c7             	mov    %rax,%rdi
ffff800000120cd5:	48 b8 e4 0b 12 00 00 	movabs $0xffff800000120be4,%rax
ffff800000120cdc:	80 ff ff 
ffff800000120cdf:	ff d0                	callq  *%rax
ffff800000120ce1:	90                   	nop
ffff800000120ce2:	5d                   	pop    %rbp
ffff800000120ce3:	c3                   	retq   

ffff800000120ce4 <ready_task_count>:
ffff800000120ce4:	55                   	push   %rbp
ffff800000120ce5:	48 89 e5             	mov    %rsp,%rbp
ffff800000120ce8:	48 83 ec 10          	sub    $0x10,%rsp
ffff800000120cec:	48 bf e0 37 12 00 00 	movabs $0xffff8000001237e0,%rdi
ffff800000120cf3:	80 ff ff 
ffff800000120cf6:	48 b8 54 fc 11 00 00 	movabs $0xffff80000011fc54,%rax
ffff800000120cfd:	80 ff ff 
ffff800000120d00:	ff d0                	callq  *%rax
ffff800000120d02:	48 bf 28 38 12 00 00 	movabs $0xffff800000123828,%rdi
ffff800000120d09:	80 ff ff 
ffff800000120d0c:	48 b8 a8 d7 11 00 00 	movabs $0xffff80000011d7a8,%rax
ffff800000120d13:	80 ff ff 
ffff800000120d16:	ff d0                	callq  *%rax
ffff800000120d18:	89 45 fc             	mov    %eax,-0x4(%rbp)
ffff800000120d1b:	48 bf e0 37 12 00 00 	movabs $0xffff8000001237e0,%rdi
ffff800000120d22:	80 ff ff 
ffff800000120d25:	48 b8 31 fd 11 00 00 	movabs $0xffff80000011fd31,%rax
ffff800000120d2c:	80 ff ff 
ffff800000120d2f:	ff d0                	callq  *%rax
ffff800000120d31:	8b 45 fc             	mov    -0x4(%rbp),%eax
ffff800000120d34:	c9                   	leaveq 
ffff800000120d35:	c3                   	retq   

ffff800000120d36 <get_proc_if_thread>:
ffff800000120d36:	55                   	push   %rbp
ffff800000120d37:	48 89 e5             	mov    %rsp,%rbp
ffff800000120d3a:	48 89 7d f8          	mov    %rdi,-0x8(%rbp)
ffff800000120d3e:	48 8b 45 f8          	mov    -0x8(%rbp),%rax
ffff800000120d42:	48 8b 90 20 03 00 00 	mov    0x320(%rax),%rdx
ffff800000120d49:	48 b8 00 00 00 00 00 	movabs $0x2000000000000000,%rax
ffff800000120d50:	00 00 20 
ffff800000120d53:	48 21 d0             	and    %rdx,%rax
ffff800000120d56:	48 85 c0             	test   %rax,%rax
ffff800000120d59:	74 06                	je     ffff800000120d61 <get_proc_if_thread+0x2b>
ffff800000120d5b:	48 8b 45 f8          	mov    -0x8(%rbp),%rax
ffff800000120d5f:	eb 08                	jmp    ffff800000120d69 <get_proc_if_thread+0x33>
ffff800000120d61:	48 8b 45 f8          	mov    -0x8(%rbp),%rax
ffff800000120d65:	48 8b 40 10          	mov    0x10(%rax),%rax
ffff800000120d69:	5d                   	pop    %rbp
ffff800000120d6a:	c3                   	retq   

ffff800000120d6b <get_last_fpu_task>:
ffff800000120d6b:	55                   	push   %rbp
ffff800000120d6c:	48 89 e5             	mov    %rsp,%rbp
ffff800000120d6f:	89 f8                	mov    %edi,%eax
ffff800000120d71:	88 45 fc             	mov    %al,-0x4(%rbp)
ffff800000120d74:	0f b6 55 fc          	movzbl -0x4(%rbp),%edx
ffff800000120d78:	48 b8 e0 37 12 00 00 	movabs $0xffff8000001237e0,%rax
ffff800000120d7f:	80 ff ff 
ffff800000120d82:	48 63 d2             	movslq %edx,%rdx
ffff800000120d85:	48 83 c2 04          	add    $0x4,%rdx
ffff800000120d89:	48 8b 44 d0 08       	mov    0x8(%rax,%rdx,8),%rax
ffff800000120d8e:	5d                   	pop    %rbp
ffff800000120d8f:	c3                   	retq   

ffff800000120d90 <set_last_fpu_task>:
ffff800000120d90:	55                   	push   %rbp
ffff800000120d91:	48 89 e5             	mov    %rsp,%rbp
ffff800000120d94:	89 f8                	mov    %edi,%eax
ffff800000120d96:	48 89 75 f0          	mov    %rsi,-0x10(%rbp)
ffff800000120d9a:	88 45 fc             	mov    %al,-0x4(%rbp)
ffff800000120d9d:	0f b6 55 fc          	movzbl -0x4(%rbp),%edx
ffff800000120da1:	48 b8 e0 37 12 00 00 	movabs $0xffff8000001237e0,%rax
ffff800000120da8:	80 ff ff 
ffff800000120dab:	48 63 d2             	movslq %edx,%rdx
ffff800000120dae:	48 8d 4a 04          	lea    0x4(%rdx),%rcx
ffff800000120db2:	48 8b 55 f0          	mov    -0x10(%rbp),%rdx
ffff800000120db6:	48 89 54 c8 08       	mov    %rdx,0x8(%rax,%rcx,8)
ffff800000120dbb:	90                   	nop
ffff800000120dbc:	5d                   	pop    %rbp
ffff800000120dbd:	c3                   	retq   

ffff800000120dbe <be_a_init>:
ffff800000120dbe:	55                   	push   %rbp
ffff800000120dbf:	48 89 e5             	mov    %rsp,%rbp
ffff800000120dc2:	48 83 ec 10          	sub    $0x10,%rsp
ffff800000120dc6:	bf 30 03 00 00       	mov    $0x330,%edi
ffff800000120dcb:	48 b8 31 de 11 00 00 	movabs $0xffff80000011de31,%rax
ffff800000120dd2:	80 ff ff 
ffff800000120dd5:	ff d0                	callq  *%rax
ffff800000120dd7:	48 89 45 f8          	mov    %rax,-0x8(%rbp)
ffff800000120ddb:	48 8b 45 f8          	mov    -0x8(%rbp),%rax
ffff800000120ddf:	48 c7 40 08 01 00 00 	movq   $0x1,0x8(%rax)
ffff800000120de6:	00 
ffff800000120de7:	48 bf a9 16 12 00 00 	movabs $0xffff8000001216a9,%rdi
ffff800000120dee:	80 ff ff 
ffff800000120df1:	48 b8 2d 01 12 00 00 	movabs $0xffff80000012012d,%rax
ffff800000120df8:	80 ff ff 
ffff800000120dfb:	ff d0                	callq  *%rax
ffff800000120dfd:	48 89 c2             	mov    %rax,%rdx
ffff800000120e00:	48 8b 45 f8          	mov    -0x8(%rbp),%rax
ffff800000120e04:	48 89 50 18          	mov    %rdx,0x18(%rax)
ffff800000120e08:	48 8b 45 f8          	mov    -0x8(%rbp),%rax
ffff800000120e0c:	48 8b 55 f8          	mov    -0x8(%rbp),%rdx
ffff800000120e10:	48 89 50 10          	mov    %rdx,0x10(%rax)
ffff800000120e14:	48 b8 18 c7 11 00 00 	movabs $0xffff80000011c718,%rax
ffff800000120e1b:	80 ff ff 
ffff800000120e1e:	ff d0                	callq  *%rax
ffff800000120e20:	89 c2                	mov    %eax,%edx
ffff800000120e22:	48 8b 45 f8          	mov    -0x8(%rbp),%rax
ffff800000120e26:	88 90 28 03 00 00    	mov    %dl,0x328(%rax)
ffff800000120e2c:	48 8b 45 f8          	mov    -0x8(%rbp),%rax
ffff800000120e30:	48 b9 00 00 00 00 00 	movabs $0x6800000000000000,%rcx
ffff800000120e37:	00 00 68 
ffff800000120e3a:	48 89 88 20 03 00 00 	mov    %rcx,0x320(%rax)
ffff800000120e41:	48 8b 45 f8          	mov    -0x8(%rbp),%rax
ffff800000120e45:	48 8b 55 f8          	mov    -0x8(%rbp),%rdx
ffff800000120e49:	48 89 90 08 03 00 00 	mov    %rdx,0x308(%rax)
ffff800000120e50:	48 b8 c8 37 12 00 00 	movabs $0xffff8000001237c8,%rax
ffff800000120e57:	80 ff ff 
ffff800000120e5a:	48 8b 10             	mov    (%rax),%rdx
ffff800000120e5d:	48 8b 45 f8          	mov    -0x8(%rbp),%rax
ffff800000120e61:	48 89 90 f8 02 00 00 	mov    %rdx,0x2f8(%rax)
ffff800000120e68:	48 ba 00 b0 10 00 00 	movabs $0xffff80000010b000,%rdx
ffff800000120e6f:	80 ff ff 
ffff800000120e72:	48 8b 45 f8          	mov    -0x8(%rbp),%rax
ffff800000120e76:	48 89 10             	mov    %rdx,(%rax)
ffff800000120e79:	48 8b 45 f8          	mov    -0x8(%rbp),%rax
ffff800000120e7d:	48 8b 80 f8 02 00 00 	mov    0x2f8(%rax),%rax
ffff800000120e84:	48 89 c7             	mov    %rax,%rdi
ffff800000120e87:	48 b8 7f e6 11 00 00 	movabs $0xffff80000011e67f,%rax
ffff800000120e8e:	80 ff ff 
ffff800000120e91:	ff d0                	callq  *%rax
ffff800000120e93:	48 8b 45 f8          	mov    -0x8(%rbp),%rax
ffff800000120e97:	48 89 c6             	mov    %rax,%rsi
ffff800000120e9a:	bf 00 00 00 00       	mov    $0x0,%edi
ffff800000120e9f:	48 b8 6e 0a 12 00 00 	movabs $0xffff800000120a6e,%rax
ffff800000120ea6:	80 ff ff 
ffff800000120ea9:	ff d0                	callq  *%rax
ffff800000120eab:	48 bf ae 16 12 00 00 	movabs $0xffff8000001216ae,%rdi
ffff800000120eb2:	80 ff ff 
ffff800000120eb5:	b8 00 00 00 00       	mov    $0x0,%eax
ffff800000120eba:	48 ba 32 f8 11 00 00 	movabs $0xffff80000011f832,%rdx
ffff800000120ec1:	80 ff ff 
ffff800000120ec4:	ff d2                	callq  *%rdx
ffff800000120ec6:	90                   	nop
ffff800000120ec7:	c9                   	leaveq 
ffff800000120ec8:	c3                   	retq   

ffff800000120ec9 <fork>:
ffff800000120ec9:	55                   	push   %rbp
ffff800000120eca:	48 89 e5             	mov    %rsp,%rbp
ffff800000120ecd:	48 83 ec 10          	sub    $0x10,%rsp
ffff800000120ed1:	48 b8 18 c7 11 00 00 	movabs $0xffff80000011c718,%rax
ffff800000120ed8:	80 ff ff 
ffff800000120edb:	ff d0                	callq  *%rax
ffff800000120edd:	0f b6 c0             	movzbl %al,%eax
ffff800000120ee0:	89 c7                	mov    %eax,%edi
ffff800000120ee2:	48 b8 c8 0a 12 00 00 	movabs $0xffff800000120ac8,%rax
ffff800000120ee9:	80 ff ff 
ffff800000120eec:	ff d0                	callq  *%rax
ffff800000120eee:	48 89 45 f8          	mov    %rax,-0x8(%rbp)
ffff800000120ef2:	48 8b 45 f8          	mov    -0x8(%rbp),%rax
ffff800000120ef6:	48 89 c7             	mov    %rax,%rdi
ffff800000120ef9:	48 b8 87 0f 12 00 00 	movabs $0xffff800000120f87,%rax
ffff800000120f00:	80 ff ff 
ffff800000120f03:	ff d0                	callq  *%rax
ffff800000120f05:	48 89 45 f0          	mov    %rax,-0x10(%rbp)
ffff800000120f09:	48 8b 45 f8          	mov    -0x8(%rbp),%rax
ffff800000120f0d:	48 8b 80 c8 00 00 00 	mov    0xc8(%rax),%rax
ffff800000120f14:	48 8d 50 05          	lea    0x5(%rax),%rdx
ffff800000120f18:	48 8b 45 f8          	mov    -0x8(%rbp),%rax
ffff800000120f1c:	48 89 90 c8 00 00 00 	mov    %rdx,0xc8(%rax)
ffff800000120f23:	48 b8 10 2a 12 00 00 	movabs $0xffff800000122a10,%rax
ffff800000120f2a:	80 ff ff 
ffff800000120f2d:	8b 00                	mov    (%rax),%eax
ffff800000120f2f:	48 63 d0             	movslq %eax,%rdx
ffff800000120f32:	48 8b 45 f8          	mov    -0x8(%rbp),%rax
ffff800000120f36:	48 89 90 a8 00 00 00 	mov    %rdx,0xa8(%rax)
ffff800000120f3d:	48 8b 45 f0          	mov    -0x10(%rbp),%rax
ffff800000120f41:	48 8b 80 c8 00 00 00 	mov    0xc8(%rax),%rax
ffff800000120f48:	48 8d 50 05          	lea    0x5(%rax),%rdx
ffff800000120f4c:	48 8b 45 f0          	mov    -0x10(%rbp),%rax
ffff800000120f50:	48 89 90 c8 00 00 00 	mov    %rdx,0xc8(%rax)
ffff800000120f57:	48 8b 45 f0          	mov    -0x10(%rbp),%rax
ffff800000120f5b:	48 c7 80 a8 00 00 00 	movq   $0x0,0xa8(%rax)
ffff800000120f62:	00 00 00 00 
ffff800000120f66:	48 8b 45 f0          	mov    -0x10(%rbp),%rax
ffff800000120f6a:	48 89 c7             	mov    %rax,%rdi
ffff800000120f6d:	48 b8 5b 0b 12 00 00 	movabs $0xffff800000120b5b,%rax
ffff800000120f74:	80 ff ff 
ffff800000120f77:	ff d0                	callq  *%rax
ffff800000120f79:	48 b8 10 2a 12 00 00 	movabs $0xffff800000122a10,%rax
ffff800000120f80:	80 ff ff 
ffff800000120f83:	8b 00                	mov    (%rax),%eax
ffff800000120f85:	c9                   	leaveq 
ffff800000120f86:	c3                   	retq   

ffff800000120f87 <spawn_process>:
ffff800000120f87:	55                   	push   %rbp
ffff800000120f88:	48 89 e5             	mov    %rsp,%rbp
ffff800000120f8b:	48 83 ec 20          	sub    $0x20,%rsp
ffff800000120f8f:	48 89 7d e8          	mov    %rdi,-0x18(%rbp)
ffff800000120f93:	bf 30 03 00 00       	mov    $0x330,%edi
ffff800000120f98:	48 b8 31 de 11 00 00 	movabs $0xffff80000011de31,%rax
ffff800000120f9f:	80 ff ff 
ffff800000120fa2:	ff d0                	callq  *%rax
ffff800000120fa4:	48 89 45 f8          	mov    %rax,-0x8(%rbp)
ffff800000120fa8:	48 b8 10 2a 12 00 00 	movabs $0xffff800000122a10,%rax
ffff800000120faf:	80 ff ff 
ffff800000120fb2:	8b 00                	mov    (%rax),%eax
ffff800000120fb4:	8d 48 01             	lea    0x1(%rax),%ecx
ffff800000120fb7:	48 ba 10 2a 12 00 00 	movabs $0xffff800000122a10,%rdx
ffff800000120fbe:	80 ff ff 
ffff800000120fc1:	89 0a                	mov    %ecx,(%rdx)
ffff800000120fc3:	48 63 d0             	movslq %eax,%rdx
ffff800000120fc6:	48 8b 45 f8          	mov    -0x8(%rbp),%rax
ffff800000120fca:	48 89 50 08          	mov    %rdx,0x8(%rax)
ffff800000120fce:	48 bf c3 16 12 00 00 	movabs $0xffff8000001216c3,%rdi
ffff800000120fd5:	80 ff ff 
ffff800000120fd8:	48 b8 2d 01 12 00 00 	movabs $0xffff80000012012d,%rax
ffff800000120fdf:	80 ff ff 
ffff800000120fe2:	ff d0                	callq  *%rax
ffff800000120fe4:	48 89 c2             	mov    %rax,%rdx
ffff800000120fe7:	48 8b 45 f8          	mov    -0x8(%rbp),%rax
ffff800000120feb:	48 89 50 18          	mov    %rdx,0x18(%rax)
ffff800000120fef:	48 8b 45 f8          	mov    -0x8(%rbp),%rax
ffff800000120ff3:	48 8b 55 e8          	mov    -0x18(%rbp),%rdx
ffff800000120ff7:	48 89 50 10          	mov    %rdx,0x10(%rax)
ffff800000120ffb:	48 8b 45 f8          	mov    -0x8(%rbp),%rax
ffff800000120fff:	c6 80 28 03 00 00 ff 	movb   $0xff,0x328(%rax)
ffff800000121006:	48 8b 45 f8          	mov    -0x8(%rbp),%rax
ffff80000012100a:	c6 80 f0 00 00 00 00 	movb   $0x0,0xf0(%rax)
ffff800000121011:	48 8b 45 f8          	mov    -0x8(%rbp),%rax
ffff800000121015:	48 8b 55 f8          	mov    -0x8(%rbp),%rdx
ffff800000121019:	48 89 90 08 03 00 00 	mov    %rdx,0x308(%rax)
ffff800000121020:	bf a0 1f 00 00       	mov    $0x1fa0,%edi
ffff800000121025:	48 b8 31 de 11 00 00 	movabs $0xffff80000011de31,%rax
ffff80000012102c:	80 ff ff 
ffff80000012102f:	ff d0                	callq  *%rax
ffff800000121031:	48 89 c2             	mov    %rax,%rdx
ffff800000121034:	48 8b 45 f8          	mov    -0x8(%rbp),%rax
ffff800000121038:	48 89 10             	mov    %rdx,(%rax)
ffff80000012103b:	48 8b 45 e8          	mov    -0x18(%rbp),%rax
ffff80000012103f:	48 8d 48 20          	lea    0x20(%rax),%rcx
ffff800000121043:	48 8b 45 f8          	mov    -0x8(%rbp),%rax
ffff800000121047:	48 83 c0 20          	add    $0x20,%rax
ffff80000012104b:	ba d0 00 00 00       	mov    $0xd0,%edx
ffff800000121050:	48 89 ce             	mov    %rcx,%rsi
ffff800000121053:	48 89 c7             	mov    %rax,%rdi
ffff800000121056:	48 b8 7e 00 12 00 00 	movabs $0xffff80000012007e,%rax
ffff80000012105d:	80 ff ff 
ffff800000121060:	ff d0                	callq  *%rax
ffff800000121062:	48 8b 45 f8          	mov    -0x8(%rbp),%rax
ffff800000121066:	48 8b 00             	mov    (%rax),%rax
ffff800000121069:	48 8d 90 a0 1f 00 00 	lea    0x1fa0(%rax),%rdx
ffff800000121070:	48 8b 45 f8          	mov    -0x8(%rbp),%rax
ffff800000121074:	48 89 90 b0 00 00 00 	mov    %rdx,0xb0(%rax)
ffff80000012107b:	48 8b 45 f8          	mov    -0x8(%rbp),%rax
ffff80000012107f:	48 8b 90 b0 00 00 00 	mov    0xb0(%rax),%rdx
ffff800000121086:	48 8b 45 f8          	mov    -0x8(%rbp),%rax
ffff80000012108a:	48 89 90 e0 00 00 00 	mov    %rdx,0xe0(%rax)
ffff800000121091:	48 8b 45 f8          	mov    -0x8(%rbp),%rax
ffff800000121095:	c9                   	leaveq 
ffff800000121096:	c3                   	retq   

ffff800000121097 <test_thread>:
ffff800000121097:	55                   	push   %rbp
ffff800000121098:	48 89 e5             	mov    %rsp,%rbp
ffff80000012109b:	48 83 ec 10          	sub    $0x10,%rsp
ffff80000012109f:	c7 45 fc 00 00 00 00 	movl   $0x0,-0x4(%rbp)
ffff8000001210a6:	8b 45 fc             	mov    -0x4(%rbp),%eax
ffff8000001210a9:	8d 50 01             	lea    0x1(%rax),%edx
ffff8000001210ac:	89 55 fc             	mov    %edx,-0x4(%rbp)
ffff8000001210af:	89 c6                	mov    %eax,%esi
ffff8000001210b1:	48 bf d0 16 12 00 00 	movabs $0xffff8000001216d0,%rdi
ffff8000001210b8:	80 ff ff 
ffff8000001210bb:	b8 00 00 00 00       	mov    $0x0,%eax
ffff8000001210c0:	48 ba 32 f8 11 00 00 	movabs $0xffff80000011f832,%rdx
ffff8000001210c7:	80 ff ff 
ffff8000001210ca:	ff d2                	callq  *%rdx
ffff8000001210cc:	bf e8 03 00 00       	mov    $0x3e8,%edi
ffff8000001210d1:	b8 00 00 00 00       	mov    $0x0,%eax
ffff8000001210d6:	48 ba 8b 04 12 00 00 	movabs $0xffff80000012048b,%rdx
ffff8000001210dd:	80 ff ff 
ffff8000001210e0:	ff d2                	callq  *%rdx
ffff8000001210e2:	eb c2                	jmp    ffff8000001210a6 <test_thread+0xf>
ffff8000001210e4:	66 2e 0f 1f 84 00 00 	nopw   %cs:0x0(%rax,%rax,1)
ffff8000001210eb:	00 00 00 
ffff8000001210ee:	66 90                	xchg   %ax,%ax

ffff8000001210f0 <_isr0>:
ffff8000001210f0:	6a 00                	pushq  $0x0
ffff8000001210f2:	6a 00                	pushq  $0x0
ffff8000001210f4:	e9 62 01 00 00       	jmpq   ffff80000012125b <common_intr_entry>

ffff8000001210f9 <_isr1>:
ffff8000001210f9:	6a 00                	pushq  $0x0
ffff8000001210fb:	6a 01                	pushq  $0x1
ffff8000001210fd:	e9 59 01 00 00       	jmpq   ffff80000012125b <common_intr_entry>

ffff800000121102 <_isr2>:
ffff800000121102:	6a 00                	pushq  $0x0
ffff800000121104:	6a 02                	pushq  $0x2
ffff800000121106:	e9 50 01 00 00       	jmpq   ffff80000012125b <common_intr_entry>

ffff80000012110b <_isr3>:
ffff80000012110b:	6a 00                	pushq  $0x0
ffff80000012110d:	6a 03                	pushq  $0x3
ffff80000012110f:	e9 47 01 00 00       	jmpq   ffff80000012125b <common_intr_entry>

ffff800000121114 <_isr4>:
ffff800000121114:	6a 00                	pushq  $0x0
ffff800000121116:	6a 04                	pushq  $0x4
ffff800000121118:	e9 3e 01 00 00       	jmpq   ffff80000012125b <common_intr_entry>

ffff80000012111d <_isr5>:
ffff80000012111d:	6a 00                	pushq  $0x0
ffff80000012111f:	6a 05                	pushq  $0x5
ffff800000121121:	e9 35 01 00 00       	jmpq   ffff80000012125b <common_intr_entry>

ffff800000121126 <_isr6>:
ffff800000121126:	6a 00                	pushq  $0x0
ffff800000121128:	6a 06                	pushq  $0x6
ffff80000012112a:	e9 2c 01 00 00       	jmpq   ffff80000012125b <common_intr_entry>

ffff80000012112f <_isr7>:
ffff80000012112f:	6a 00                	pushq  $0x0
ffff800000121131:	6a 07                	pushq  $0x7
ffff800000121133:	e9 23 01 00 00       	jmpq   ffff80000012125b <common_intr_entry>

ffff800000121138 <_isr8>:
ffff800000121138:	6a 08                	pushq  $0x8
ffff80000012113a:	e9 1c 01 00 00       	jmpq   ffff80000012125b <common_intr_entry>

ffff80000012113f <_isr9>:
ffff80000012113f:	6a 00                	pushq  $0x0
ffff800000121141:	6a 09                	pushq  $0x9
ffff800000121143:	e9 13 01 00 00       	jmpq   ffff80000012125b <common_intr_entry>

ffff800000121148 <_isr10>:
ffff800000121148:	6a 0a                	pushq  $0xa
ffff80000012114a:	e9 0c 01 00 00       	jmpq   ffff80000012125b <common_intr_entry>

ffff80000012114f <_isr11>:
ffff80000012114f:	6a 0b                	pushq  $0xb
ffff800000121151:	e9 05 01 00 00       	jmpq   ffff80000012125b <common_intr_entry>

ffff800000121156 <_isr12>:
ffff800000121156:	6a 0c                	pushq  $0xc
ffff800000121158:	e9 fe 00 00 00       	jmpq   ffff80000012125b <common_intr_entry>

ffff80000012115d <_isr13>:
ffff80000012115d:	6a 0d                	pushq  $0xd
ffff80000012115f:	e9 f7 00 00 00       	jmpq   ffff80000012125b <common_intr_entry>

ffff800000121164 <_isr14>:
ffff800000121164:	6a 0e                	pushq  $0xe
ffff800000121166:	e9 f0 00 00 00       	jmpq   ffff80000012125b <common_intr_entry>

ffff80000012116b <_isr15>:
ffff80000012116b:	6a 00                	pushq  $0x0
ffff80000012116d:	6a 0f                	pushq  $0xf
ffff80000012116f:	e9 e7 00 00 00       	jmpq   ffff80000012125b <common_intr_entry>

ffff800000121174 <_isr16>:
ffff800000121174:	6a 00                	pushq  $0x0
ffff800000121176:	6a 10                	pushq  $0x10
ffff800000121178:	e9 de 00 00 00       	jmpq   ffff80000012125b <common_intr_entry>

ffff80000012117d <_isr17>:
ffff80000012117d:	6a 00                	pushq  $0x0
ffff80000012117f:	6a 11                	pushq  $0x11
ffff800000121181:	e9 d5 00 00 00       	jmpq   ffff80000012125b <common_intr_entry>

ffff800000121186 <_isr18>:
ffff800000121186:	6a 00                	pushq  $0x0
ffff800000121188:	6a 12                	pushq  $0x12
ffff80000012118a:	e9 cc 00 00 00       	jmpq   ffff80000012125b <common_intr_entry>

ffff80000012118f <_isr19>:
ffff80000012118f:	6a 00                	pushq  $0x0
ffff800000121191:	6a 13                	pushq  $0x13
ffff800000121193:	e9 c3 00 00 00       	jmpq   ffff80000012125b <common_intr_entry>

ffff800000121198 <_isr20>:
ffff800000121198:	6a 00                	pushq  $0x0
ffff80000012119a:	6a 14                	pushq  $0x14
ffff80000012119c:	e9 ba 00 00 00       	jmpq   ffff80000012125b <common_intr_entry>

ffff8000001211a1 <_isr21>:
ffff8000001211a1:	6a 00                	pushq  $0x0
ffff8000001211a3:	6a 15                	pushq  $0x15
ffff8000001211a5:	e9 b1 00 00 00       	jmpq   ffff80000012125b <common_intr_entry>

ffff8000001211aa <_isr22>:
ffff8000001211aa:	6a 00                	pushq  $0x0
ffff8000001211ac:	6a 16                	pushq  $0x16
ffff8000001211ae:	e9 a8 00 00 00       	jmpq   ffff80000012125b <common_intr_entry>

ffff8000001211b3 <_isr23>:
ffff8000001211b3:	6a 00                	pushq  $0x0
ffff8000001211b5:	6a 17                	pushq  $0x17
ffff8000001211b7:	e9 9f 00 00 00       	jmpq   ffff80000012125b <common_intr_entry>

ffff8000001211bc <_isr24>:
ffff8000001211bc:	6a 00                	pushq  $0x0
ffff8000001211be:	6a 18                	pushq  $0x18
ffff8000001211c0:	e9 96 00 00 00       	jmpq   ffff80000012125b <common_intr_entry>

ffff8000001211c5 <_isr25>:
ffff8000001211c5:	6a 00                	pushq  $0x0
ffff8000001211c7:	6a 19                	pushq  $0x19
ffff8000001211c9:	e9 8d 00 00 00       	jmpq   ffff80000012125b <common_intr_entry>

ffff8000001211ce <_isr26>:
ffff8000001211ce:	6a 00                	pushq  $0x0
ffff8000001211d0:	6a 1a                	pushq  $0x1a
ffff8000001211d2:	e9 84 00 00 00       	jmpq   ffff80000012125b <common_intr_entry>

ffff8000001211d7 <_isr27>:
ffff8000001211d7:	6a 00                	pushq  $0x0
ffff8000001211d9:	6a 1b                	pushq  $0x1b
ffff8000001211db:	eb 7e                	jmp    ffff80000012125b <common_intr_entry>

ffff8000001211dd <_isr28>:
ffff8000001211dd:	6a 00                	pushq  $0x0
ffff8000001211df:	6a 1c                	pushq  $0x1c
ffff8000001211e1:	eb 78                	jmp    ffff80000012125b <common_intr_entry>

ffff8000001211e3 <_isr29>:
ffff8000001211e3:	6a 00                	pushq  $0x0
ffff8000001211e5:	6a 1d                	pushq  $0x1d
ffff8000001211e7:	eb 72                	jmp    ffff80000012125b <common_intr_entry>

ffff8000001211e9 <_isr30>:
ffff8000001211e9:	6a 00                	pushq  $0x0
ffff8000001211eb:	6a 1e                	pushq  $0x1e
ffff8000001211ed:	eb 6c                	jmp    ffff80000012125b <common_intr_entry>

ffff8000001211ef <_isr31>:
ffff8000001211ef:	6a 00                	pushq  $0x0
ffff8000001211f1:	6a 1f                	pushq  $0x1f
ffff8000001211f3:	eb 66                	jmp    ffff80000012125b <common_intr_entry>

ffff8000001211f5 <_isr32>:
ffff8000001211f5:	6a 00                	pushq  $0x0
ffff8000001211f7:	6a 20                	pushq  $0x20
ffff8000001211f9:	eb 60                	jmp    ffff80000012125b <common_intr_entry>

ffff8000001211fb <_isr33>:
ffff8000001211fb:	6a 00                	pushq  $0x0
ffff8000001211fd:	6a 21                	pushq  $0x21
ffff8000001211ff:	eb 5a                	jmp    ffff80000012125b <common_intr_entry>

ffff800000121201 <_isr34>:
ffff800000121201:	6a 00                	pushq  $0x0
ffff800000121203:	6a 22                	pushq  $0x22
ffff800000121205:	eb 54                	jmp    ffff80000012125b <common_intr_entry>

ffff800000121207 <_isr35>:
ffff800000121207:	6a 00                	pushq  $0x0
ffff800000121209:	6a 23                	pushq  $0x23
ffff80000012120b:	eb 4e                	jmp    ffff80000012125b <common_intr_entry>

ffff80000012120d <_isr36>:
ffff80000012120d:	6a 00                	pushq  $0x0
ffff80000012120f:	6a 24                	pushq  $0x24
ffff800000121211:	eb 48                	jmp    ffff80000012125b <common_intr_entry>

ffff800000121213 <_isr37>:
ffff800000121213:	6a 00                	pushq  $0x0
ffff800000121215:	6a 25                	pushq  $0x25
ffff800000121217:	eb 42                	jmp    ffff80000012125b <common_intr_entry>

ffff800000121219 <_isr38>:
ffff800000121219:	6a 00                	pushq  $0x0
ffff80000012121b:	6a 26                	pushq  $0x26
ffff80000012121d:	eb 3c                	jmp    ffff80000012125b <common_intr_entry>

ffff80000012121f <_isr39>:
ffff80000012121f:	6a 00                	pushq  $0x0
ffff800000121221:	6a 27                	pushq  $0x27
ffff800000121223:	eb 36                	jmp    ffff80000012125b <common_intr_entry>

ffff800000121225 <_isr40>:
ffff800000121225:	6a 00                	pushq  $0x0
ffff800000121227:	6a 28                	pushq  $0x28
ffff800000121229:	eb 30                	jmp    ffff80000012125b <common_intr_entry>

ffff80000012122b <_isr41>:
ffff80000012122b:	6a 00                	pushq  $0x0
ffff80000012122d:	6a 29                	pushq  $0x29
ffff80000012122f:	eb 2a                	jmp    ffff80000012125b <common_intr_entry>

ffff800000121231 <_isr42>:
ffff800000121231:	6a 00                	pushq  $0x0
ffff800000121233:	6a 2a                	pushq  $0x2a
ffff800000121235:	eb 24                	jmp    ffff80000012125b <common_intr_entry>

ffff800000121237 <_isr43>:
ffff800000121237:	6a 00                	pushq  $0x0
ffff800000121239:	6a 2b                	pushq  $0x2b
ffff80000012123b:	eb 1e                	jmp    ffff80000012125b <common_intr_entry>

ffff80000012123d <_isr44>:
ffff80000012123d:	6a 00                	pushq  $0x0
ffff80000012123f:	6a 2c                	pushq  $0x2c
ffff800000121241:	eb 18                	jmp    ffff80000012125b <common_intr_entry>

ffff800000121243 <_isr45>:
ffff800000121243:	6a 00                	pushq  $0x0
ffff800000121245:	6a 2d                	pushq  $0x2d
ffff800000121247:	eb 12                	jmp    ffff80000012125b <common_intr_entry>

ffff800000121249 <_isr46>:
ffff800000121249:	6a 00                	pushq  $0x0
ffff80000012124b:	6a 2e                	pushq  $0x2e
ffff80000012124d:	eb 0c                	jmp    ffff80000012125b <common_intr_entry>

ffff80000012124f <_isr47>:
ffff80000012124f:	6a 00                	pushq  $0x0
ffff800000121251:	6a 2f                	pushq  $0x2f
ffff800000121253:	eb 06                	jmp    ffff80000012125b <common_intr_entry>

ffff800000121255 <_isr99>:
ffff800000121255:	6a 00                	pushq  $0x0
ffff800000121257:	6a 63                	pushq  $0x63
ffff800000121259:	eb 00                	jmp    ffff80000012125b <common_intr_entry>

ffff80000012125b <common_intr_entry>:
ffff80000012125b:	55                   	push   %rbp
ffff80000012125c:	50                   	push   %rax
ffff80000012125d:	53                   	push   %rbx
ffff80000012125e:	51                   	push   %rcx
ffff80000012125f:	52                   	push   %rdx
ffff800000121260:	57                   	push   %rdi
ffff800000121261:	56                   	push   %rsi
ffff800000121262:	41 50                	push   %r8
ffff800000121264:	41 51                	push   %r9
ffff800000121266:	41 52                	push   %r10
ffff800000121268:	41 53                	push   %r11
ffff80000012126a:	41 54                	push   %r12
ffff80000012126c:	41 55                	push   %r13
ffff80000012126e:	41 56                	push   %r14
ffff800000121270:	41 57                	push   %r15
ffff800000121272:	66 8c d8             	mov    %ds,%ax
ffff800000121275:	50                   	push   %rax
ffff800000121276:	66 8c c0             	mov    %es,%ax
ffff800000121279:	50                   	push   %rax
ffff80000012127a:	0f a0                	pushq  %fs
ffff80000012127c:	0f a8                	pushq  %gs
ffff80000012127e:	66 b8 10 00          	mov    $0x10,%ax
ffff800000121282:	8e d8                	mov    %eax,%ds
ffff800000121284:	8e c0                	mov    %eax,%es
ffff800000121286:	8e e0                	mov    %eax,%fs
ffff800000121288:	8e e8                	mov    %eax,%gs
ffff80000012128a:	48 89 e7             	mov    %rsp,%rdi
ffff80000012128d:	e8 df aa ff ff       	callq  ffff80000011bd71 <common_intr_handler>
ffff800000121292:	0f a9                	popq   %gs
ffff800000121294:	0f a1                	popq   %fs
ffff800000121296:	58                   	pop    %rax
ffff800000121297:	8e c0                	mov    %eax,%es
ffff800000121299:	58                   	pop    %rax
ffff80000012129a:	8e d8                	mov    %eax,%ds
ffff80000012129c:	41 5f                	pop    %r15
ffff80000012129e:	41 5e                	pop    %r14
ffff8000001212a0:	41 5d                	pop    %r13
ffff8000001212a2:	41 5c                	pop    %r12
ffff8000001212a4:	41 5b                	pop    %r11
ffff8000001212a6:	41 5a                	pop    %r10
ffff8000001212a8:	41 59                	pop    %r9
ffff8000001212aa:	41 58                	pop    %r8
ffff8000001212ac:	5e                   	pop    %rsi
ffff8000001212ad:	5f                   	pop    %rdi
ffff8000001212ae:	5a                   	pop    %rdx
ffff8000001212af:	59                   	pop    %rcx
ffff8000001212b0:	5b                   	pop    %rbx
ffff8000001212b1:	58                   	pop    %rax
ffff8000001212b2:	5d                   	pop    %rbp
ffff8000001212b3:	48 83 c4 10          	add    $0x10,%rsp
ffff8000001212b7:	48 cf                	iretq  
ffff8000001212b9:	0f 1f 80 00 00 00 00 	nopl   0x0(%rax)

ffff8000001212c0 <load_cr3>:
ffff8000001212c0:	50                   	push   %rax
ffff8000001212c1:	48 89 f8             	mov    %rdi,%rax
ffff8000001212c4:	0f 22 d8             	mov    %rax,%cr3
ffff8000001212c7:	58                   	pop    %rax
ffff8000001212c8:	c3                   	retq   

ffff8000001212c9 <lock_inc_dword>:
ffff8000001212c9:	f0 ff 07             	lock incl (%rdi)
ffff8000001212cc:	c3                   	retq   

ffff8000001212cd <load_gdtr>:
ffff8000001212cd:	0f 01 17             	lgdt   (%rdi)
ffff8000001212d0:	c3                   	retq   

ffff8000001212d1 <load_tr>:
ffff8000001212d1:	0f 00 df             	ltr    %di
ffff8000001212d4:	c3                   	retq   

ffff8000001212d5 <load_idtr>:
ffff8000001212d5:	0f 01 1f             	lidt   (%rdi)
ffff8000001212d8:	c3                   	retq   

ffff8000001212d9 <enable_intr>:
ffff8000001212d9:	fb                   	sti    
ffff8000001212da:	c3                   	retq   

ffff8000001212db <disable_intr>:
ffff8000001212db:	fa                   	cli    
ffff8000001212dc:	c3                   	retq   

ffff8000001212dd <read_rflags>:
ffff8000001212dd:	9c                   	pushfq 
ffff8000001212de:	58                   	pop    %rax
ffff8000001212df:	c3                   	retq   

ffff8000001212e0 <write_msr>:
ffff8000001212e0:	52                   	push   %rdx
ffff8000001212e1:	50                   	push   %rax
ffff8000001212e2:	51                   	push   %rcx
ffff8000001212e3:	48 89 f9             	mov    %rdi,%rcx
ffff8000001212e6:	48 89 d0             	mov    %rdx,%rax
ffff8000001212e9:	48 89 f2             	mov    %rsi,%rdx
ffff8000001212ec:	0f 30                	wrmsr  
ffff8000001212ee:	59                   	pop    %rcx
ffff8000001212ef:	58                   	pop    %rax
ffff8000001212f0:	5a                   	pop    %rdx
ffff8000001212f1:	c3                   	retq   

ffff8000001212f2 <switch_context>:
ffff8000001212f2:	55                   	push   %rbp
ffff8000001212f3:	48 89 e5             	mov    %rsp,%rbp
ffff8000001212f6:	9c                   	pushfq 
ffff8000001212f7:	48 83 ff 00          	cmp    $0x0,%rdi
ffff8000001212fb:	74 6e                	je     ffff80000012136b <switch_context.LoadContext>
ffff8000001212fd:	9d                   	popfq  
ffff8000001212fe:	50                   	push   %rax
ffff8000001212ff:	66 8c d0             	mov    %ss,%ax
ffff800000121302:	48 89 87 c8 00 00 00 	mov    %rax,0xc8(%rdi)
ffff800000121309:	48 89 e8             	mov    %rbp,%rax
ffff80000012130c:	48 83 c0 10          	add    $0x10,%rax
ffff800000121310:	48 89 87 c0 00 00 00 	mov    %rax,0xc0(%rdi)
ffff800000121317:	9c                   	pushfq 
ffff800000121318:	58                   	pop    %rax
ffff800000121319:	48 89 87 b8 00 00 00 	mov    %rax,0xb8(%rdi)
ffff800000121320:	66 8c c8             	mov    %cs,%ax
ffff800000121323:	48 89 87 b0 00 00 00 	mov    %rax,0xb0(%rdi)
ffff80000012132a:	48 8b 45 08          	mov    0x8(%rbp),%rax
ffff80000012132e:	48 89 87 a8 00 00 00 	mov    %rax,0xa8(%rdi)
ffff800000121335:	58                   	pop    %rax
ffff800000121336:	5d                   	pop    %rbp
ffff800000121337:	48 81 c7 98 00 00 00 	add    $0x98,%rdi
ffff80000012133e:	48 89 fc             	mov    %rdi,%rsp
ffff800000121341:	48 81 ef 98 00 00 00 	sub    $0x98,%rdi
ffff800000121348:	55                   	push   %rbp
ffff800000121349:	50                   	push   %rax
ffff80000012134a:	53                   	push   %rbx
ffff80000012134b:	51                   	push   %rcx
ffff80000012134c:	52                   	push   %rdx
ffff80000012134d:	57                   	push   %rdi
ffff80000012134e:	56                   	push   %rsi
ffff80000012134f:	41 50                	push   %r8
ffff800000121351:	41 51                	push   %r9
ffff800000121353:	41 52                	push   %r10
ffff800000121355:	41 53                	push   %r11
ffff800000121357:	41 54                	push   %r12
ffff800000121359:	41 55                	push   %r13
ffff80000012135b:	41 56                	push   %r14
ffff80000012135d:	41 57                	push   %r15
ffff80000012135f:	66 8c d8             	mov    %ds,%ax
ffff800000121362:	50                   	push   %rax
ffff800000121363:	66 8c c0             	mov    %es,%ax
ffff800000121366:	50                   	push   %rax
ffff800000121367:	0f a0                	pushq  %fs
ffff800000121369:	0f a8                	pushq  %gs

ffff80000012136b <switch_context.LoadContext>:
ffff80000012136b:	48 89 f4             	mov    %rsi,%rsp
ffff80000012136e:	0f a9                	popq   %gs
ffff800000121370:	0f a1                	popq   %fs
ffff800000121372:	58                   	pop    %rax
ffff800000121373:	8e c0                	mov    %eax,%es
ffff800000121375:	58                   	pop    %rax
ffff800000121376:	8e d8                	mov    %eax,%ds
ffff800000121378:	41 5f                	pop    %r15
ffff80000012137a:	41 5e                	pop    %r14
ffff80000012137c:	41 5d                	pop    %r13
ffff80000012137e:	41 5c                	pop    %r12
ffff800000121380:	41 5b                	pop    %r11
ffff800000121382:	41 5a                	pop    %r10
ffff800000121384:	41 59                	pop    %r9
ffff800000121386:	41 58                	pop    %r8
ffff800000121388:	5e                   	pop    %rsi
ffff800000121389:	5f                   	pop    %rdi
ffff80000012138a:	5a                   	pop    %rdx
ffff80000012138b:	59                   	pop    %rcx
ffff80000012138c:	5b                   	pop    %rbx
ffff80000012138d:	58                   	pop    %rax
ffff80000012138e:	5d                   	pop    %rbp
ffff80000012138f:	48 83 c4 10          	add    $0x10,%rsp
ffff800000121393:	48 cf                	iretq  

ffff800000121395 <hlt>:
ffff800000121395:	f4                   	hlt    
ffff800000121396:	c3                   	retq   

ffff800000121397 <test_and_set>:
ffff800000121397:	48 89 f0             	mov    %rsi,%rax
ffff80000012139a:	f0 0f b0 17          	lock cmpxchg %dl,(%rdi)
ffff80000012139e:	74 06                	je     ffff8000001213a6 <test_and_set.SUCCESS>

ffff8000001213a0 <test_and_set.NOTSAME>:
ffff8000001213a0:	b8 00 00 00 00       	mov    $0x0,%eax
ffff8000001213a5:	c3                   	retq   

ffff8000001213a6 <test_and_set.SUCCESS>:
ffff8000001213a6:	b8 01 00 00 00       	mov    $0x1,%eax
ffff8000001213ab:	c3                   	retq   

ffff8000001213ac <x86_finit>:
ffff8000001213ac:	9b db e3             	finit  
ffff8000001213af:	c3                   	retq   

ffff8000001213b0 <save_fpu_context>:
ffff8000001213b0:	0f ae 07             	fxsave (%rdi)
ffff8000001213b3:	c3                   	retq   

ffff8000001213b4 <load_fpu_context>:
ffff8000001213b4:	0f ae 0f             	fxrstor (%rdi)
ffff8000001213b7:	c3                   	retq   

ffff8000001213b8 <set_ts>:
ffff8000001213b8:	50                   	push   %rax
ffff8000001213b9:	0f 20 c0             	mov    %cr0,%rax
ffff8000001213bc:	48 83 c8 08          	or     $0x8,%rax
ffff8000001213c0:	0f 22 c0             	mov    %rax,%cr0
ffff8000001213c3:	58                   	pop    %rax
ffff8000001213c4:	c3                   	retq   

ffff8000001213c5 <clear_ts>:
ffff8000001213c5:	0f 06                	clts   
ffff8000001213c7:	c3                   	retq   

ffff8000001213c8 <enable_global_lapic>:
ffff8000001213c8:	50                   	push   %rax
ffff8000001213c9:	51                   	push   %rcx
ffff8000001213ca:	52                   	push   %rdx
ffff8000001213cb:	b9 1b 00 00 00       	mov    $0x1b,%ecx
ffff8000001213d0:	0f 32                	rdmsr  
ffff8000001213d2:	0d 00 08 00 00       	or     $0x800,%eax
ffff8000001213d7:	0f 30                	wrmsr  
ffff8000001213d9:	5a                   	pop    %rdx
ffff8000001213da:	59                   	pop    %rcx
ffff8000001213db:	58                   	pop    %rax
ffff8000001213dc:	c3                   	retq   

ffff8000001213dd <pause>:
ffff8000001213dd:	f3 90                	pause  
ffff8000001213df:	c3                   	retq   

Disassembly of section .rodata:

ffff8000001213e0 <.rodata>:
ffff8000001213e0:	67 64 74 2c          	addr32 fs je ffff800000121410 <pause+0x33>
ffff8000001213e4:	20 74 73 73          	and    %dh,0x73(%rbx,%rsi,2)
ffff8000001213e8:	20 5b 6f             	and    %bl,0x6f(%rbx)
ffff8000001213eb:	6b 5d 0a 00          	imul   $0x0,0xa(%rbp),%ebx
ffff8000001213ef:	69 64 74 20 5b 6f 6b 	imul   $0x5d6b6f5b,0x20(%rsp,%rsi,2),%esp
ffff8000001213f6:	5d 
ffff8000001213f7:	0a 00                	or     (%rax),%al
ffff8000001213f9:	00 00                	add    %al,(%rax)
ffff8000001213fb:	00 00                	add    %al,(%rax)
ffff8000001213fd:	00 00                	add    %al,(%rax)
ffff8000001213ff:	00 5b 25             	add    %bl,0x25(%rbx)
ffff800000121402:	64 5d                	fs pop %rbp
ffff800000121404:	20 69 6e             	and    %ch,0x6e(%rcx)
ffff800000121407:	74 65                	je     ffff80000012146e <pause+0x91>
ffff800000121409:	72 72                	jb     ffff80000012147d <pause+0xa0>
ffff80000012140b:	75 70                	jne    ffff80000012147d <pause+0xa0>
ffff80000012140d:	74 20                	je     ffff80000012142f <pause+0x52>
ffff80000012140f:	72 69                	jb     ffff80000012147a <pause+0x9d>
ffff800000121411:	73 69                	jae    ffff80000012147c <pause+0x9f>
ffff800000121413:	6e                   	outsb  %ds:(%rsi),(%dx)
ffff800000121414:	67 20 3a             	and    %bh,(%edx)
ffff800000121417:	20 6e 75             	and    %ch,0x75(%rsi)
ffff80000012141a:	6d                   	insl   (%dx),%es:(%rdi)
ffff80000012141b:	5b                   	pop    %rbx
ffff80000012141c:	25 64 5d 20 63       	and    $0x63205d64,%eax
ffff800000121421:	6f                   	outsl  %ds:(%rsi),(%dx)
ffff800000121422:	72 65                	jb     ffff800000121489 <pause+0xac>
ffff800000121424:	5b                   	pop    %rbx
ffff800000121425:	25 64 5d 00 00       	and    $0x5d64,%eax
ffff80000012142a:	00 00                	add    %al,(%rax)
ffff80000012142c:	00 00                	add    %al,(%rax)
ffff80000012142e:	00 00                	add    %al,(%rax)
ffff800000121430:	2a 2a                	sub    (%rdx),%ch
ffff800000121432:	2a 2a                	sub    (%rdx),%ch
ffff800000121434:	2a 2a                	sub    (%rdx),%ch
ffff800000121436:	2a 2a                	sub    (%rdx),%ch
ffff800000121438:	2a 2a                	sub    (%rdx),%ch
ffff80000012143a:	2a 2a                	sub    (%rdx),%ch
ffff80000012143c:	2a 2a                	sub    (%rdx),%ch
ffff80000012143e:	2a 2a                	sub    (%rdx),%ch
ffff800000121440:	2a 2a                	sub    (%rdx),%ch
ffff800000121442:	2a 2a                	sub    (%rdx),%ch
ffff800000121444:	2a 2a                	sub    (%rdx),%ch
ffff800000121446:	2a 2a                	sub    (%rdx),%ch
ffff800000121448:	2a 2a                	sub    (%rdx),%ch
ffff80000012144a:	2a 2a                	sub    (%rdx),%ch
ffff80000012144c:	2a 2a                	sub    (%rdx),%ch
ffff80000012144e:	2a 2a                	sub    (%rdx),%ch
ffff800000121450:	2a 2a                	sub    (%rdx),%ch
ffff800000121452:	0a 00                	or     (%rax),%al
ffff800000121454:	00 00                	add    %al,(%rax)
ffff800000121456:	00 00                	add    %al,(%rax)
ffff800000121458:	2a 2a                	sub    (%rdx),%ch
ffff80000012145a:	20 4e 4f             	and    %cl,0x4f(%rsi)
ffff80000012145d:	20 48 41             	and    %cl,0x41(%rax)
ffff800000121460:	4e                   	rex.WRX
ffff800000121461:	44                   	rex.R
ffff800000121462:	4c                   	rex.WR
ffff800000121463:	45 52                	rex.RB push %r10
ffff800000121465:	20 50 41             	and    %dl,0x41(%rax)
ffff800000121468:	4e                   	rex.WRX
ffff800000121469:	49                   	rex.WB
ffff80000012146a:	43 20 3a             	rex.XB and %dil,(%r10)
ffff80000012146d:	20 49 52             	and    %cl,0x52(%rcx)
ffff800000121470:	51                   	push   %rcx
ffff800000121471:	20 4e 55             	and    %cl,0x55(%rsi)
ffff800000121474:	4d 20 25 64 0a 00 73 	rex.WRB and %r12b,0x73000a64(%rip)        # ffff800073121edf <img_end+0x72ffe6a3>
ffff80000012147b:	6d                   	insl   (%dx),%es:(%rdi)
ffff80000012147c:	70 3f                	jo     ffff8000001214bd <pause+0xe0>
ffff80000012147e:	20 6d 6f             	and    %ch,0x6f(%rbp)
ffff800000121481:	64 65 20 5b 73       	fs and %bl,%gs:0x73(%rbx)
ffff800000121486:	74 61                	je     ffff8000001214e9 <pause+0x10c>
ffff800000121488:	72 74                	jb     ffff8000001214fe <pause+0x121>
ffff80000012148a:	69 6e 67 5d 0a 00 6b 	imul   $0x6b000a5d,0x67(%rsi),%ebp
ffff800000121491:	65 79 62             	gs jns ffff8000001214f6 <pause+0x119>
ffff800000121494:	6f                   	outsl  %ds:(%rsi),(%dx)
ffff800000121495:	61                   	(bad)  
ffff800000121496:	72 64                	jb     ffff8000001214fc <pause+0x11f>
ffff800000121498:	2c 20                	sub    $0x20,%al
ffff80000012149a:	6b 65 79 2d          	imul   $0x2d,0x79(%rbp),%esp
ffff80000012149e:	71 75                	jno    ffff800000121515 <pause+0x138>
ffff8000001214a0:	65 75 65             	gs jne ffff800000121508 <pause+0x12b>
ffff8000001214a3:	20 5b 6f             	and    %bl,0x6f(%rbx)
ffff8000001214a6:	6b 5d 0a 00          	imul   $0x0,0xa(%rbp),%ebx
ffff8000001214aa:	70 69                	jo     ffff800000121515 <pause+0x138>
ffff8000001214ac:	63 20                	movslq (%rax),%esp
ffff8000001214ae:	63 6f 6e             	movslq 0x6e(%rdi),%ebp
ffff8000001214b1:	74 72                	je     ffff800000121525 <pause+0x148>
ffff8000001214b3:	6f                   	outsl  %ds:(%rsi),(%dx)
ffff8000001214b4:	6c                   	insb   (%dx),%es:(%rdi)
ffff8000001214b5:	6c                   	insb   (%dx),%es:(%rdi)
ffff8000001214b6:	65 72 20             	gs jb  ffff8000001214d9 <pause+0xfc>
ffff8000001214b9:	5b                   	pop    %rbx
ffff8000001214ba:	6f                   	outsl  %ds:(%rsi),(%dx)
ffff8000001214bb:	6b 3f 5d             	imul   $0x5d,(%rdi),%edi
ffff8000001214be:	0a 00                	or     (%rax),%al
ffff8000001214c0:	70 73                	jo     ffff800000121535 <pause+0x158>
ffff8000001214c2:	00 0a                	add    %cl,(%rdx)
ffff8000001214c4:	42 29 00             	rex.X sub %eax,(%rax)
ffff8000001214c7:	08 00                	or     %al,(%rax)
ffff8000001214c9:	0a 00                	or     (%rax),%al
ffff8000001214cb:	42 29 00             	rex.X sub %eax,(%rax)
ffff8000001214ce:	25 73 00 25 63       	and    $0x63250073,%eax
ffff8000001214d3:	00 27                	add    %ah,(%rdi)
ffff8000001214d5:	25 73 27 20 69       	and    $0x69202773,%eax
ffff8000001214da:	73 20                	jae    ffff8000001214fc <pause+0x11f>
ffff8000001214dc:	6e                   	outsb  %ds:(%rsi),(%dx)
ffff8000001214dd:	6f                   	outsl  %ds:(%rsi),(%dx)
ffff8000001214de:	74 20                	je     ffff800000121500 <pause+0x123>
ffff8000001214e0:	66 6f                	outsw  %ds:(%rsi),(%dx)
ffff8000001214e2:	75 6e                	jne    ffff800000121552 <pause+0x175>
ffff8000001214e4:	64 2e 0a 00          	fs or  %cs:(%rax),%al
ffff8000001214e8:	4e 6f                	rex.WRX outsl %ds:(%rsi),(%dx)
ffff8000001214ea:	20 54 61 73          	and    %dl,0x73(%rcx,%riz,2)
ffff8000001214ee:	6b 0a 00             	imul   $0x0,(%rdx),%ecx
ffff8000001214f1:	25 64 20 25 64       	and    $0x64252064,%eax
ffff8000001214f6:	20 25 73 20 25 64    	and    %ah,0x64252073(%rip)        # ffff80006437356f <img_end+0x6424fd33>
ffff8000001214fc:	00 20                	add    %ah,(%rax)
ffff8000001214fe:	25 78 20 25 78       	and    $0x78252078,%eax
ffff800000121503:	00 20                	add    %ah,(%rax)
ffff800000121505:	25 64 20 25 78       	and    $0x78252064,%eax
ffff80000012150a:	0a 00                	or     (%rax),%al
ffff80000012150c:	00 00                	add    %al,(%rax)
ffff80000012150e:	00 00                	add    %al,(%rax)
ffff800000121510:	0a 23                	or     (%rbx),%ah
ffff800000121512:	23 23                	and    (%rbx),%esp
ffff800000121514:	23 23                	and    (%rbx),%esp
ffff800000121516:	23 23                	and    (%rbx),%esp
ffff800000121518:	23 23                	and    (%rbx),%esp
ffff80000012151a:	23 23                	and    (%rbx),%esp
ffff80000012151c:	23 23                	and    (%rbx),%esp
ffff80000012151e:	23 23                	and    (%rbx),%esp
ffff800000121520:	23 23                	and    (%rbx),%esp
ffff800000121522:	23 23                	and    (%rbx),%esp
ffff800000121524:	23 23                	and    (%rbx),%esp
ffff800000121526:	23 23                	and    (%rbx),%esp
ffff800000121528:	23 23                	and    (%rbx),%esp
ffff80000012152a:	23 23                	and    (%rbx),%esp
ffff80000012152c:	23 23                	and    (%rbx),%esp
ffff80000012152e:	23 23                	and    (%rbx),%esp
ffff800000121530:	23 23                	and    (%rbx),%esp
ffff800000121532:	23 23                	and    (%rbx),%esp
ffff800000121534:	23 23                	and    (%rbx),%esp
ffff800000121536:	23 23                	and    (%rbx),%esp
ffff800000121538:	0a 63 6f             	or     0x6f(%rbx),%ah
ffff80000012153b:	72 65                	jb     ffff8000001215a2 <pause+0x1c5>
ffff80000012153d:	2d 30 3a 20 00       	sub    $0x203a30,%eax
ffff800000121542:	63 6f 72             	movslq 0x72(%rdi),%ebp
ffff800000121545:	65 2d 31 3a 20 00    	gs sub $0x203a31,%eax
ffff80000012154b:	63 6f 72             	movslq 0x72(%rdi),%ebp
ffff80000012154e:	65 2d 32 3a 20 00    	gs sub $0x203a32,%eax
ffff800000121554:	63 6f 72             	movslq 0x72(%rdi),%ebp
ffff800000121557:	65 2d 33 3a 20 00    	gs sub $0x203a33,%eax
ffff80000012155d:	6e                   	outsb  %ds:(%rsi),(%dx)
ffff80000012155e:	6f                   	outsl  %ds:(%rsi),(%dx)
ffff80000012155f:	20 72 65             	and    %dh,0x65(%rdx)
ffff800000121562:	61                   	(bad)  
ffff800000121563:	64 79 20             	fs jns ffff800000121586 <pause+0x1a9>
ffff800000121566:	74 61                	je     ffff8000001215c9 <pause+0x1ec>
ffff800000121568:	73 6b                	jae    ffff8000001215d5 <pause+0x1f8>
ffff80000012156a:	0a 00                	or     (%rax),%al
ffff80000012156c:	72 65                	jb     ffff8000001215d3 <pause+0x1f6>
ffff80000012156e:	61                   	(bad)  
ffff80000012156f:	64 79 20             	fs jns ffff800000121592 <pause+0x1b5>
ffff800000121572:	74 61                	je     ffff8000001215d5 <pause+0x1f8>
ffff800000121574:	73 6b                	jae    ffff8000001215e1 <pause+0x204>
ffff800000121576:	20 63 6f             	and    %ah,0x6f(%rbx)
ffff800000121579:	75 6e                	jne    ffff8000001215e9 <pause+0x20c>
ffff80000012157b:	74 3a                	je     ffff8000001215b7 <pause+0x1da>
ffff80000012157d:	20 25 64 0a 00 72    	and    %ah,0x72000a64(%rip)        # ffff800072121fe7 <img_end+0x71ffe7ab>
ffff800000121583:	65 61                	gs (bad) 
ffff800000121585:	64 79 2d             	fs jns ffff8000001215b5 <pause+0x1d8>
ffff800000121588:	25 64 3a 20 00       	and    $0x203a64,%eax
ffff80000012158d:	00 00                	add    %al,(%rax)
ffff80000012158f:	00 23                	add    %ah,(%rbx)
ffff800000121591:	23 23                	and    (%rbx),%esp
ffff800000121593:	23 23                	and    (%rbx),%esp
ffff800000121595:	23 23                	and    (%rbx),%esp
ffff800000121597:	23 23                	and    (%rbx),%esp
ffff800000121599:	23 23                	and    (%rbx),%esp
ffff80000012159b:	23 23                	and    (%rbx),%esp
ffff80000012159d:	23 23                	and    (%rbx),%esp
ffff80000012159f:	23 23                	and    (%rbx),%esp
ffff8000001215a1:	23 23                	and    (%rbx),%esp
ffff8000001215a3:	23 23                	and    (%rbx),%esp
ffff8000001215a5:	23 23                	and    (%rbx),%esp
ffff8000001215a7:	23 23                	and    (%rbx),%esp
ffff8000001215a9:	23 23                	and    (%rbx),%esp
ffff8000001215ab:	23 23                	and    (%rbx),%esp
ffff8000001215ad:	23 23                	and    (%rbx),%esp
ffff8000001215af:	23 23                	and    (%rbx),%esp
ffff8000001215b1:	23 23                	and    (%rbx),%esp
ffff8000001215b3:	23 23                	and    (%rbx),%esp
ffff8000001215b5:	23 23                	and    (%rbx),%esp
ffff8000001215b7:	0a 00                	or     (%rax),%al
ffff8000001215b9:	30 31                	xor    %dh,(%rcx)
ffff8000001215bb:	32 33                	xor    (%rbx),%dh
ffff8000001215bd:	34 35                	xor    $0x35,%al
ffff8000001215bf:	36 37                	ss (bad) 
ffff8000001215c1:	38 39                	cmp    %bh,(%rcx)
ffff8000001215c3:	61                   	(bad)  
ffff8000001215c4:	62 63 64 65 66       	(bad)  {%k5}
ffff8000001215c9:	00 73 73             	add    %dh,0x73(%rbx)
ffff8000001215cc:	3a 25 78 20 72 73    	cmp    0x73722078(%rip),%ah        # ffff80007384364a <img_end+0x7371fe0e>
ffff8000001215d2:	70 3a                	jo     ffff80000012160e <pause+0x231>
ffff8000001215d4:	25 78 20 72 66       	and    $0x66722078,%eax
ffff8000001215d9:	6c                   	insb   (%dx),%es:(%rdi)
ffff8000001215da:	61                   	(bad)  
ffff8000001215db:	67 73 3a             	addr32 jae ffff800000121618 <pause+0x23b>
ffff8000001215de:	25 78 0a 00 63       	and    $0x63000a78,%eax
ffff8000001215e3:	73 3a                	jae    ffff80000012161f <pause+0x242>
ffff8000001215e5:	25 78 20 72 69       	and    $0x69722078,%eax
ffff8000001215ea:	70 3a                	jo     ffff800000121626 <pause+0x249>
ffff8000001215ec:	25 78 0a 00 65       	and    $0x65000a78,%eax
ffff8000001215f1:	72 72                	jb     ffff800000121665 <pause+0x288>
ffff8000001215f3:	5f                   	pop    %rdi
ffff8000001215f4:	63 6f 64             	movslq 0x64(%rdi),%ebp
ffff8000001215f7:	65 3a 25 78 20 69 6e 	cmp    %gs:0x6e692078(%rip),%ah        # ffff80006e7b3676 <img_end+0x6e68fe3a>
ffff8000001215fe:	74 5f                	je     ffff80000012165f <pause+0x282>
ffff800000121600:	6e                   	outsb  %ds:(%rsi),(%dx)
ffff800000121601:	6f                   	outsl  %ds:(%rsi),(%dx)
ffff800000121602:	3a 25 78 0a 00 72    	cmp    0x72000a78(%rip),%ah        # ffff800072122080 <img_end+0x71ffe844>
ffff800000121608:	62                   	(bad)  {%k5}
ffff800000121609:	70 3a                	jo     ffff800000121645 <pause+0x268>
ffff80000012160b:	25 78 20 72 61       	and    $0x61722078,%eax
ffff800000121610:	78 3a                	js     ffff80000012164c <pause+0x26f>
ffff800000121612:	25 78 20 72 62       	and    $0x62722078,%eax
ffff800000121617:	78 3a                	js     ffff800000121653 <pause+0x276>
ffff800000121619:	25 78 0a 00 72       	and    $0x72000a78,%eax
ffff80000012161e:	63 78 3a             	movslq 0x3a(%rax),%edi
ffff800000121621:	25 78 20 72 64       	and    $0x64722078,%eax
ffff800000121626:	78 3a                	js     ffff800000121662 <pause+0x285>
ffff800000121628:	25 78 20 72 64       	and    $0x64722078,%eax
ffff80000012162d:	69 3a 25 78 0a 00    	imul   $0xa7825,(%rdx),%edi
ffff800000121633:	72 73                	jb     ffff8000001216a8 <pause+0x2cb>
ffff800000121635:	69 3a 25 78 20 72    	imul   $0x72207825,(%rdx),%edi
ffff80000012163b:	38 3a                	cmp    %bh,(%rdx)
ffff80000012163d:	25 78 20 72 39       	and    $0x39722078,%eax
ffff800000121642:	3a 25 78 0a 00 72    	cmp    0x72000a78(%rip),%ah        # ffff8000721220c0 <img_end+0x71ffe884>
ffff800000121648:	31 30                	xor    %esi,(%rax)
ffff80000012164a:	3a 25 78 20 72 31    	cmp    0x31722078(%rip),%ah        # ffff8000318436c8 <img_end+0x3171fe8c>
ffff800000121650:	31 3a                	xor    %edi,(%rdx)
ffff800000121652:	25 78 20 72 31       	and    $0x31722078,%eax
ffff800000121657:	32 3a                	xor    (%rdx),%bh
ffff800000121659:	25 78 0a 00 72       	and    $0x72000a78,%eax
ffff80000012165e:	31 33                	xor    %esi,(%rbx)
ffff800000121660:	3a 25 78 20 72 31    	cmp    0x31722078(%rip),%ah        # ffff8000318436de <img_end+0x3171fea2>
ffff800000121666:	34 3a                	xor    $0x3a,%al
ffff800000121668:	25 78 20 72 31       	and    $0x31722078,%eax
ffff80000012166d:	35 3a 25 78 0a       	xor    $0xa78253a,%eax
ffff800000121672:	00 64 73 3a          	add    %ah,0x3a(%rbx,%rsi,2)
ffff800000121676:	25 78 20 65 73       	and    $0x73652078,%eax
ffff80000012167b:	3a 25 78 20 66 73    	cmp    0x73662078(%rip),%ah        # ffff8000737836f9 <img_end+0x7365febd>
ffff800000121681:	3a 25 78 0a 00 67    	cmp    0x67000a78(%rip),%ah        # ffff8000671220ff <img_end+0x66ffe8c3>
ffff800000121687:	73 3a                	jae    ffff8000001216c3 <pause+0x2e6>
ffff800000121689:	25 78 0a 00 77       	and    $0x77000a78,%eax
ffff80000012168e:	77 77                	ja     ffff800000121707 <pause+0x32a>
ffff800000121690:	3a 20                	cmp    (%rax),%ah
ffff800000121692:	25 73 5b 25 64       	and    $0x64255b73,%eax
ffff800000121697:	5d                   	pop    %rbp
ffff800000121698:	00 73 63             	add    %dh,0x63(%rbx)
ffff80000012169b:	68 65 64 75 6c       	pushq  $0x6c756465
ffff8000001216a0:	65 72 20             	gs jb  ffff8000001216c3 <pause+0x2e6>
ffff8000001216a3:	5b                   	pop    %rbx
ffff8000001216a4:	6f                   	outsl  %ds:(%rsi),(%dx)
ffff8000001216a5:	6b 5d 0a 00          	imul   $0x0,0xa(%rbp),%ebx
ffff8000001216a9:	69 6e 69 74 00 69 6e 	imul   $0x6e690074,0x69(%rsi),%ebp
ffff8000001216b0:	69 74 20 74 61 73 6b 	imul   $0x206b7361,0x74(%rax,%riz,1),%esi
ffff8000001216b7:	20 
ffff8000001216b8:	5b                   	pop    %rbx
ffff8000001216b9:	63 72 65             	movslq 0x65(%rdx),%esi
ffff8000001216bc:	61                   	(bad)  
ffff8000001216bd:	74 65                	je     ffff800000121724 <pause+0x347>
ffff8000001216bf:	64 5d                	fs pop %rbp
ffff8000001216c1:	0a 00                	or     (%rax),%al
ffff8000001216c3:	64 65 66 61          	fs gs data16 (bad) 
ffff8000001216c7:	75 6c                	jne    ffff800000121735 <pause+0x358>
ffff8000001216c9:	74 5f                	je     ffff80000012172a <pause+0x34d>
ffff8000001216cb:	6e                   	outsb  %ds:(%rsi),(%dx)
ffff8000001216cc:	61                   	(bad)  
ffff8000001216cd:	6d                   	insl   (%dx),%es:(%rdi)
ffff8000001216ce:	65 00 68 65          	add    %ch,%gs:0x65(%rax)
ffff8000001216d2:	6c                   	insb   (%dx),%es:(%rdi)
ffff8000001216d3:	6c                   	insb   (%dx),%es:(%rdi)
ffff8000001216d4:	6f                   	outsl  %ds:(%rsi),(%dx)
ffff8000001216d5:	20                   	.byte 0x20
ffff8000001216d6:	25                   	.byte 0x25
ffff8000001216d7:	64                   	fs
	...

Disassembly of section .eh_frame:

ffff8000001216e0 <.eh_frame>:
ffff8000001216e0:	14 00                	adc    $0x0,%al
ffff8000001216e2:	00 00                	add    %al,(%rax)
ffff8000001216e4:	00 00                	add    %al,(%rax)
ffff8000001216e6:	00 00                	add    %al,(%rax)
ffff8000001216e8:	01 7a 52             	add    %edi,0x52(%rdx)
ffff8000001216eb:	00 01                	add    %al,(%rcx)
ffff8000001216ed:	78 10                	js     ffff8000001216ff <pause+0x322>
ffff8000001216ef:	01 1b                	add    %ebx,(%rbx)
ffff8000001216f1:	0c 07                	or     $0x7,%al
ffff8000001216f3:	08 90 01 00 00 1c    	or     %dl,0x1c000001(%rax)
ffff8000001216f9:	00 00                	add    %al,(%rax)
ffff8000001216fb:	00 1c 00             	add    %bl,(%rax,%rax,1)
ffff8000001216fe:	00 00                	add    %al,(%rax)
ffff800000121700:	ff 99 ff ff f5 00    	lcall  *0xf5ffff(%rcx)
ffff800000121706:	00 00                	add    %al,(%rax)
ffff800000121708:	00 41 0e             	add    %al,0xe(%rcx)
ffff80000012170b:	10 86 02 43 0d 06    	adc    %al,0x60d4302(%rsi)
ffff800000121711:	02 f0                	add    %al,%dh
ffff800000121713:	0c 07                	or     $0x7,%al
ffff800000121715:	08 00                	or     %al,(%rax)
ffff800000121717:	00 1c 00             	add    %bl,(%rax,%rax,1)
ffff80000012171a:	00 00                	add    %al,(%rax)
ffff80000012171c:	3c 00                	cmp    $0x0,%al
ffff80000012171e:	00 00                	add    %al,(%rax)
ffff800000121720:	d4                   	(bad)  
ffff800000121721:	9a                   	(bad)  
ffff800000121722:	ff                   	(bad)  
ffff800000121723:	ff 13                	callq  *(%rbx)
ffff800000121725:	02 00                	add    (%rax),%al
ffff800000121727:	00 00                	add    %al,(%rax)
ffff800000121729:	41 0e                	rex.B (bad) 
ffff80000012172b:	10 86 02 43 0d 06    	adc    %al,0x60d4302(%rsi)
ffff800000121731:	03 0e                	add    (%rsi),%ecx
ffff800000121733:	02 0c 07             	add    (%rdi,%rax,1),%cl
ffff800000121736:	08 00                	or     %al,(%rax)
ffff800000121738:	1c 00                	sbb    $0x0,%al
ffff80000012173a:	00 00                	add    %al,(%rax)
ffff80000012173c:	5c                   	pop    %rsp
ffff80000012173d:	00 00                	add    %al,(%rax)
ffff80000012173f:	00 c7                	add    %al,%bh
ffff800000121741:	9c                   	pushfq 
ffff800000121742:	ff                   	(bad)  
ffff800000121743:	ff                   	(bad)  
ffff800000121744:	7b 00                	jnp    ffff800000121746 <pause+0x369>
ffff800000121746:	00 00                	add    %al,(%rax)
ffff800000121748:	00 41 0e             	add    %al,0xe(%rcx)
ffff80000012174b:	10 86 02 43 0d 06    	adc    %al,0x60d4302(%rsi)
ffff800000121751:	02 76 0c             	add    0xc(%rsi),%dh
ffff800000121754:	07                   	(bad)  
ffff800000121755:	08 00                	or     %al,(%rax)
ffff800000121757:	00 1c 00             	add    %bl,(%rax,%rax,1)
ffff80000012175a:	00 00                	add    %al,(%rax)
ffff80000012175c:	7c 00                	jl     ffff80000012175e <pause+0x381>
ffff80000012175e:	00 00                	add    %al,(%rax)
ffff800000121760:	22 9d ff ff 9d 00    	and    0x9dffff(%rbp),%bl
ffff800000121766:	00 00                	add    %al,(%rax)
ffff800000121768:	00 41 0e             	add    %al,0xe(%rcx)
ffff80000012176b:	10 86 02 43 0d 06    	adc    %al,0x60d4302(%rsi)
ffff800000121771:	02 98 0c 07 08 00    	add    0x8070c(%rax),%bl
ffff800000121777:	00 1c 00             	add    %bl,(%rax,%rax,1)
ffff80000012177a:	00 00                	add    %al,(%rax)
ffff80000012177c:	9c                   	pushfq 
ffff80000012177d:	00 00                	add    %al,(%rax)
ffff80000012177f:	00 9f 9d ff ff ee    	add    %bl,-0x11000063(%rdi)
ffff800000121785:	00 00                	add    %al,(%rax)
ffff800000121787:	00 00                	add    %al,(%rax)
ffff800000121789:	41 0e                	rex.B (bad) 
ffff80000012178b:	10 86 02 43 0d 06    	adc    %al,0x60d4302(%rsi)
ffff800000121791:	02 e9                	add    %cl,%ch
ffff800000121793:	0c 07                	or     $0x7,%al
ffff800000121795:	08 00                	or     %al,(%rax)
ffff800000121797:	00 1c 00             	add    %bl,(%rax,%rax,1)
ffff80000012179a:	00 00                	add    %al,(%rax)
ffff80000012179c:	bc 00 00 00 6d       	mov    $0x6d000000,%esp
ffff8000001217a1:	9e                   	sahf   
ffff8000001217a2:	ff                   	(bad)  
ffff8000001217a3:	ff                   	(bad)  
ffff8000001217a4:	7c 05                	jl     ffff8000001217ab <pause+0x3ce>
ffff8000001217a6:	00 00                	add    %al,(%rax)
ffff8000001217a8:	00 41 0e             	add    %al,0xe(%rcx)
ffff8000001217ab:	10 86 02 43 0d 06    	adc    %al,0x60d4302(%rsi)
ffff8000001217b1:	03 77 05             	add    0x5(%rdi),%esi
ffff8000001217b4:	0c 07                	or     $0x7,%al
ffff8000001217b6:	08 00                	or     %al,(%rax)
ffff8000001217b8:	1c 00                	sbb    $0x0,%al
ffff8000001217ba:	00 00                	add    %al,(%rax)
ffff8000001217bc:	dc 00                	faddl  (%rax)
ffff8000001217be:	00 00                	add    %al,(%rax)
ffff8000001217c0:	c9                   	leaveq 
ffff8000001217c1:	a3 ff ff de 00 00 00 	movabs %eax,0x4100000000deffff
ffff8000001217c8:	00 41 
ffff8000001217ca:	0e                   	(bad)  
ffff8000001217cb:	10 86 02 43 0d 06    	adc    %al,0x60d4302(%rsi)
ffff8000001217d1:	02 d9                	add    %cl,%bl
ffff8000001217d3:	0c 07                	or     $0x7,%al
ffff8000001217d5:	08 00                	or     %al,(%rax)
ffff8000001217d7:	00 1c 00             	add    %bl,(%rax,%rax,1)
ffff8000001217da:	00 00                	add    %al,(%rax)
ffff8000001217dc:	fc                   	cld    
ffff8000001217dd:	00 00                	add    %al,(%rax)
ffff8000001217df:	00 87 a4 ff ff 0a    	add    %al,0xaffffa4(%rdi)
ffff8000001217e5:	01 00                	add    %eax,(%rax)
ffff8000001217e7:	00 00                	add    %al,(%rax)
ffff8000001217e9:	41 0e                	rex.B (bad) 
ffff8000001217eb:	10 86 02 43 0d 06    	adc    %al,0x60d4302(%rsi)
ffff8000001217f1:	03 05 01 0c 07 08    	add    0x8070c01(%rip),%eax        # ffff8000081923f8 <img_end+0x806ebbc>
ffff8000001217f7:	00 1c 00             	add    %bl,(%rax,%rax,1)
ffff8000001217fa:	00 00                	add    %al,(%rax)
ffff8000001217fc:	1c 01                	sbb    $0x1,%al
ffff8000001217fe:	00 00                	add    %al,(%rax)
ffff800000121800:	71 a5                	jno    ffff8000001217a7 <pause+0x3ca>
ffff800000121802:	ff                   	(bad)  
ffff800000121803:	ff a1 01 00 00 00    	jmpq   *0x1(%rcx)
ffff800000121809:	41 0e                	rex.B (bad) 
ffff80000012180b:	10 86 02 43 0d 06    	adc    %al,0x60d4302(%rsi)
ffff800000121811:	03 9c 01 0c 07 08 00 	add    0x8070c(%rcx,%rax,1),%ebx
ffff800000121818:	1c 00                	sbb    $0x0,%al
ffff80000012181a:	00 00                	add    %al,(%rax)
ffff80000012181c:	3c 01                	cmp    $0x1,%al
ffff80000012181e:	00 00                	add    %al,(%rax)
ffff800000121820:	f2 a6                	repnz cmpsb %es:(%rdi),%ds:(%rsi)
ffff800000121822:	ff                   	(bad)  
ffff800000121823:	ff 59 00             	lcall  *0x0(%rcx)
ffff800000121826:	00 00                	add    %al,(%rax)
ffff800000121828:	00 41 0e             	add    %al,0xe(%rcx)
ffff80000012182b:	10 86 02 43 0d 06    	adc    %al,0x60d4302(%rsi)
ffff800000121831:	02 54 0c 07          	add    0x7(%rsp,%rcx,1),%dl
ffff800000121835:	08 00                	or     %al,(%rax)
ffff800000121837:	00 1c 00             	add    %bl,(%rax,%rax,1)
ffff80000012183a:	00 00                	add    %al,(%rax)
ffff80000012183c:	5c                   	pop    %rsp
ffff80000012183d:	01 00                	add    %eax,(%rax)
ffff80000012183f:	00 2b                	add    %ch,(%rbx)
ffff800000121841:	a7                   	cmpsl  %es:(%rdi),%ds:(%rsi)
ffff800000121842:	ff                   	(bad)  
ffff800000121843:	ff 82 00 00 00 00    	incl   0x0(%rdx)
ffff800000121849:	41 0e                	rex.B (bad) 
ffff80000012184b:	10 86 02 43 0d 06    	adc    %al,0x60d4302(%rsi)
ffff800000121851:	00 00                	add    %al,(%rax)
ffff800000121853:	00 00                	add    %al,(%rax)
ffff800000121855:	00 00                	add    %al,(%rax)
ffff800000121857:	00 1c 00             	add    %bl,(%rax,%rax,1)
ffff80000012185a:	00 00                	add    %al,(%rax)
ffff80000012185c:	7c 01                	jl     ffff80000012185f <pause+0x482>
ffff80000012185e:	00 00                	add    %al,(%rax)
ffff800000121860:	8d a7 ff ff 21 00    	lea    0x21ffff(%rdi),%esp
ffff800000121866:	00 00                	add    %al,(%rax)
ffff800000121868:	00 41 0e             	add    %al,0xe(%rcx)
ffff80000012186b:	10 86 02 43 0d 06    	adc    %al,0x60d4302(%rsi)
ffff800000121871:	5c                   	pop    %rsp
ffff800000121872:	0c 07                	or     $0x7,%al
ffff800000121874:	08 00                	or     %al,(%rax)
ffff800000121876:	00 00                	add    %al,(%rax)
ffff800000121878:	1c 00                	sbb    $0x0,%al
ffff80000012187a:	00 00                	add    %al,(%rax)
ffff80000012187c:	9c                   	pushfq 
ffff80000012187d:	01 00                	add    %eax,(%rax)
ffff80000012187f:	00 8e a7 ff ff 6e    	add    %cl,0x6effffa7(%rsi)
ffff800000121885:	00 00                	add    %al,(%rax)
ffff800000121887:	00 00                	add    %al,(%rax)
ffff800000121889:	41 0e                	rex.B (bad) 
ffff80000012188b:	10 86 02 43 0d 06    	adc    %al,0x60d4302(%rsi)
ffff800000121891:	02 69 0c             	add    0xc(%rcx),%ch
ffff800000121894:	07                   	(bad)  
ffff800000121895:	08 00                	or     %al,(%rax)
ffff800000121897:	00 1c 00             	add    %bl,(%rax,%rax,1)
ffff80000012189a:	00 00                	add    %al,(%rax)
ffff80000012189c:	bc 01 00 00 dc       	mov    $0xdc000001,%esp
ffff8000001218a1:	a7                   	cmpsl  %es:(%rdi),%ds:(%rsi)
ffff8000001218a2:	ff                   	(bad)  
ffff8000001218a3:	ff 8b 00 00 00 00    	decl   0x0(%rbx)
ffff8000001218a9:	41 0e                	rex.B (bad) 
ffff8000001218ab:	10 86 02 43 0d 06    	adc    %al,0x60d4302(%rsi)
ffff8000001218b1:	02 86 0c 07 08 00    	add    0x8070c(%rsi),%al
ffff8000001218b7:	00 1c 00             	add    %bl,(%rax,%rax,1)
ffff8000001218ba:	00 00                	add    %al,(%rax)
ffff8000001218bc:	dc 01                	faddl  (%rcx)
ffff8000001218be:	00 00                	add    %al,(%rax)
ffff8000001218c0:	47 a8 ff             	rex.RXB test $0xff,%al
ffff8000001218c3:	ff 72 00             	pushq  0x0(%rdx)
ffff8000001218c6:	00 00                	add    %al,(%rax)
ffff8000001218c8:	00 41 0e             	add    %al,0xe(%rcx)
ffff8000001218cb:	10 86 02 43 0d 06    	adc    %al,0x60d4302(%rsi)
ffff8000001218d1:	02 6d 0c             	add    0xc(%rbp),%ch
ffff8000001218d4:	07                   	(bad)  
ffff8000001218d5:	08 00                	or     %al,(%rax)
ffff8000001218d7:	00 1c 00             	add    %bl,(%rax,%rax,1)
ffff8000001218da:	00 00                	add    %al,(%rax)
ffff8000001218dc:	fc                   	cld    
ffff8000001218dd:	01 00                	add    %eax,(%rax)
ffff8000001218df:	00 99 a8 ff ff 52    	add    %bl,0x52ffffa8(%rcx)
ffff8000001218e5:	00 00                	add    %al,(%rax)
ffff8000001218e7:	00 00                	add    %al,(%rax)
ffff8000001218e9:	41 0e                	rex.B (bad) 
ffff8000001218eb:	10 86 02 43 0d 06    	adc    %al,0x60d4302(%rsi)
ffff8000001218f1:	02 4d 0c             	add    0xc(%rbp),%cl
ffff8000001218f4:	07                   	(bad)  
ffff8000001218f5:	08 00                	or     %al,(%rax)
ffff8000001218f7:	00 1c 00             	add    %bl,(%rax,%rax,1)
ffff8000001218fa:	00 00                	add    %al,(%rax)
ffff8000001218fc:	1c 02                	sbb    $0x2,%al
ffff8000001218fe:	00 00                	add    %al,(%rax)
ffff800000121900:	cb                   	lret   
ffff800000121901:	a8 ff                	test   $0xff,%al
ffff800000121903:	ff ae 00 00 00 00    	ljmp   *0x0(%rsi)
ffff800000121909:	41 0e                	rex.B (bad) 
ffff80000012190b:	10 86 02 43 0d 06    	adc    %al,0x60d4302(%rsi)
ffff800000121911:	02 a9 0c 07 08 00    	add    0x8070c(%rcx),%ch
ffff800000121917:	00 1c 00             	add    %bl,(%rax,%rax,1)
ffff80000012191a:	00 00                	add    %al,(%rax)
ffff80000012191c:	3c 02                	cmp    $0x2,%al
ffff80000012191e:	00 00                	add    %al,(%rax)
ffff800000121920:	59                   	pop    %rcx
ffff800000121921:	a9 ff ff 7b 00       	test   $0x7bffff,%eax
ffff800000121926:	00 00                	add    %al,(%rax)
ffff800000121928:	00 41 0e             	add    %al,0xe(%rcx)
ffff80000012192b:	10 86 02 43 0d 06    	adc    %al,0x60d4302(%rsi)
ffff800000121931:	02 76 0c             	add    0xc(%rsi),%dh
ffff800000121934:	07                   	(bad)  
ffff800000121935:	08 00                	or     %al,(%rax)
ffff800000121937:	00 1c 00             	add    %bl,(%rax,%rax,1)
ffff80000012193a:	00 00                	add    %al,(%rax)
ffff80000012193c:	5c                   	pop    %rsp
ffff80000012193d:	02 00                	add    (%rax),%al
ffff80000012193f:	00 b4 a9 ff ff 21 00 	add    %dh,0x21ffff(%rcx,%rbp,4)
ffff800000121946:	00 00                	add    %al,(%rax)
ffff800000121948:	00 41 0e             	add    %al,0xe(%rcx)
ffff80000012194b:	10 86 02 43 0d 06    	adc    %al,0x60d4302(%rsi)
ffff800000121951:	5c                   	pop    %rsp
ffff800000121952:	0c 07                	or     $0x7,%al
ffff800000121954:	08 00                	or     %al,(%rax)
ffff800000121956:	00 00                	add    %al,(%rax)
ffff800000121958:	1c 00                	sbb    $0x0,%al
ffff80000012195a:	00 00                	add    %al,(%rax)
ffff80000012195c:	7c 02                	jl     ffff800000121960 <pause+0x583>
ffff80000012195e:	00 00                	add    %al,(%rax)
ffff800000121960:	b5 a9                	mov    $0xa9,%ch
ffff800000121962:	ff                   	(bad)  
ffff800000121963:	ff 27                	jmpq   *(%rdi)
ffff800000121965:	00 00                	add    %al,(%rax)
ffff800000121967:	00 00                	add    %al,(%rax)
ffff800000121969:	41 0e                	rex.B (bad) 
ffff80000012196b:	10 86 02 43 0d 06    	adc    %al,0x60d4302(%rsi)
ffff800000121971:	62                   	(bad)  {%k5}
ffff800000121972:	0c 07                	or     $0x7,%al
ffff800000121974:	08 00                	or     %al,(%rax)
ffff800000121976:	00 00                	add    %al,(%rax)
ffff800000121978:	1c 00                	sbb    $0x0,%al
ffff80000012197a:	00 00                	add    %al,(%rax)
ffff80000012197c:	9c                   	pushfq 
ffff80000012197d:	02 00                	add    (%rax),%al
ffff80000012197f:	00 bc a9 ff ff 1f 00 	add    %bh,0x1fffff(%rcx,%rbp,4)
ffff800000121986:	00 00                	add    %al,(%rax)
ffff800000121988:	00 41 0e             	add    %al,0xe(%rcx)
ffff80000012198b:	10 86 02 43 0d 06    	adc    %al,0x60d4302(%rsi)
ffff800000121991:	5a                   	pop    %rdx
ffff800000121992:	0c 07                	or     $0x7,%al
ffff800000121994:	08 00                	or     %al,(%rax)
ffff800000121996:	00 00                	add    %al,(%rax)
ffff800000121998:	1c 00                	sbb    $0x0,%al
ffff80000012199a:	00 00                	add    %al,(%rax)
ffff80000012199c:	bc 02 00 00 bb       	mov    $0xbb000002,%esp
ffff8000001219a1:	a9 ff ff d9 00       	test   $0xd9ffff,%eax
ffff8000001219a6:	00 00                	add    %al,(%rax)
ffff8000001219a8:	00 41 0e             	add    %al,0xe(%rcx)
ffff8000001219ab:	10 86 02 43 0d 06    	adc    %al,0x60d4302(%rsi)
ffff8000001219b1:	02 d4                	add    %ah,%dl
ffff8000001219b3:	0c 07                	or     $0x7,%al
ffff8000001219b5:	08 00                	or     %al,(%rax)
ffff8000001219b7:	00 1c 00             	add    %bl,(%rax,%rax,1)
ffff8000001219ba:	00 00                	add    %al,(%rax)
ffff8000001219bc:	dc 02                	faddl  (%rdx)
ffff8000001219be:	00 00                	add    %al,(%rax)
ffff8000001219c0:	74 aa                	je     ffff80000012196c <pause+0x58f>
ffff8000001219c2:	ff                   	(bad)  
ffff8000001219c3:	ff 61 01             	jmpq   *0x1(%rcx)
ffff8000001219c6:	00 00                	add    %al,(%rax)
ffff8000001219c8:	00 41 0e             	add    %al,0xe(%rcx)
ffff8000001219cb:	10 86 02 43 0d 06    	adc    %al,0x60d4302(%rsi)
ffff8000001219d1:	03 5c 01 0c          	add    0xc(%rcx,%rax,1),%ebx
ffff8000001219d5:	07                   	(bad)  
ffff8000001219d6:	08 00                	or     %al,(%rax)
ffff8000001219d8:	1c 00                	sbb    $0x0,%al
ffff8000001219da:	00 00                	add    %al,(%rax)
ffff8000001219dc:	fc                   	cld    
ffff8000001219dd:	02 00                	add    (%rax),%al
ffff8000001219df:	00 b5 ab ff ff aa    	add    %dh,-0x55000055(%rbp)
ffff8000001219e5:	00 00                	add    %al,(%rax)
ffff8000001219e7:	00 00                	add    %al,(%rax)
ffff8000001219e9:	41 0e                	rex.B (bad) 
ffff8000001219eb:	10 86 02 43 0d 06    	adc    %al,0x60d4302(%rsi)
ffff8000001219f1:	02 a5 0c 07 08 00    	add    0x8070c(%rbp),%ah
ffff8000001219f7:	00 1c 00             	add    %bl,(%rax,%rax,1)
ffff8000001219fa:	00 00                	add    %al,(%rax)
ffff8000001219fc:	1c 03                	sbb    $0x3,%al
ffff8000001219fe:	00 00                	add    %al,(%rax)
ffff800000121a00:	3f                   	(bad)  
ffff800000121a01:	ac                   	lods   %ds:(%rsi),%al
ffff800000121a02:	ff                   	(bad)  
ffff800000121a03:	ff 1f                	lcall  *(%rdi)
ffff800000121a05:	00 00                	add    %al,(%rax)
ffff800000121a07:	00 00                	add    %al,(%rax)
ffff800000121a09:	41 0e                	rex.B (bad) 
ffff800000121a0b:	10 86 02 43 0d 06    	adc    %al,0x60d4302(%rsi)
ffff800000121a11:	5a                   	pop    %rdx
ffff800000121a12:	0c 07                	or     $0x7,%al
ffff800000121a14:	08 00                	or     %al,(%rax)
ffff800000121a16:	00 00                	add    %al,(%rax)
ffff800000121a18:	1c 00                	sbb    $0x0,%al
ffff800000121a1a:	00 00                	add    %al,(%rax)
ffff800000121a1c:	3c 03                	cmp    $0x3,%al
ffff800000121a1e:	00 00                	add    %al,(%rax)
ffff800000121a20:	3e ac                	lods   %ds:(%rsi),%al
ffff800000121a22:	ff                   	(bad)  
ffff800000121a23:	ff 88 00 00 00 00    	decl   0x0(%rax)
ffff800000121a29:	41 0e                	rex.B (bad) 
ffff800000121a2b:	10 86 02 43 0d 06    	adc    %al,0x60d4302(%rsi)
ffff800000121a31:	02 83 0c 07 08 00    	add    0x8070c(%rbx),%al
ffff800000121a37:	00 1c 00             	add    %bl,(%rax,%rax,1)
ffff800000121a3a:	00 00                	add    %al,(%rax)
ffff800000121a3c:	5c                   	pop    %rsp
ffff800000121a3d:	03 00                	add    (%rax),%eax
ffff800000121a3f:	00 a6 ac ff ff 32    	add    %ah,0x32ffffac(%rsi)
ffff800000121a45:	00 00                	add    %al,(%rax)
ffff800000121a47:	00 00                	add    %al,(%rax)
ffff800000121a49:	41 0e                	rex.B (bad) 
ffff800000121a4b:	10 86 02 43 0d 06    	adc    %al,0x60d4302(%rsi)
ffff800000121a51:	6d                   	insl   (%dx),%es:(%rdi)
ffff800000121a52:	0c 07                	or     $0x7,%al
ffff800000121a54:	08 00                	or     %al,(%rax)
ffff800000121a56:	00 00                	add    %al,(%rax)
ffff800000121a58:	1c 00                	sbb    $0x0,%al
ffff800000121a5a:	00 00                	add    %al,(%rax)
ffff800000121a5c:	7c 03                	jl     ffff800000121a61 <pause+0x684>
ffff800000121a5e:	00 00                	add    %al,(%rax)
ffff800000121a60:	b8 ac ff ff 4f       	mov    $0x4fffffac,%eax
ffff800000121a65:	00 00                	add    %al,(%rax)
ffff800000121a67:	00 00                	add    %al,(%rax)
ffff800000121a69:	41 0e                	rex.B (bad) 
ffff800000121a6b:	10 86 02 43 0d 06    	adc    %al,0x60d4302(%rsi)
ffff800000121a71:	02 4a 0c             	add    0xc(%rdx),%cl
ffff800000121a74:	07                   	(bad)  
ffff800000121a75:	08 00                	or     %al,(%rax)
ffff800000121a77:	00 1c 00             	add    %bl,(%rax,%rax,1)
ffff800000121a7a:	00 00                	add    %al,(%rax)
ffff800000121a7c:	9c                   	pushfq 
ffff800000121a7d:	03 00                	add    (%rax),%eax
ffff800000121a7f:	00 e7                	add    %ah,%bh
ffff800000121a81:	ac                   	lods   %ds:(%rsi),%al
ffff800000121a82:	ff                   	(bad)  
ffff800000121a83:	ff 06                	incl   (%rsi)
ffff800000121a85:	00 00                	add    %al,(%rax)
ffff800000121a87:	00 00                	add    %al,(%rax)
ffff800000121a89:	41 0e                	rex.B (bad) 
ffff800000121a8b:	10 86 02 43 0d 06    	adc    %al,0x60d4302(%rsi)
ffff800000121a91:	00 00                	add    %al,(%rax)
ffff800000121a93:	00 00                	add    %al,(%rax)
ffff800000121a95:	00 00                	add    %al,(%rax)
ffff800000121a97:	00 1c 00             	add    %bl,(%rax,%rax,1)
ffff800000121a9a:	00 00                	add    %al,(%rax)
ffff800000121a9c:	bc 03 00 00 cd       	mov    $0xcd000003,%esp
ffff800000121aa1:	ac                   	lods   %ds:(%rsi),%al
ffff800000121aa2:	ff                   	(bad)  
ffff800000121aa3:	ff 07                	incl   (%rdi)
ffff800000121aa5:	00 00                	add    %al,(%rax)
ffff800000121aa7:	00 00                	add    %al,(%rax)
ffff800000121aa9:	41 0e                	rex.B (bad) 
ffff800000121aab:	10 86 02 43 0d 06    	adc    %al,0x60d4302(%rsi)
ffff800000121ab1:	42 0c 07             	rex.X or $0x7,%al
ffff800000121ab4:	08 00                	or     %al,(%rax)
ffff800000121ab6:	00 00                	add    %al,(%rax)
ffff800000121ab8:	1c 00                	sbb    $0x0,%al
ffff800000121aba:	00 00                	add    %al,(%rax)
ffff800000121abc:	dc 03                	faddl  (%rbx)
ffff800000121abe:	00 00                	add    %al,(%rax)
ffff800000121ac0:	b4 ac                	mov    $0xac,%ah
ffff800000121ac2:	ff                   	(bad)  
ffff800000121ac3:	ff                   	(bad)  
ffff800000121ac4:	7a 00                	jp     ffff800000121ac6 <pause+0x6e9>
ffff800000121ac6:	00 00                	add    %al,(%rax)
ffff800000121ac8:	00 41 0e             	add    %al,0xe(%rcx)
ffff800000121acb:	10 86 02 43 0d 06    	adc    %al,0x60d4302(%rsi)
ffff800000121ad1:	02 75 0c             	add    0xc(%rbp),%dh
ffff800000121ad4:	07                   	(bad)  
ffff800000121ad5:	08 00                	or     %al,(%rax)
ffff800000121ad7:	00 1c 00             	add    %bl,(%rax,%rax,1)
ffff800000121ada:	00 00                	add    %al,(%rax)
ffff800000121adc:	fc                   	cld    
ffff800000121add:	03 00                	add    (%rax),%eax
ffff800000121adf:	00 0e                	add    %cl,(%rsi)
ffff800000121ae1:	ad                   	lods   %ds:(%rsi),%eax
ffff800000121ae2:	ff                   	(bad)  
ffff800000121ae3:	ff                   	(bad)  
ffff800000121ae4:	b9 00 00 00 00       	mov    $0x0,%ecx
ffff800000121ae9:	41 0e                	rex.B (bad) 
ffff800000121aeb:	10 86 02 43 0d 06    	adc    %al,0x60d4302(%rsi)
ffff800000121af1:	02 b4 0c 07 08 00 00 	add    0x807(%rsp,%rcx,1),%dh
ffff800000121af8:	1c 00                	sbb    $0x0,%al
ffff800000121afa:	00 00                	add    %al,(%rax)
ffff800000121afc:	1c 04                	sbb    $0x4,%al
ffff800000121afe:	00 00                	add    %al,(%rax)
ffff800000121b00:	a7                   	cmpsl  %es:(%rdi),%ds:(%rsi)
ffff800000121b01:	ad                   	lods   %ds:(%rsi),%eax
ffff800000121b02:	ff                   	(bad)  
ffff800000121b03:	ff a9 00 00 00 00    	ljmp   *0x0(%rcx)
ffff800000121b09:	41 0e                	rex.B (bad) 
ffff800000121b0b:	10 86 02 43 0d 06    	adc    %al,0x60d4302(%rsi)
ffff800000121b11:	02 a4 0c 07 08 00 00 	add    0x807(%rsp,%rcx,1),%ah
ffff800000121b18:	1c 00                	sbb    $0x0,%al
ffff800000121b1a:	00 00                	add    %al,(%rax)
ffff800000121b1c:	3c 04                	cmp    $0x4,%al
ffff800000121b1e:	00 00                	add    %al,(%rax)
ffff800000121b20:	30 ae ff ff 67 00    	xor    %ch,0x67ffff(%rsi)
ffff800000121b26:	00 00                	add    %al,(%rax)
ffff800000121b28:	00 41 0e             	add    %al,0xe(%rcx)
ffff800000121b2b:	10 86 02 43 0d 06    	adc    %al,0x60d4302(%rsi)
ffff800000121b31:	02 62 0c             	add    0xc(%rdx),%ah
ffff800000121b34:	07                   	(bad)  
ffff800000121b35:	08 00                	or     %al,(%rax)
ffff800000121b37:	00 1c 00             	add    %bl,(%rax,%rax,1)
ffff800000121b3a:	00 00                	add    %al,(%rax)
ffff800000121b3c:	5c                   	pop    %rsp
ffff800000121b3d:	04 00                	add    $0x0,%al
ffff800000121b3f:	00 77 ae             	add    %dh,-0x52(%rdi)
ffff800000121b42:	ff                   	(bad)  
ffff800000121b43:	ff 97 01 00 00 00    	callq  *0x1(%rdi)
ffff800000121b49:	41 0e                	rex.B (bad) 
ffff800000121b4b:	10 86 02 43 0d 06    	adc    %al,0x60d4302(%rsi)
ffff800000121b51:	03 92 01 0c 07 08    	add    0x8070c01(%rdx),%edx
ffff800000121b57:	00 1c 00             	add    %bl,(%rax,%rax,1)
ffff800000121b5a:	00 00                	add    %al,(%rax)
ffff800000121b5c:	7c 04                	jl     ffff800000121b62 <pause+0x785>
ffff800000121b5e:	00 00                	add    %al,(%rax)
ffff800000121b60:	ee                   	out    %al,(%dx)
ffff800000121b61:	af                   	scas   %es:(%rdi),%eax
ffff800000121b62:	ff                   	(bad)  
ffff800000121b63:	ff 54 00 00          	callq  *0x0(%rax,%rax,1)
ffff800000121b67:	00 00                	add    %al,(%rax)
ffff800000121b69:	41 0e                	rex.B (bad) 
ffff800000121b6b:	10 86 02 43 0d 06    	adc    %al,0x60d4302(%rsi)
ffff800000121b71:	02 4f 0c             	add    0xc(%rdi),%cl
ffff800000121b74:	07                   	(bad)  
ffff800000121b75:	08 00                	or     %al,(%rax)
ffff800000121b77:	00 1c 00             	add    %bl,(%rax,%rax,1)
ffff800000121b7a:	00 00                	add    %al,(%rax)
ffff800000121b7c:	9c                   	pushfq 
ffff800000121b7d:	04 00                	add    $0x0,%al
ffff800000121b7f:	00 22                	add    %ah,(%rdx)
ffff800000121b81:	b0 ff                	mov    $0xff,%al
ffff800000121b83:	ff 46 00             	incl   0x0(%rsi)
ffff800000121b86:	00 00                	add    %al,(%rax)
ffff800000121b88:	00 41 0e             	add    %al,0xe(%rcx)
ffff800000121b8b:	10 86 02 43 0d 06    	adc    %al,0x60d4302(%rsi)
ffff800000121b91:	02 41 0c             	add    0xc(%rcx),%al
ffff800000121b94:	07                   	(bad)  
ffff800000121b95:	08 00                	or     %al,(%rax)
ffff800000121b97:	00 1c 00             	add    %bl,(%rax,%rax,1)
ffff800000121b9a:	00 00                	add    %al,(%rax)
ffff800000121b9c:	bc 04 00 00 48       	mov    $0x48000004,%esp
ffff800000121ba1:	b0 ff                	mov    $0xff,%al
ffff800000121ba3:	ff 8b 00 00 00 00    	decl   0x0(%rbx)
ffff800000121ba9:	41 0e                	rex.B (bad) 
ffff800000121bab:	10 86 02 43 0d 06    	adc    %al,0x60d4302(%rsi)
ffff800000121bb1:	02 86 0c 07 08 00    	add    0x8070c(%rsi),%al
ffff800000121bb7:	00 1c 00             	add    %bl,(%rax,%rax,1)
ffff800000121bba:	00 00                	add    %al,(%rax)
ffff800000121bbc:	dc 04 00             	faddl  (%rax,%rax,1)
ffff800000121bbf:	00 b3 b0 ff ff 3c    	add    %dh,0x3cffffb0(%rbx)
ffff800000121bc5:	00 00                	add    %al,(%rax)
ffff800000121bc7:	00 00                	add    %al,(%rax)
ffff800000121bc9:	41 0e                	rex.B (bad) 
ffff800000121bcb:	10 86 02 43 0d 06    	adc    %al,0x60d4302(%rsi)
ffff800000121bd1:	77 0c                	ja     ffff800000121bdf <pause+0x802>
ffff800000121bd3:	07                   	(bad)  
ffff800000121bd4:	08 00                	or     %al,(%rax)
ffff800000121bd6:	00 00                	add    %al,(%rax)
ffff800000121bd8:	1c 00                	sbb    $0x0,%al
ffff800000121bda:	00 00                	add    %al,(%rax)
ffff800000121bdc:	fc                   	cld    
ffff800000121bdd:	04 00                	add    $0x0,%al
ffff800000121bdf:	00 cf                	add    %cl,%bh
ffff800000121be1:	b0 ff                	mov    $0xff,%al
ffff800000121be3:	ff 2f                	ljmp   *(%rdi)
ffff800000121be5:	00 00                	add    %al,(%rax)
ffff800000121be7:	00 00                	add    %al,(%rax)
ffff800000121be9:	41 0e                	rex.B (bad) 
ffff800000121beb:	10 86 02 43 0d 06    	adc    %al,0x60d4302(%rsi)
ffff800000121bf1:	6a 0c                	pushq  $0xc
ffff800000121bf3:	07                   	(bad)  
ffff800000121bf4:	08 00                	or     %al,(%rax)
ffff800000121bf6:	00 00                	add    %al,(%rax)
ffff800000121bf8:	1c 00                	sbb    $0x0,%al
ffff800000121bfa:	00 00                	add    %al,(%rax)
ffff800000121bfc:	1c 05                	sbb    $0x5,%al
ffff800000121bfe:	00 00                	add    %al,(%rax)
ffff800000121c00:	de b0 ff ff 2f 00    	fidiv  0x2fffff(%rax)
ffff800000121c06:	00 00                	add    %al,(%rax)
ffff800000121c08:	00 41 0e             	add    %al,0xe(%rcx)
ffff800000121c0b:	10 86 02 43 0d 06    	adc    %al,0x60d4302(%rsi)
ffff800000121c11:	6a 0c                	pushq  $0xc
ffff800000121c13:	07                   	(bad)  
ffff800000121c14:	08 00                	or     %al,(%rax)
ffff800000121c16:	00 00                	add    %al,(%rax)
ffff800000121c18:	1c 00                	sbb    $0x0,%al
ffff800000121c1a:	00 00                	add    %al,(%rax)
ffff800000121c1c:	3c 05                	cmp    $0x5,%al
ffff800000121c1e:	00 00                	add    %al,(%rax)
ffff800000121c20:	ed                   	in     (%dx),%eax
ffff800000121c21:	b0 ff                	mov    $0xff,%al
ffff800000121c23:	ff 85 00 00 00 00    	incl   0x0(%rbp)
ffff800000121c29:	41 0e                	rex.B (bad) 
ffff800000121c2b:	10 86 02 43 0d 06    	adc    %al,0x60d4302(%rsi)
ffff800000121c31:	02 80 0c 07 08 00    	add    0x8070c(%rax),%al
ffff800000121c37:	00 1c 00             	add    %bl,(%rax,%rax,1)
ffff800000121c3a:	00 00                	add    %al,(%rax)
ffff800000121c3c:	5c                   	pop    %rsp
ffff800000121c3d:	05 00 00 52 b1       	add    $0xb1520000,%eax
ffff800000121c42:	ff                   	(bad)  
ffff800000121c43:	ff ac 00 00 00 00 41 	ljmp   *0x41000000(%rax,%rax,1)
ffff800000121c4a:	0e                   	(bad)  
ffff800000121c4b:	10 86 02 43 0d 06    	adc    %al,0x60d4302(%rsi)
ffff800000121c51:	02 a7 0c 07 08 00    	add    0x8070c(%rdi),%ah
ffff800000121c57:	00 1c 00             	add    %bl,(%rax,%rax,1)
ffff800000121c5a:	00 00                	add    %al,(%rax)
ffff800000121c5c:	7c 05                	jl     ffff800000121c63 <pause+0x886>
ffff800000121c5e:	00 00                	add    %al,(%rax)
ffff800000121c60:	de b1 ff ff 2d 00    	fidiv  0x2dffff(%rcx)
ffff800000121c66:	00 00                	add    %al,(%rax)
ffff800000121c68:	00 41 0e             	add    %al,0xe(%rcx)
ffff800000121c6b:	10 86 02 43 0d 06    	adc    %al,0x60d4302(%rsi)
ffff800000121c71:	68 0c 07 08 00       	pushq  $0x8070c
ffff800000121c76:	00 00                	add    %al,(%rax)
ffff800000121c78:	1c 00                	sbb    $0x0,%al
ffff800000121c7a:	00 00                	add    %al,(%rax)
ffff800000121c7c:	9c                   	pushfq 
ffff800000121c7d:	05 00 00 eb b1       	add    $0xb1eb0000,%eax
ffff800000121c82:	ff                   	(bad)  
ffff800000121c83:	ff 58 01             	lcall  *0x1(%rax)
ffff800000121c86:	00 00                	add    %al,(%rax)
ffff800000121c88:	00 41 0e             	add    %al,0xe(%rcx)
ffff800000121c8b:	10 86 02 43 0d 06    	adc    %al,0x60d4302(%rsi)
ffff800000121c91:	03 53 01             	add    0x1(%rbx),%edx
ffff800000121c94:	0c 07                	or     $0x7,%al
ffff800000121c96:	08 00                	or     %al,(%rax)
ffff800000121c98:	1c 00                	sbb    $0x0,%al
ffff800000121c9a:	00 00                	add    %al,(%rax)
ffff800000121c9c:	bc 05 00 00 23       	mov    $0x23000005,%esp
ffff800000121ca1:	b3 ff                	mov    $0xff,%bl
ffff800000121ca3:	ff 49 00             	decl   0x0(%rcx)
ffff800000121ca6:	00 00                	add    %al,(%rax)
ffff800000121ca8:	00 41 0e             	add    %al,0xe(%rcx)
ffff800000121cab:	10 86 02 43 0d 06    	adc    %al,0x60d4302(%rsi)
ffff800000121cb1:	02 44 0c 07          	add    0x7(%rsp,%rcx,1),%al
ffff800000121cb5:	08 00                	or     %al,(%rax)
ffff800000121cb7:	00 1c 00             	add    %bl,(%rax,%rax,1)
ffff800000121cba:	00 00                	add    %al,(%rax)
ffff800000121cbc:	dc 05 00 00 4c b3    	faddl  -0x4cb40000(%rip)        # ffff7fffb35e1cc2 <PGT_START+0xffff7fffb34e0cc2>
ffff800000121cc2:	ff                   	(bad)  
ffff800000121cc3:	ff                   	(bad)  
ffff800000121cc4:	3d 00 00 00 00       	cmp    $0x0,%eax
ffff800000121cc9:	41 0e                	rex.B (bad) 
ffff800000121ccb:	10 86 02 43 0d 06    	adc    %al,0x60d4302(%rsi)
ffff800000121cd1:	78 0c                	js     ffff800000121cdf <pause+0x902>
ffff800000121cd3:	07                   	(bad)  
ffff800000121cd4:	08 00                	or     %al,(%rax)
ffff800000121cd6:	00 00                	add    %al,(%rax)
ffff800000121cd8:	1c 00                	sbb    $0x0,%al
ffff800000121cda:	00 00                	add    %al,(%rax)
ffff800000121cdc:	fc                   	cld    
ffff800000121cdd:	05 00 00 69 b3       	add    $0xb3690000,%eax
ffff800000121ce2:	ff                   	(bad)  
ffff800000121ce3:	ff 23                	jmpq   *(%rbx)
ffff800000121ce5:	00 00                	add    %al,(%rax)
ffff800000121ce7:	00 00                	add    %al,(%rax)
ffff800000121ce9:	41 0e                	rex.B (bad) 
ffff800000121ceb:	10 86 02 43 0d 06    	adc    %al,0x60d4302(%rsi)
ffff800000121cf1:	5e                   	pop    %rsi
ffff800000121cf2:	0c 07                	or     $0x7,%al
ffff800000121cf4:	08 00                	or     %al,(%rax)
ffff800000121cf6:	00 00                	add    %al,(%rax)
ffff800000121cf8:	1c 00                	sbb    $0x0,%al
ffff800000121cfa:	00 00                	add    %al,(%rax)
ffff800000121cfc:	1c 06                	sbb    $0x6,%al
ffff800000121cfe:	00 00                	add    %al,(%rax)
ffff800000121d00:	6c                   	insb   (%dx),%es:(%rdi)
ffff800000121d01:	b3 ff                	mov    $0xff,%bl
ffff800000121d03:	ff                   	(bad)  
ffff800000121d04:	db 00                	fildl  (%rax)
ffff800000121d06:	00 00                	add    %al,(%rax)
ffff800000121d08:	00 41 0e             	add    %al,0xe(%rcx)
ffff800000121d0b:	10 86 02 43 0d 06    	adc    %al,0x60d4302(%rsi)
ffff800000121d11:	02 d6                	add    %dh,%dl
ffff800000121d13:	0c 07                	or     $0x7,%al
ffff800000121d15:	08 00                	or     %al,(%rax)
ffff800000121d17:	00 1c 00             	add    %bl,(%rax,%rax,1)
ffff800000121d1a:	00 00                	add    %al,(%rax)
ffff800000121d1c:	3c 06                	cmp    $0x6,%al
ffff800000121d1e:	00 00                	add    %al,(%rax)
ffff800000121d20:	27                   	(bad)  
ffff800000121d21:	b4 ff                	mov    $0xff,%ah
ffff800000121d23:	ff 36                	pushq  (%rsi)
ffff800000121d25:	01 00                	add    %eax,(%rax)
ffff800000121d27:	00 00                	add    %al,(%rax)
ffff800000121d29:	41 0e                	rex.B (bad) 
ffff800000121d2b:	10 86 02 43 0d 06    	adc    %al,0x60d4302(%rsi)
ffff800000121d31:	03 31                	add    (%rcx),%esi
ffff800000121d33:	01 0c 07             	add    %ecx,(%rdi,%rax,1)
ffff800000121d36:	08 00                	or     %al,(%rax)
ffff800000121d38:	1c 00                	sbb    $0x0,%al
ffff800000121d3a:	00 00                	add    %al,(%rax)
ffff800000121d3c:	5c                   	pop    %rsp
ffff800000121d3d:	06                   	(bad)  
ffff800000121d3e:	00 00                	add    %al,(%rax)
ffff800000121d40:	3d b5 ff ff 5b       	cmp    $0x5bffffb5,%eax
ffff800000121d45:	01 00                	add    %eax,(%rax)
ffff800000121d47:	00 00                	add    %al,(%rax)
ffff800000121d49:	41 0e                	rex.B (bad) 
ffff800000121d4b:	10 86 02 43 0d 06    	adc    %al,0x60d4302(%rsi)
ffff800000121d51:	03 56 01             	add    0x1(%rsi),%edx
ffff800000121d54:	0c 07                	or     $0x7,%al
ffff800000121d56:	08 00                	or     %al,(%rax)
ffff800000121d58:	1c 00                	sbb    $0x0,%al
ffff800000121d5a:	00 00                	add    %al,(%rax)
ffff800000121d5c:	7c 06                	jl     ffff800000121d64 <pause+0x987>
ffff800000121d5e:	00 00                	add    %al,(%rax)
ffff800000121d60:	78 b6                	js     ffff800000121d18 <pause+0x93b>
ffff800000121d62:	ff                   	(bad)  
ffff800000121d63:	ff 89 00 00 00 00    	decl   0x0(%rcx)
ffff800000121d69:	41 0e                	rex.B (bad) 
ffff800000121d6b:	10 86 02 43 0d 06    	adc    %al,0x60d4302(%rsi)
ffff800000121d71:	02 84 0c 07 08 00 00 	add    0x807(%rsp,%rcx,1),%al
ffff800000121d78:	1c 00                	sbb    $0x0,%al
ffff800000121d7a:	00 00                	add    %al,(%rax)
ffff800000121d7c:	9c                   	pushfq 
ffff800000121d7d:	06                   	(bad)  
ffff800000121d7e:	00 00                	add    %al,(%rax)
ffff800000121d80:	e1 b6                	loope  ffff800000121d38 <pause+0x95b>
ffff800000121d82:	ff                   	(bad)  
ffff800000121d83:	ff 93 00 00 00 00    	callq  *0x0(%rbx)
ffff800000121d89:	41 0e                	rex.B (bad) 
ffff800000121d8b:	10 86 02 43 0d 06    	adc    %al,0x60d4302(%rsi)
ffff800000121d91:	02 8e 0c 07 08 00    	add    0x8070c(%rsi),%cl
ffff800000121d97:	00 1c 00             	add    %bl,(%rax,%rax,1)
ffff800000121d9a:	00 00                	add    %al,(%rax)
ffff800000121d9c:	bc 06 00 00 54       	mov    $0x54000006,%esp
ffff800000121da1:	b7 ff                	mov    $0xff,%bh
ffff800000121da3:	ff 5e 00             	lcall  *0x0(%rsi)
ffff800000121da6:	00 00                	add    %al,(%rax)
ffff800000121da8:	00 41 0e             	add    %al,0xe(%rcx)
ffff800000121dab:	10 86 02 43 0d 06    	adc    %al,0x60d4302(%rsi)
ffff800000121db1:	02 59 0c             	add    0xc(%rcx),%bl
ffff800000121db4:	07                   	(bad)  
ffff800000121db5:	08 00                	or     %al,(%rax)
ffff800000121db7:	00 1c 00             	add    %bl,(%rax,%rax,1)
ffff800000121dba:	00 00                	add    %al,(%rax)
ffff800000121dbc:	dc 06                	faddl  (%rsi)
ffff800000121dbe:	00 00                	add    %al,(%rax)
ffff800000121dc0:	92                   	xchg   %eax,%edx
ffff800000121dc1:	b7 ff                	mov    $0xff,%bh
ffff800000121dc3:	ff 0b                	decl   (%rbx)
ffff800000121dc5:	01 00                	add    %eax,(%rax)
ffff800000121dc7:	00 00                	add    %al,(%rax)
ffff800000121dc9:	41 0e                	rex.B (bad) 
ffff800000121dcb:	10 86 02 43 0d 06    	adc    %al,0x60d4302(%rsi)
ffff800000121dd1:	03 06                	add    (%rsi),%eax
ffff800000121dd3:	01 0c 07             	add    %ecx,(%rdi,%rax,1)
ffff800000121dd6:	08 00                	or     %al,(%rax)
ffff800000121dd8:	1c 00                	sbb    $0x0,%al
ffff800000121dda:	00 00                	add    %al,(%rax)
ffff800000121ddc:	fc                   	cld    
ffff800000121ddd:	06                   	(bad)  
ffff800000121dde:	00 00                	add    %al,(%rax)
ffff800000121de0:	7d b8                	jge    ffff800000121d9a <pause+0x9bd>
ffff800000121de2:	ff                   	(bad)  
ffff800000121de3:	ff 53 00             	callq  *0x0(%rbx)
ffff800000121de6:	00 00                	add    %al,(%rax)
ffff800000121de8:	00 41 0e             	add    %al,0xe(%rcx)
ffff800000121deb:	10 86 02 43 0d 06    	adc    %al,0x60d4302(%rsi)
ffff800000121df1:	02 4e 0c             	add    0xc(%rsi),%cl
ffff800000121df4:	07                   	(bad)  
ffff800000121df5:	08 00                	or     %al,(%rax)
ffff800000121df7:	00 1c 00             	add    %bl,(%rax,%rax,1)
ffff800000121dfa:	00 00                	add    %al,(%rax)
ffff800000121dfc:	1c 07                	sbb    $0x7,%al
ffff800000121dfe:	00 00                	add    %al,(%rax)
ffff800000121e00:	b0 b8                	mov    $0xb8,%al
ffff800000121e02:	ff                   	(bad)  
ffff800000121e03:	ff                   	(bad)  
ffff800000121e04:	3a 00                	cmp    (%rax),%al
ffff800000121e06:	00 00                	add    %al,(%rax)
ffff800000121e08:	00 41 0e             	add    %al,0xe(%rcx)
ffff800000121e0b:	10 86 02 43 0d 06    	adc    %al,0x60d4302(%rsi)
ffff800000121e11:	75 0c                	jne    ffff800000121e1f <pause+0xa42>
ffff800000121e13:	07                   	(bad)  
ffff800000121e14:	08 00                	or     %al,(%rax)
ffff800000121e16:	00 00                	add    %al,(%rax)
ffff800000121e18:	1c 00                	sbb    $0x0,%al
ffff800000121e1a:	00 00                	add    %al,(%rax)
ffff800000121e1c:	3c 07                	cmp    $0x7,%al
ffff800000121e1e:	00 00                	add    %al,(%rax)
ffff800000121e20:	ca b8 ff             	lret   $0xffb8
ffff800000121e23:	ff 91 00 00 00 00    	callq  *0x0(%rcx)
ffff800000121e29:	41 0e                	rex.B (bad) 
ffff800000121e2b:	10 86 02 43 0d 06    	adc    %al,0x60d4302(%rsi)
ffff800000121e31:	02 8c 0c 07 08 00 00 	add    0x807(%rsp,%rcx,1),%cl
ffff800000121e38:	1c 00                	sbb    $0x0,%al
ffff800000121e3a:	00 00                	add    %al,(%rax)
ffff800000121e3c:	5c                   	pop    %rsp
ffff800000121e3d:	07                   	(bad)  
ffff800000121e3e:	00 00                	add    %al,(%rax)
ffff800000121e40:	3b b9 ff ff 2d 00    	cmp    0x2dffff(%rcx),%edi
ffff800000121e46:	00 00                	add    %al,(%rax)
ffff800000121e48:	00 41 0e             	add    %al,0xe(%rcx)
ffff800000121e4b:	10 86 02 43 0d 06    	adc    %al,0x60d4302(%rsi)
ffff800000121e51:	68 0c 07 08 00       	pushq  $0x8070c
ffff800000121e56:	00 00                	add    %al,(%rax)
ffff800000121e58:	1c 00                	sbb    $0x0,%al
ffff800000121e5a:	00 00                	add    %al,(%rax)
ffff800000121e5c:	7c 07                	jl     ffff800000121e65 <pause+0xa88>
ffff800000121e5e:	00 00                	add    %al,(%rax)
ffff800000121e60:	48 b9 ff ff 11 00 00 	movabs $0x410000000011ffff,%rcx
ffff800000121e67:	00 00 41 
ffff800000121e6a:	0e                   	(bad)  
ffff800000121e6b:	10 86 02 43 0d 06    	adc    %al,0x60d4302(%rsi)
ffff800000121e71:	4c 0c 07             	rex.WR or $0x7,%al
ffff800000121e74:	08 00                	or     %al,(%rax)
ffff800000121e76:	00 00                	add    %al,(%rax)
ffff800000121e78:	1c 00                	sbb    $0x0,%al
ffff800000121e7a:	00 00                	add    %al,(%rax)
ffff800000121e7c:	9c                   	pushfq 
ffff800000121e7d:	07                   	(bad)  
ffff800000121e7e:	00 00                	add    %al,(%rax)
ffff800000121e80:	39 b9 ff ff 75 00    	cmp    %edi,0x75ffff(%rcx)
ffff800000121e86:	00 00                	add    %al,(%rax)
ffff800000121e88:	00 41 0e             	add    %al,0xe(%rcx)
ffff800000121e8b:	10 86 02 43 0d 06    	adc    %al,0x60d4302(%rsi)
ffff800000121e91:	02 70 0c             	add    0xc(%rax),%dh
ffff800000121e94:	07                   	(bad)  
ffff800000121e95:	08 00                	or     %al,(%rax)
ffff800000121e97:	00 1c 00             	add    %bl,(%rax,%rax,1)
ffff800000121e9a:	00 00                	add    %al,(%rax)
ffff800000121e9c:	bc 07 00 00 8e       	mov    $0x8e000007,%esp
ffff800000121ea1:	b9 ff ff 68 00       	mov    $0x68ffff,%ecx
ffff800000121ea6:	00 00                	add    %al,(%rax)
ffff800000121ea8:	00 41 0e             	add    %al,0xe(%rcx)
ffff800000121eab:	10 86 02 43 0d 06    	adc    %al,0x60d4302(%rsi)
ffff800000121eb1:	02 63 0c             	add    0xc(%rbx),%ah
ffff800000121eb4:	07                   	(bad)  
ffff800000121eb5:	08 00                	or     %al,(%rax)
ffff800000121eb7:	00 1c 00             	add    %bl,(%rax,%rax,1)
ffff800000121eba:	00 00                	add    %al,(%rax)
ffff800000121ebc:	dc 07                	faddl  (%rdi)
ffff800000121ebe:	00 00                	add    %al,(%rax)
ffff800000121ec0:	d6                   	(bad)  
ffff800000121ec1:	b9 ff ff ff 00       	mov    $0xffffff,%ecx
ffff800000121ec6:	00 00                	add    %al,(%rax)
ffff800000121ec8:	00 41 0e             	add    %al,0xe(%rcx)
ffff800000121ecb:	10 86 02 43 0d 06    	adc    %al,0x60d4302(%rsi)
ffff800000121ed1:	02 fa                	add    %dl,%bh
ffff800000121ed3:	0c 07                	or     $0x7,%al
ffff800000121ed5:	08 00                	or     %al,(%rax)
ffff800000121ed7:	00 1c 00             	add    %bl,(%rax,%rax,1)
ffff800000121eda:	00 00                	add    %al,(%rax)
ffff800000121edc:	fc                   	cld    
ffff800000121edd:	07                   	(bad)  
ffff800000121ede:	00 00                	add    %al,(%rax)
ffff800000121ee0:	b5 ba                	mov    $0xba,%ch
ffff800000121ee2:	ff                   	(bad)  
ffff800000121ee3:	ff 41 00             	incl   0x0(%rcx)
ffff800000121ee6:	00 00                	add    %al,(%rax)
ffff800000121ee8:	00 41 0e             	add    %al,0xe(%rcx)
ffff800000121eeb:	10 86 02 43 0d 06    	adc    %al,0x60d4302(%rsi)
ffff800000121ef1:	7c 0c                	jl     ffff800000121eff <pause+0xb22>
ffff800000121ef3:	07                   	(bad)  
ffff800000121ef4:	08 00                	or     %al,(%rax)
ffff800000121ef6:	00 00                	add    %al,(%rax)
ffff800000121ef8:	1c 00                	sbb    $0x0,%al
ffff800000121efa:	00 00                	add    %al,(%rax)
ffff800000121efc:	1c 08                	sbb    $0x8,%al
ffff800000121efe:	00 00                	add    %al,(%rax)
ffff800000121f00:	d6                   	(bad)  
ffff800000121f01:	ba ff ff 42 00       	mov    $0x42ffff,%edx
ffff800000121f06:	00 00                	add    %al,(%rax)
ffff800000121f08:	00 41 0e             	add    %al,0xe(%rcx)
ffff800000121f0b:	10 86 02 43 0d 06    	adc    %al,0x60d4302(%rsi)
ffff800000121f11:	7d 0c                	jge    ffff800000121f1f <pause+0xb42>
ffff800000121f13:	07                   	(bad)  
ffff800000121f14:	08 00                	or     %al,(%rax)
ffff800000121f16:	00 00                	add    %al,(%rax)
ffff800000121f18:	1c 00                	sbb    $0x0,%al
ffff800000121f1a:	00 00                	add    %al,(%rax)
ffff800000121f1c:	3c 08                	cmp    $0x8,%al
ffff800000121f1e:	00 00                	add    %al,(%rax)
ffff800000121f20:	f8                   	clc    
ffff800000121f21:	ba ff ff 46 00       	mov    $0x46ffff,%edx
ffff800000121f26:	00 00                	add    %al,(%rax)
ffff800000121f28:	00 41 0e             	add    %al,0xe(%rcx)
ffff800000121f2b:	10 86 02 43 0d 06    	adc    %al,0x60d4302(%rsi)
ffff800000121f31:	02 41 0c             	add    0xc(%rcx),%al
ffff800000121f34:	07                   	(bad)  
ffff800000121f35:	08 00                	or     %al,(%rax)
ffff800000121f37:	00 1c 00             	add    %bl,(%rax,%rax,1)
ffff800000121f3a:	00 00                	add    %al,(%rax)
ffff800000121f3c:	5c                   	pop    %rsp
ffff800000121f3d:	08 00                	or     %al,(%rax)
ffff800000121f3f:	00 1e                	add    %bl,(%rsi)
ffff800000121f41:	bb ff ff 11 00       	mov    $0x11ffff,%ebx
ffff800000121f46:	00 00                	add    %al,(%rax)
ffff800000121f48:	00 41 0e             	add    %al,0xe(%rcx)
ffff800000121f4b:	10 86 02 43 0d 06    	adc    %al,0x60d4302(%rsi)
ffff800000121f51:	4c 0c 07             	rex.WR or $0x7,%al
ffff800000121f54:	08 00                	or     %al,(%rax)
ffff800000121f56:	00 00                	add    %al,(%rax)
ffff800000121f58:	1c 00                	sbb    $0x0,%al
ffff800000121f5a:	00 00                	add    %al,(%rax)
ffff800000121f5c:	7c 08                	jl     ffff800000121f66 <pause+0xb89>
ffff800000121f5e:	00 00                	add    %al,(%rax)
ffff800000121f60:	0f bb ff             	btc    %edi,%edi
ffff800000121f63:	ff 12                	callq  *(%rdx)
ffff800000121f65:	00 00                	add    %al,(%rax)
ffff800000121f67:	00 00                	add    %al,(%rax)
ffff800000121f69:	41 0e                	rex.B (bad) 
ffff800000121f6b:	10 86 02 43 0d 06    	adc    %al,0x60d4302(%rsi)
ffff800000121f71:	4d 0c 07             	rex.WRB or $0x7,%al
ffff800000121f74:	08 00                	or     %al,(%rax)
ffff800000121f76:	00 00                	add    %al,(%rax)
ffff800000121f78:	1c 00                	sbb    $0x0,%al
ffff800000121f7a:	00 00                	add    %al,(%rax)
ffff800000121f7c:	9c                   	pushfq 
ffff800000121f7d:	08 00                	or     %al,(%rax)
ffff800000121f7f:	00 01                	add    %al,(%rcx)
ffff800000121f81:	bb ff ff 11 00       	mov    $0x11ffff,%ebx
ffff800000121f86:	00 00                	add    %al,(%rax)
ffff800000121f88:	00 41 0e             	add    %al,0xe(%rcx)
ffff800000121f8b:	10 86 02 43 0d 06    	adc    %al,0x60d4302(%rsi)
ffff800000121f91:	4c 0c 07             	rex.WR or $0x7,%al
ffff800000121f94:	08 00                	or     %al,(%rax)
ffff800000121f96:	00 00                	add    %al,(%rax)
ffff800000121f98:	1c 00                	sbb    $0x0,%al
ffff800000121f9a:	00 00                	add    %al,(%rax)
ffff800000121f9c:	bc 08 00 00 f2       	mov    $0xf2000008,%esp
ffff800000121fa1:	ba ff ff 45 00       	mov    $0x45ffff,%edx
ffff800000121fa6:	00 00                	add    %al,(%rax)
ffff800000121fa8:	00 41 0e             	add    %al,0xe(%rcx)
ffff800000121fab:	10 86 02 43 0d 06    	adc    %al,0x60d4302(%rsi)
ffff800000121fb1:	02 40 0c             	add    0xc(%rax),%al
ffff800000121fb4:	07                   	(bad)  
ffff800000121fb5:	08 00                	or     %al,(%rax)
ffff800000121fb7:	00 1c 00             	add    %bl,(%rax,%rax,1)
ffff800000121fba:	00 00                	add    %al,(%rax)
ffff800000121fbc:	dc 08                	fmull  (%rax)
ffff800000121fbe:	00 00                	add    %al,(%rax)
ffff800000121fc0:	17                   	(bad)  
ffff800000121fc1:	bb ff ff 52 00       	mov    $0x52ffff,%ebx
ffff800000121fc6:	00 00                	add    %al,(%rax)
ffff800000121fc8:	00 41 0e             	add    %al,0xe(%rcx)
ffff800000121fcb:	10 86 02 43 0d 06    	adc    %al,0x60d4302(%rsi)
ffff800000121fd1:	02 4d 0c             	add    0xc(%rbp),%cl
ffff800000121fd4:	07                   	(bad)  
ffff800000121fd5:	08 00                	or     %al,(%rax)
ffff800000121fd7:	00 1c 00             	add    %bl,(%rax,%rax,1)
ffff800000121fda:	00 00                	add    %al,(%rax)
ffff800000121fdc:	fc                   	cld    
ffff800000121fdd:	08 00                	or     %al,(%rax)
ffff800000121fdf:	00 49 bb             	add    %cl,-0x45(%rcx)
ffff800000121fe2:	ff                   	(bad)  
ffff800000121fe3:	ff 34 00             	pushq  (%rax,%rax,1)
ffff800000121fe6:	00 00                	add    %al,(%rax)
ffff800000121fe8:	00 41 0e             	add    %al,0xe(%rcx)
ffff800000121feb:	10 86 02 43 0d 06    	adc    %al,0x60d4302(%rsi)
ffff800000121ff1:	6f                   	outsl  %ds:(%rsi),(%dx)
ffff800000121ff2:	0c 07                	or     $0x7,%al
ffff800000121ff4:	08 00                	or     %al,(%rax)
ffff800000121ff6:	00 00                	add    %al,(%rax)
ffff800000121ff8:	1c 00                	sbb    $0x0,%al
ffff800000121ffa:	00 00                	add    %al,(%rax)
ffff800000121ffc:	1c 09                	sbb    $0x9,%al
ffff800000121ffe:	00 00                	add    %al,(%rax)
ffff800000122000:	5d                   	pop    %rbp
ffff800000122001:	bb ff ff 34 00       	mov    $0x34ffff,%ebx
ffff800000122006:	00 00                	add    %al,(%rax)
ffff800000122008:	00 41 0e             	add    %al,0xe(%rcx)
ffff80000012200b:	10 86 02 43 0d 06    	adc    %al,0x60d4302(%rsi)
ffff800000122011:	6f                   	outsl  %ds:(%rsi),(%dx)
ffff800000122012:	0c 07                	or     $0x7,%al
ffff800000122014:	08 00                	or     %al,(%rax)
ffff800000122016:	00 00                	add    %al,(%rax)
ffff800000122018:	1c 00                	sbb    $0x0,%al
ffff80000012201a:	00 00                	add    %al,(%rax)
ffff80000012201c:	3c 09                	cmp    $0x9,%al
ffff80000012201e:	00 00                	add    %al,(%rax)
ffff800000122020:	71 bb                	jno    ffff800000121fdd <pause+0xc00>
ffff800000122022:	ff                   	(bad)  
ffff800000122023:	ff 98 00 00 00 00    	lcall  *0x0(%rax)
ffff800000122029:	41 0e                	rex.B (bad) 
ffff80000012202b:	10 86 02 43 0d 06    	adc    %al,0x60d4302(%rsi)
ffff800000122031:	02 93 0c 07 08 00    	add    0x8070c(%rbx),%dl
ffff800000122037:	00 1c 00             	add    %bl,(%rax,%rax,1)
ffff80000012203a:	00 00                	add    %al,(%rax)
ffff80000012203c:	5c                   	pop    %rsp
ffff80000012203d:	09 00                	or     %eax,(%rax)
ffff80000012203f:	00 e9                	add    %ch,%cl
ffff800000122041:	bb ff ff 98 00       	mov    $0x98ffff,%ebx
ffff800000122046:	00 00                	add    %al,(%rax)
ffff800000122048:	00 41 0e             	add    %al,0xe(%rcx)
ffff80000012204b:	10 86 02 43 0d 06    	adc    %al,0x60d4302(%rsi)
ffff800000122051:	02 93 0c 07 08 00    	add    0x8070c(%rbx),%dl
ffff800000122057:	00 1c 00             	add    %bl,(%rax,%rax,1)
ffff80000012205a:	00 00                	add    %al,(%rax)
ffff80000012205c:	7c 09                	jl     ffff800000122067 <pause+0xc8a>
ffff80000012205e:	00 00                	add    %al,(%rax)
ffff800000122060:	61                   	(bad)  
ffff800000122061:	bc ff ff bd 00       	mov    $0xbdffff,%esp
ffff800000122066:	00 00                	add    %al,(%rax)
ffff800000122068:	00 41 0e             	add    %al,0xe(%rcx)
ffff80000012206b:	10 86 02 43 0d 06    	adc    %al,0x60d4302(%rsi)
ffff800000122071:	00 00                	add    %al,(%rax)
ffff800000122073:	00 00                	add    %al,(%rax)
ffff800000122075:	00 00                	add    %al,(%rax)
ffff800000122077:	00 1c 00             	add    %bl,(%rax,%rax,1)
ffff80000012207a:	00 00                	add    %al,(%rax)
ffff80000012207c:	9c                   	pushfq 
ffff80000012207d:	09 00                	or     %eax,(%rax)
ffff80000012207f:	00 fe                	add    %bh,%dh
ffff800000122081:	bc ff ff b3 00       	mov    $0xb3ffff,%esp
ffff800000122086:	00 00                	add    %al,(%rax)
ffff800000122088:	00 41 0e             	add    %al,0xe(%rcx)
ffff80000012208b:	10 86 02 43 0d 06    	adc    %al,0x60d4302(%rsi)
ffff800000122091:	00 00                	add    %al,(%rax)
ffff800000122093:	00 00                	add    %al,(%rax)
ffff800000122095:	00 00                	add    %al,(%rax)
ffff800000122097:	00 1c 00             	add    %bl,(%rax,%rax,1)
ffff80000012209a:	00 00                	add    %al,(%rax)
ffff80000012209c:	bc 09 00 00 91       	mov    $0x91000009,%esp
ffff8000001220a1:	bd ff ff 67 00       	mov    $0x67ffff,%ebp
ffff8000001220a6:	00 00                	add    %al,(%rax)
ffff8000001220a8:	00 41 0e             	add    %al,0xe(%rcx)
ffff8000001220ab:	10 86 02 43 0d 06    	adc    %al,0x60d4302(%rsi)
ffff8000001220b1:	02 62 0c             	add    0xc(%rdx),%ah
ffff8000001220b4:	07                   	(bad)  
ffff8000001220b5:	08 00                	or     %al,(%rax)
ffff8000001220b7:	00 1c 00             	add    %bl,(%rax,%rax,1)
ffff8000001220ba:	00 00                	add    %al,(%rax)
ffff8000001220bc:	dc 09                	fmull  (%rcx)
ffff8000001220be:	00 00                	add    %al,(%rax)
ffff8000001220c0:	d8 bd ff ff c2 00    	fdivrs 0xc2ffff(%rbp)
ffff8000001220c6:	00 00                	add    %al,(%rax)
ffff8000001220c8:	00 41 0e             	add    %al,0xe(%rcx)
ffff8000001220cb:	10 86 02 43 0d 06    	adc    %al,0x60d4302(%rsi)
ffff8000001220d1:	02 bd 0c 07 08 00    	add    0x8070c(%rbp),%bh
ffff8000001220d7:	00 1c 00             	add    %bl,(%rax,%rax,1)
ffff8000001220da:	00 00                	add    %al,(%rax)
ffff8000001220dc:	fc                   	cld    
ffff8000001220dd:	09 00                	or     %eax,(%rax)
ffff8000001220df:	00 7a be             	add    %bh,-0x42(%rdx)
ffff8000001220e2:	ff                   	(bad)  
ffff8000001220e3:	ff c2                	inc    %edx
ffff8000001220e5:	00 00                	add    %al,(%rax)
ffff8000001220e7:	00 00                	add    %al,(%rax)
ffff8000001220e9:	41 0e                	rex.B (bad) 
ffff8000001220eb:	10 86 02 43 0d 06    	adc    %al,0x60d4302(%rsi)
ffff8000001220f1:	02 bd 0c 07 08 00    	add    0x8070c(%rbp),%bh
ffff8000001220f7:	00 1c 00             	add    %bl,(%rax,%rax,1)
ffff8000001220fa:	00 00                	add    %al,(%rax)
ffff8000001220fc:	1c 0a                	sbb    $0xa,%al
ffff8000001220fe:	00 00                	add    %al,(%rax)
ffff800000122100:	1c bf                	sbb    $0xbf,%al
ffff800000122102:	ff                   	(bad)  
ffff800000122103:	ff 0b                	decl   (%rbx)
ffff800000122105:	00 00                	add    %al,(%rax)
ffff800000122107:	00 00                	add    %al,(%rax)
ffff800000122109:	41 0e                	rex.B (bad) 
ffff80000012210b:	10 86 02 43 0d 06    	adc    %al,0x60d4302(%rsi)
ffff800000122111:	46 0c 07             	rex.RX or $0x7,%al
ffff800000122114:	08 00                	or     %al,(%rax)
ffff800000122116:	00 00                	add    %al,(%rax)
ffff800000122118:	1c 00                	sbb    $0x0,%al
ffff80000012211a:	00 00                	add    %al,(%rax)
ffff80000012211c:	3c 0a                	cmp    $0xa,%al
ffff80000012211e:	00 00                	add    %al,(%rax)
ffff800000122120:	07                   	(bad)  
ffff800000122121:	bf ff ff 33 00       	mov    $0x33ffff,%edi
ffff800000122126:	00 00                	add    %al,(%rax)
ffff800000122128:	00 41 0e             	add    %al,0xe(%rcx)
ffff80000012212b:	10 86 02 43 0d 06    	adc    %al,0x60d4302(%rsi)
ffff800000122131:	6e                   	outsb  %ds:(%rsi),(%dx)
ffff800000122132:	0c 07                	or     $0x7,%al
ffff800000122134:	08 00                	or     %al,(%rax)
ffff800000122136:	00 00                	add    %al,(%rax)
ffff800000122138:	1c 00                	sbb    $0x0,%al
ffff80000012213a:	00 00                	add    %al,(%rax)
ffff80000012213c:	5c                   	pop    %rsp
ffff80000012213d:	0a 00                	or     (%rax),%al
ffff80000012213f:	00 1a                	add    %bl,(%rdx)
ffff800000122141:	bf ff ff 4d 05       	mov    $0x54dffff,%edi
ffff800000122146:	00 00                	add    %al,(%rax)
ffff800000122148:	00 41 0e             	add    %al,0xe(%rcx)
ffff80000012214b:	10 86 02 43 0d 06    	adc    %al,0x60d4302(%rsi)
ffff800000122151:	03 48 05             	add    0x5(%rax),%ecx
ffff800000122154:	0c 07                	or     $0x7,%al
ffff800000122156:	08 00                	or     %al,(%rax)
ffff800000122158:	1c 00                	sbb    $0x0,%al
ffff80000012215a:	00 00                	add    %al,(%rax)
ffff80000012215c:	7c 0a                	jl     ffff800000122168 <pause+0xd8b>
ffff80000012215e:	00 00                	add    %al,(%rax)
ffff800000122160:	47 c4                	rex.RXB (bad) 
ffff800000122162:	ff                   	(bad)  
ffff800000122163:	ff                   	(bad)  
ffff800000122164:	d8 00                	fadds  (%rax)
ffff800000122166:	00 00                	add    %al,(%rax)
ffff800000122168:	00 41 0e             	add    %al,0xe(%rcx)
ffff80000012216b:	10 86 02 43 0d 06    	adc    %al,0x60d4302(%rsi)
ffff800000122171:	02 d3                	add    %bl,%dl
ffff800000122173:	0c 07                	or     $0x7,%al
ffff800000122175:	08 00                	or     %al,(%rax)
ffff800000122177:	00 1c 00             	add    %bl,(%rax,%rax,1)
ffff80000012217a:	00 00                	add    %al,(%rax)
ffff80000012217c:	9c                   	pushfq 
ffff80000012217d:	0a 00                	or     (%rax),%al
ffff80000012217f:	00 ff                	add    %bh,%bh
ffff800000122181:	c4                   	(bad)  
ffff800000122182:	ff                   	(bad)  
ffff800000122183:	ff 21                	jmpq   *(%rcx)
ffff800000122185:	00 00                	add    %al,(%rax)
ffff800000122187:	00 00                	add    %al,(%rax)
ffff800000122189:	41 0e                	rex.B (bad) 
ffff80000012218b:	10 86 02 43 0d 06    	adc    %al,0x60d4302(%rsi)
ffff800000122191:	5c                   	pop    %rsp
ffff800000122192:	0c 07                	or     $0x7,%al
ffff800000122194:	08 00                	or     %al,(%rax)
ffff800000122196:	00 00                	add    %al,(%rax)
ffff800000122198:	1c 00                	sbb    $0x0,%al
ffff80000012219a:	00 00                	add    %al,(%rax)
ffff80000012219c:	bc 0a 00 00 00       	mov    $0xa,%esp
ffff8000001221a1:	c5 ff ff             	(bad)  
ffff8000001221a4:	b3 01                	mov    $0x1,%bl
ffff8000001221a6:	00 00                	add    %al,(%rax)
ffff8000001221a8:	00 41 0e             	add    %al,0xe(%rcx)
ffff8000001221ab:	10 86 02 43 0d 06    	adc    %al,0x60d4302(%rsi)
ffff8000001221b1:	03 ae 01 0c 07 08    	add    0x8070c01(%rsi),%ebp
ffff8000001221b7:	00 1c 00             	add    %bl,(%rax,%rax,1)
ffff8000001221ba:	00 00                	add    %al,(%rax)
ffff8000001221bc:	dc 0a                	fmull  (%rdx)
ffff8000001221be:	00 00                	add    %al,(%rax)
ffff8000001221c0:	93                   	xchg   %eax,%ebx
ffff8000001221c1:	c6                   	(bad)  
ffff8000001221c2:	ff                   	(bad)  
ffff8000001221c3:	ff 59 01             	lcall  *0x1(%rcx)
ffff8000001221c6:	00 00                	add    %al,(%rax)
ffff8000001221c8:	00 41 0e             	add    %al,0xe(%rcx)
ffff8000001221cb:	10 86 02 43 0d 06    	adc    %al,0x60d4302(%rsi)
ffff8000001221d1:	03 54 01 0c          	add    0xc(%rcx,%rax,1),%edx
ffff8000001221d5:	07                   	(bad)  
ffff8000001221d6:	08 00                	or     %al,(%rax)
ffff8000001221d8:	1c 00                	sbb    $0x0,%al
ffff8000001221da:	00 00                	add    %al,(%rax)
ffff8000001221dc:	fc                   	cld    
ffff8000001221dd:	0a 00                	or     (%rax),%al
ffff8000001221df:	00 cc                	add    %cl,%ah
ffff8000001221e1:	c7                   	(bad)  
ffff8000001221e2:	ff                   	(bad)  
ffff8000001221e3:	ff 02                	incl   (%rdx)
ffff8000001221e5:	02 00                	add    (%rax),%al
ffff8000001221e7:	00 00                	add    %al,(%rax)
ffff8000001221e9:	41 0e                	rex.B (bad) 
ffff8000001221eb:	10 86 02 43 0d 06    	adc    %al,0x60d4302(%rsi)
ffff8000001221f1:	03 fd                	add    %ebp,%edi
ffff8000001221f3:	01 0c 07             	add    %ecx,(%rdi,%rax,1)
ffff8000001221f6:	08 00                	or     %al,(%rax)
ffff8000001221f8:	1c 00                	sbb    $0x0,%al
ffff8000001221fa:	00 00                	add    %al,(%rax)
ffff8000001221fc:	1c 0b                	sbb    $0xb,%al
ffff8000001221fe:	00 00                	add    %al,(%rax)
ffff800000122200:	ae                   	scas   %es:(%rdi),%al
ffff800000122201:	c9                   	leaveq 
ffff800000122202:	ff                   	(bad)  
ffff800000122203:	ff 53 00             	callq  *0x0(%rbx)
ffff800000122206:	00 00                	add    %al,(%rax)
ffff800000122208:	00 41 0e             	add    %al,0xe(%rcx)
ffff80000012220b:	10 86 02 43 0d 06    	adc    %al,0x60d4302(%rsi)
ffff800000122211:	02 4e 0c             	add    0xc(%rsi),%cl
ffff800000122214:	07                   	(bad)  
ffff800000122215:	08 00                	or     %al,(%rax)
ffff800000122217:	00 1c 00             	add    %bl,(%rax,%rax,1)
ffff80000012221a:	00 00                	add    %al,(%rax)
ffff80000012221c:	3c 0b                	cmp    $0xb,%al
ffff80000012221e:	00 00                	add    %al,(%rax)
ffff800000122220:	e1 c9                	loope  ffff8000001221eb <pause+0xe0e>
ffff800000122222:	ff                   	(bad)  
ffff800000122223:	ff a9 01 00 00 00    	ljmp   *0x1(%rcx)
ffff800000122229:	41 0e                	rex.B (bad) 
ffff80000012222b:	10 86 02 43 0d 06    	adc    %al,0x60d4302(%rsi)
ffff800000122231:	00 00                	add    %al,(%rax)
ffff800000122233:	00 00                	add    %al,(%rax)
ffff800000122235:	00 00                	add    %al,(%rax)
ffff800000122237:	00 1c 00             	add    %bl,(%rax,%rax,1)
ffff80000012223a:	00 00                	add    %al,(%rax)
ffff80000012223c:	5c                   	pop    %rsp
ffff80000012223d:	0b 00                	or     (%rax),%eax
ffff80000012223f:	00 6a cb             	add    %ch,-0x35(%rdx)
ffff800000122242:	ff                   	(bad)  
ffff800000122243:	ff                   	(bad)  
ffff800000122244:	3f                   	(bad)  
ffff800000122245:	01 00                	add    %eax,(%rax)
ffff800000122247:	00 00                	add    %al,(%rax)
ffff800000122249:	41 0e                	rex.B (bad) 
ffff80000012224b:	10 86 02 43 0d 06    	adc    %al,0x60d4302(%rsi)
ffff800000122251:	03 3a                	add    (%rdx),%edi
ffff800000122253:	01 0c 07             	add    %ecx,(%rdi,%rax,1)
ffff800000122256:	08 00                	or     %al,(%rax)
ffff800000122258:	1c 00                	sbb    $0x0,%al
ffff80000012225a:	00 00                	add    %al,(%rax)
ffff80000012225c:	7c 0b                	jl     ffff800000122269 <pause+0xe8c>
ffff80000012225e:	00 00                	add    %al,(%rax)
ffff800000122260:	89 cc                	mov    %ecx,%esp
ffff800000122262:	ff                   	(bad)  
ffff800000122263:	ff 45 00             	incl   0x0(%rbp)
ffff800000122266:	00 00                	add    %al,(%rax)
ffff800000122268:	00 41 0e             	add    %al,0xe(%rcx)
ffff80000012226b:	10 86 02 43 0d 06    	adc    %al,0x60d4302(%rsi)
ffff800000122271:	02 40 0c             	add    0xc(%rax),%al
ffff800000122274:	07                   	(bad)  
ffff800000122275:	08 00                	or     %al,(%rax)
ffff800000122277:	00 1c 00             	add    %bl,(%rax,%rax,1)
ffff80000012227a:	00 00                	add    %al,(%rax)
ffff80000012227c:	9c                   	pushfq 
ffff80000012227d:	0b 00                	or     (%rax),%eax
ffff80000012227f:	00 ae cc ff ff c9    	add    %ch,-0x36000034(%rsi)
ffff800000122285:	00 00                	add    %al,(%rax)
ffff800000122287:	00 00                	add    %al,(%rax)
ffff800000122289:	41 0e                	rex.B (bad) 
ffff80000012228b:	10 86 02 43 0d 06    	adc    %al,0x60d4302(%rsi)
ffff800000122291:	02 c4                	add    %ah,%al
ffff800000122293:	0c 07                	or     $0x7,%al
ffff800000122295:	08 00                	or     %al,(%rax)
ffff800000122297:	00 1c 00             	add    %bl,(%rax,%rax,1)
ffff80000012229a:	00 00                	add    %al,(%rax)
ffff80000012229c:	bc 0b 00 00 57       	mov    $0x5700000b,%esp
ffff8000001222a1:	cd ff                	int    $0xff
ffff8000001222a3:	ff                   	(bad)  
ffff8000001222a4:	ec                   	in     (%dx),%al
ffff8000001222a5:	00 00                	add    %al,(%rax)
ffff8000001222a7:	00 00                	add    %al,(%rax)
ffff8000001222a9:	41 0e                	rex.B (bad) 
ffff8000001222ab:	10 86 02 43 0d 06    	adc    %al,0x60d4302(%rsi)
ffff8000001222b1:	02 e7                	add    %bh,%ah
ffff8000001222b3:	0c 07                	or     $0x7,%al
ffff8000001222b5:	08 00                	or     %al,(%rax)
ffff8000001222b7:	00 1c 00             	add    %bl,(%rax,%rax,1)
ffff8000001222ba:	00 00                	add    %al,(%rax)
ffff8000001222bc:	dc 0b                	fmull  (%rbx)
ffff8000001222be:	00 00                	add    %al,(%rax)
ffff8000001222c0:	23 ce                	and    %esi,%ecx
ffff8000001222c2:	ff                   	(bad)  
ffff8000001222c3:	ff c7                	inc    %edi
ffff8000001222c5:	01 00                	add    %eax,(%rax)
ffff8000001222c7:	00 00                	add    %al,(%rax)
ffff8000001222c9:	41 0e                	rex.B (bad) 
ffff8000001222cb:	10 86 02 43 0d 06    	adc    %al,0x60d4302(%rsi)
ffff8000001222d1:	03 c2                	add    %edx,%eax
ffff8000001222d3:	01 0c 07             	add    %ecx,(%rdi,%rax,1)
ffff8000001222d6:	08 00                	or     %al,(%rax)
ffff8000001222d8:	1c 00                	sbb    $0x0,%al
ffff8000001222da:	00 00                	add    %al,(%rax)
ffff8000001222dc:	fc                   	cld    
ffff8000001222dd:	0b 00                	or     (%rax),%eax
ffff8000001222df:	00 ca                	add    %cl,%dl
ffff8000001222e1:	cf                   	iret   
ffff8000001222e2:	ff                   	(bad)  
ffff8000001222e3:	ff 40 01             	incl   0x1(%rax)
ffff8000001222e6:	00 00                	add    %al,(%rax)
ffff8000001222e8:	00 41 0e             	add    %al,0xe(%rcx)
ffff8000001222eb:	10 86 02 43 0d 06    	adc    %al,0x60d4302(%rsi)
ffff8000001222f1:	03 3b                	add    (%rbx),%edi
ffff8000001222f3:	01 0c 07             	add    %ecx,(%rdi,%rax,1)
ffff8000001222f6:	08 00                	or     %al,(%rax)
ffff8000001222f8:	1c 00                	sbb    $0x0,%al
ffff8000001222fa:	00 00                	add    %al,(%rax)
ffff8000001222fc:	1c 0c                	sbb    $0xc,%al
ffff8000001222fe:	00 00                	add    %al,(%rax)
ffff800000122300:	ea                   	(bad)  
ffff800000122301:	d0 ff                	sar    %bh
ffff800000122303:	ff                   	(bad)  
ffff800000122304:	f8                   	clc    
ffff800000122305:	00 00                	add    %al,(%rax)
ffff800000122307:	00 00                	add    %al,(%rax)
ffff800000122309:	41 0e                	rex.B (bad) 
ffff80000012230b:	10 86 02 43 0d 06    	adc    %al,0x60d4302(%rsi)
ffff800000122311:	02 f3                	add    %bl,%dh
ffff800000122313:	0c 07                	or     $0x7,%al
ffff800000122315:	08 00                	or     %al,(%rax)
ffff800000122317:	00 1c 00             	add    %bl,(%rax,%rax,1)
ffff80000012231a:	00 00                	add    %al,(%rax)
ffff80000012231c:	3c 0c                	cmp    $0xc,%al
ffff80000012231e:	00 00                	add    %al,(%rax)
ffff800000122320:	c2 d1 ff             	retq   $0xffd1
ffff800000122323:	ff 50 03             	callq  *0x3(%rax)
ffff800000122326:	00 00                	add    %al,(%rax)
ffff800000122328:	00 41 0e             	add    %al,0xe(%rcx)
ffff80000012232b:	10 86 02 43 0d 06    	adc    %al,0x60d4302(%rsi)
ffff800000122331:	03 4b 03             	add    0x3(%rbx),%ecx
ffff800000122334:	0c 07                	or     $0x7,%al
ffff800000122336:	08 00                	or     %al,(%rax)
ffff800000122338:	1c 00                	sbb    $0x0,%al
ffff80000012233a:	00 00                	add    %al,(%rax)
ffff80000012233c:	5c                   	pop    %rsp
ffff80000012233d:	0c 00                	or     $0x0,%al
ffff80000012233f:	00 f2                	add    %dh,%dl
ffff800000122341:	d4                   	(bad)  
ffff800000122342:	ff                   	(bad)  
ffff800000122343:	ff 48 01             	decl   0x1(%rax)
ffff800000122346:	00 00                	add    %al,(%rax)
ffff800000122348:	00 41 0e             	add    %al,0xe(%rcx)
ffff80000012234b:	10 86 02 43 0d 06    	adc    %al,0x60d4302(%rsi)
ffff800000122351:	03 43 01             	add    0x1(%rbx),%eax
ffff800000122354:	0c 07                	or     $0x7,%al
ffff800000122356:	08 00                	or     %al,(%rax)
ffff800000122358:	1c 00                	sbb    $0x0,%al
ffff80000012235a:	00 00                	add    %al,(%rax)
ffff80000012235c:	7c 0c                	jl     ffff80000012236a <pause+0xf8d>
ffff80000012235e:	00 00                	add    %al,(%rax)
ffff800000122360:	1a d6                	sbb    %dh,%dl
ffff800000122362:	ff                   	(bad)  
ffff800000122363:	ff                   	(bad)  
ffff800000122364:	bb 00 00 00 00       	mov    $0x0,%ebx
ffff800000122369:	41 0e                	rex.B (bad) 
ffff80000012236b:	10 86 02 43 0d 06    	adc    %al,0x60d4302(%rsi)
ffff800000122371:	02 b6 0c 07 08 00    	add    0x8070c(%rsi),%dh
ffff800000122377:	00 1c 00             	add    %bl,(%rax,%rax,1)
ffff80000012237a:	00 00                	add    %al,(%rax)
ffff80000012237c:	9c                   	pushfq 
ffff80000012237d:	0c 00                	or     $0x0,%al
ffff80000012237f:	00 b5 d6 ff ff 29    	add    %dh,0x29ffffd6(%rbp)
ffff800000122385:	00 00                	add    %al,(%rax)
ffff800000122387:	00 00                	add    %al,(%rax)
ffff800000122389:	41 0e                	rex.B (bad) 
ffff80000012238b:	10 86 02 43 0d 06    	adc    %al,0x60d4302(%rsi)
ffff800000122391:	64 0c 07             	fs or  $0x7,%al
ffff800000122394:	08 00                	or     %al,(%rax)
ffff800000122396:	00 00                	add    %al,(%rax)
ffff800000122398:	24 00                	and    $0x0,%al
ffff80000012239a:	00 00                	add    %al,(%rax)
ffff80000012239c:	bc 0c 00 00 be       	mov    $0xbe00000c,%esp
ffff8000001223a1:	d6                   	(bad)  
ffff8000001223a2:	ff                   	(bad)  
ffff8000001223a3:	ff 09                	decl   (%rcx)
ffff8000001223a5:	01 00                	add    %eax,(%rax)
ffff8000001223a7:	00 00                	add    %al,(%rax)
ffff8000001223a9:	41 0e                	rex.B (bad) 
ffff8000001223ab:	10 86 02 43 0d 06    	adc    %al,0x60d4302(%rsi)
ffff8000001223b1:	45 83 03 02          	rex.RB addl $0x2,(%r11)
ffff8000001223b5:	ff 0c 07             	decl   (%rdi,%rax,1)
ffff8000001223b8:	08 00                	or     %al,(%rax)
ffff8000001223ba:	00 00                	add    %al,(%rax)
ffff8000001223bc:	00 00                	add    %al,(%rax)
ffff8000001223be:	00 00                	add    %al,(%rax)
ffff8000001223c0:	24 00                	and    $0x0,%al
ffff8000001223c2:	00 00                	add    %al,(%rax)
ffff8000001223c4:	e4 0c                	in     $0xc,%al
ffff8000001223c6:	00 00                	add    %al,(%rax)
ffff8000001223c8:	9f                   	lahf   
ffff8000001223c9:	d7                   	xlat   %ds:(%rbx)
ffff8000001223ca:	ff                   	(bad)  
ffff8000001223cb:	ff c0                	inc    %eax
ffff8000001223cd:	00 00                	add    %al,(%rax)
ffff8000001223cf:	00 00                	add    %al,(%rax)
ffff8000001223d1:	41 0e                	rex.B (bad) 
ffff8000001223d3:	10 86 02 43 0d 06    	adc    %al,0x60d4302(%rsi)
ffff8000001223d9:	45 83 03 02          	rex.RB addl $0x2,(%r11)
ffff8000001223dd:	b6 0c                	mov    $0xc,%dh
ffff8000001223df:	07                   	(bad)  
ffff8000001223e0:	08 00                	or     %al,(%rax)
ffff8000001223e2:	00 00                	add    %al,(%rax)
ffff8000001223e4:	00 00                	add    %al,(%rax)
ffff8000001223e6:	00 00                	add    %al,(%rax)
ffff8000001223e8:	1c 00                	sbb    $0x0,%al
ffff8000001223ea:	00 00                	add    %al,(%rax)
ffff8000001223ec:	0c 0d                	or     $0xd,%al
ffff8000001223ee:	00 00                	add    %al,(%rax)
ffff8000001223f0:	37                   	(bad)  
ffff8000001223f1:	d8 ff                	fdivr  %st(7),%st
ffff8000001223f3:	ff 2d 00 00 00 00    	ljmp   *0x0(%rip)        # ffff8000001223f9 <pause+0x101c>
ffff8000001223f9:	41 0e                	rex.B (bad) 
ffff8000001223fb:	10 86 02 43 0d 06    	adc    %al,0x60d4302(%rsi)
ffff800000122401:	68 0c 07 08 00       	pushq  $0x8070c
ffff800000122406:	00 00                	add    %al,(%rax)
ffff800000122408:	24 00                	and    $0x0,%al
ffff80000012240a:	00 00                	add    %al,(%rax)
ffff80000012240c:	2c 0d                	sub    $0xd,%al
ffff80000012240e:	00 00                	add    %al,(%rax)
ffff800000122410:	44 d8 ff             	rex.R fdivr %st(7),%st
ffff800000122413:	ff                   	(bad)  
ffff800000122414:	dd 00                	fldl   (%rax)
ffff800000122416:	00 00                	add    %al,(%rax)
ffff800000122418:	00 41 0e             	add    %al,0xe(%rcx)
ffff80000012241b:	10 86 02 43 0d 06    	adc    %al,0x60d4302(%rsi)
ffff800000122421:	45 83 03 02          	rex.RB addl $0x2,(%r11)
ffff800000122425:	d3 0c 07             	rorl   %cl,(%rdi,%rax,1)
ffff800000122428:	08 00                	or     %al,(%rax)
ffff80000012242a:	00 00                	add    %al,(%rax)
ffff80000012242c:	00 00                	add    %al,(%rax)
ffff80000012242e:	00 00                	add    %al,(%rax)
ffff800000122430:	24 00                	and    $0x0,%al
ffff800000122432:	00 00                	add    %al,(%rax)
ffff800000122434:	54                   	push   %rsp
ffff800000122435:	0d 00 00 f9 d8       	or     $0xd8f90000,%eax
ffff80000012243a:	ff                   	(bad)  
ffff80000012243b:	ff                   	(bad)  
ffff80000012243c:	bb 00 00 00 00       	mov    $0x0,%ebx
ffff800000122441:	41 0e                	rex.B (bad) 
ffff800000122443:	10 86 02 43 0d 06    	adc    %al,0x60d4302(%rsi)
ffff800000122449:	45 83 03 02          	rex.RB addl $0x2,(%r11)
ffff80000012244d:	b1 0c                	mov    $0xc,%cl
ffff80000012244f:	07                   	(bad)  
ffff800000122450:	08 00                	or     %al,(%rax)
ffff800000122452:	00 00                	add    %al,(%rax)
ffff800000122454:	00 00                	add    %al,(%rax)
ffff800000122456:	00 00                	add    %al,(%rax)
ffff800000122458:	1c 00                	sbb    $0x0,%al
ffff80000012245a:	00 00                	add    %al,(%rax)
ffff80000012245c:	7c 0d                	jl     ffff80000012246b <pause+0x108e>
ffff80000012245e:	00 00                	add    %al,(%rax)
ffff800000122460:	8c d9                	mov    %ds,%ecx
ffff800000122462:	ff                   	(bad)  
ffff800000122463:	ff 2f                	ljmp   *(%rdi)
ffff800000122465:	02 00                	add    (%rax),%al
ffff800000122467:	00 00                	add    %al,(%rax)
ffff800000122469:	41 0e                	rex.B (bad) 
ffff80000012246b:	10 86 02 43 0d 06    	adc    %al,0x60d4302(%rsi)
ffff800000122471:	03 2a                	add    (%rdx),%ebp
ffff800000122473:	02 0c 07             	add    (%rdi,%rax,1),%cl
ffff800000122476:	08 00                	or     %al,(%rax)
ffff800000122478:	1c 00                	sbb    $0x0,%al
ffff80000012247a:	00 00                	add    %al,(%rax)
ffff80000012247c:	9c                   	pushfq 
ffff80000012247d:	0d 00 00 9b db       	or     $0xdb9b0000,%eax
ffff800000122482:	ff                   	(bad)  
ffff800000122483:	ff 1a                	lcall  *(%rdx)
ffff800000122485:	00 00                	add    %al,(%rax)
ffff800000122487:	00 00                	add    %al,(%rax)
ffff800000122489:	41 0e                	rex.B (bad) 
ffff80000012248b:	10 86 02 43 0d 06    	adc    %al,0x60d4302(%rsi)
ffff800000122491:	55                   	push   %rbp
ffff800000122492:	0c 07                	or     $0x7,%al
ffff800000122494:	08 00                	or     %al,(%rax)
ffff800000122496:	00 00                	add    %al,(%rax)
ffff800000122498:	1c 00                	sbb    $0x0,%al
ffff80000012249a:	00 00                	add    %al,(%rax)
ffff80000012249c:	bc 0d 00 00 95       	mov    $0x9500000d,%esp
ffff8000001224a1:	db ff                	(bad)  
ffff8000001224a3:	ff 1b                	lcall  *(%rbx)
ffff8000001224a5:	00 00                	add    %al,(%rax)
ffff8000001224a7:	00 00                	add    %al,(%rax)
ffff8000001224a9:	41 0e                	rex.B (bad) 
ffff8000001224ab:	10 86 02 43 0d 06    	adc    %al,0x60d4302(%rsi)
ffff8000001224b1:	56                   	push   %rsi
ffff8000001224b2:	0c 07                	or     $0x7,%al
ffff8000001224b4:	08 00                	or     %al,(%rax)
ffff8000001224b6:	00 00                	add    %al,(%rax)
ffff8000001224b8:	1c 00                	sbb    $0x0,%al
ffff8000001224ba:	00 00                	add    %al,(%rax)
ffff8000001224bc:	dc 0d 00 00 90 db    	fmull  -0x24700000(%rip)        # ffff7fffdba224c2 <PGT_START+0xffff7fffdb9214c2>
ffff8000001224c2:	ff                   	(bad)  
ffff8000001224c3:	ff 2e                	ljmp   *(%rsi)
ffff8000001224c5:	00 00                	add    %al,(%rax)
ffff8000001224c7:	00 00                	add    %al,(%rax)
ffff8000001224c9:	41 0e                	rex.B (bad) 
ffff8000001224cb:	10 86 02 43 0d 06    	adc    %al,0x60d4302(%rsi)
ffff8000001224d1:	69 0c 07 08 00 00 00 	imul   $0x8,(%rdi,%rax,1),%ecx
ffff8000001224d8:	1c 00                	sbb    $0x0,%al
ffff8000001224da:	00 00                	add    %al,(%rax)
ffff8000001224dc:	fc                   	cld    
ffff8000001224dd:	0d 00 00 9e db       	or     $0xdb9e0000,%eax
ffff8000001224e2:	ff                   	(bad)  
ffff8000001224e3:	ff                   	(bad)  
ffff8000001224e4:	3a 00                	cmp    (%rax),%al
ffff8000001224e6:	00 00                	add    %al,(%rax)
ffff8000001224e8:	00 41 0e             	add    %al,0xe(%rcx)
ffff8000001224eb:	10 86 02 43 0d 06    	adc    %al,0x60d4302(%rsi)
ffff8000001224f1:	75 0c                	jne    ffff8000001224ff <pause+0x1122>
ffff8000001224f3:	07                   	(bad)  
ffff8000001224f4:	08 00                	or     %al,(%rax)
ffff8000001224f6:	00 00                	add    %al,(%rax)
ffff8000001224f8:	1c 00                	sbb    $0x0,%al
ffff8000001224fa:	00 00                	add    %al,(%rax)
ffff8000001224fc:	1c 0e                	sbb    $0xe,%al
ffff8000001224fe:	00 00                	add    %al,(%rax)
ffff800000122500:	b8 db ff ff 75       	mov    $0x75ffffdb,%eax
ffff800000122505:	00 00                	add    %al,(%rax)
ffff800000122507:	00 00                	add    %al,(%rax)
ffff800000122509:	41 0e                	rex.B (bad) 
ffff80000012250b:	10 86 02 43 0d 06    	adc    %al,0x60d4302(%rsi)
ffff800000122511:	02 70 0c             	add    0xc(%rax),%dh
ffff800000122514:	07                   	(bad)  
ffff800000122515:	08 00                	or     %al,(%rax)
ffff800000122517:	00 1c 00             	add    %bl,(%rax,%rax,1)
ffff80000012251a:	00 00                	add    %al,(%rax)
ffff80000012251c:	3c 0e                	cmp    $0xe,%al
ffff80000012251e:	00 00                	add    %al,(%rax)
ffff800000122520:	0d dc ff ff 62       	or     $0x62ffffdc,%eax
ffff800000122525:	00 00                	add    %al,(%rax)
ffff800000122527:	00 00                	add    %al,(%rax)
ffff800000122529:	41 0e                	rex.B (bad) 
ffff80000012252b:	10 86 02 43 0d 06    	adc    %al,0x60d4302(%rsi)
ffff800000122531:	02 5d 0c             	add    0xc(%rbp),%bl
ffff800000122534:	07                   	(bad)  
ffff800000122535:	08 00                	or     %al,(%rax)
ffff800000122537:	00 1c 00             	add    %bl,(%rax,%rax,1)
ffff80000012253a:	00 00                	add    %al,(%rax)
ffff80000012253c:	5c                   	pop    %rsp
ffff80000012253d:	0e                   	(bad)  
ffff80000012253e:	00 00                	add    %al,(%rax)
ffff800000122540:	4f dc ff             	rex.WRXB fdivr %st,%st(7)
ffff800000122543:	ff 96 00 00 00 00    	callq  *0x0(%rsi)
ffff800000122549:	41 0e                	rex.B (bad) 
ffff80000012254b:	10 86 02 43 0d 06    	adc    %al,0x60d4302(%rsi)
ffff800000122551:	02 91 0c 07 08 00    	add    0x8070c(%rcx),%dl
ffff800000122557:	00 1c 00             	add    %bl,(%rax,%rax,1)
ffff80000012255a:	00 00                	add    %al,(%rax)
ffff80000012255c:	7c 0e                	jl     ffff80000012256c <pause+0x118f>
ffff80000012255e:	00 00                	add    %al,(%rax)
ffff800000122560:	c5 dc ff             	(bad)  
ffff800000122563:	ff 4e 00             	decl   0x0(%rsi)
ffff800000122566:	00 00                	add    %al,(%rax)
ffff800000122568:	00 41 0e             	add    %al,0xe(%rcx)
ffff80000012256b:	10 86 02 43 0d 06    	adc    %al,0x60d4302(%rsi)
ffff800000122571:	02 49 0c             	add    0xc(%rcx),%cl
ffff800000122574:	07                   	(bad)  
ffff800000122575:	08 00                	or     %al,(%rax)
ffff800000122577:	00 1c 00             	add    %bl,(%rax,%rax,1)
ffff80000012257a:	00 00                	add    %al,(%rax)
ffff80000012257c:	9c                   	pushfq 
ffff80000012257d:	0e                   	(bad)  
ffff80000012257e:	00 00                	add    %al,(%rax)
ffff800000122580:	f3 dc ff             	repz fdivr %st,%st(7)
ffff800000122583:	ff 59 00             	lcall  *0x0(%rcx)
ffff800000122586:	00 00                	add    %al,(%rax)
ffff800000122588:	00 41 0e             	add    %al,0xe(%rcx)
ffff80000012258b:	10 86 02 43 0d 06    	adc    %al,0x60d4302(%rsi)
ffff800000122591:	02 54 0c 07          	add    0x7(%rsp,%rcx,1),%dl
ffff800000122595:	08 00                	or     %al,(%rax)
ffff800000122597:	00 1c 00             	add    %bl,(%rax,%rax,1)
ffff80000012259a:	00 00                	add    %al,(%rax)
ffff80000012259c:	bc 0e 00 00 2c       	mov    $0x2c00000e,%esp
ffff8000001225a1:	dd ff                	(bad)  
ffff8000001225a3:	ff 2e                	ljmp   *(%rsi)
ffff8000001225a5:	00 00                	add    %al,(%rax)
ffff8000001225a7:	00 00                	add    %al,(%rax)
ffff8000001225a9:	41 0e                	rex.B (bad) 
ffff8000001225ab:	10 86 02 43 0d 06    	adc    %al,0x60d4302(%rsi)
ffff8000001225b1:	69 0c 07 08 00 00 00 	imul   $0x8,(%rdi,%rax,1),%ecx
ffff8000001225b8:	1c 00                	sbb    $0x0,%al
ffff8000001225ba:	00 00                	add    %al,(%rax)
ffff8000001225bc:	dc 0e                	fmull  (%rsi)
ffff8000001225be:	00 00                	add    %al,(%rax)
ffff8000001225c0:	3a dd                	cmp    %ch,%bl
ffff8000001225c2:	ff                   	(bad)  
ffff8000001225c3:	ff 0b                	decl   (%rbx)
ffff8000001225c5:	00 00                	add    %al,(%rax)
ffff8000001225c7:	00 00                	add    %al,(%rax)
ffff8000001225c9:	41 0e                	rex.B (bad) 
ffff8000001225cb:	10 86 02 43 0d 06    	adc    %al,0x60d4302(%rsi)
ffff8000001225d1:	46 0c 07             	rex.RX or $0x7,%al
ffff8000001225d4:	08 00                	or     %al,(%rax)
ffff8000001225d6:	00 00                	add    %al,(%rax)
ffff8000001225d8:	1c 00                	sbb    $0x0,%al
ffff8000001225da:	00 00                	add    %al,(%rax)
ffff8000001225dc:	fc                   	cld    
ffff8000001225dd:	0e                   	(bad)  
ffff8000001225de:	00 00                	add    %al,(%rax)
ffff8000001225e0:	25 dd ff ff 89       	and    $0x89ffffdd,%eax
ffff8000001225e5:	00 00                	add    %al,(%rax)
ffff8000001225e7:	00 00                	add    %al,(%rax)
ffff8000001225e9:	41 0e                	rex.B (bad) 
ffff8000001225eb:	10 86 02 43 0d 06    	adc    %al,0x60d4302(%rsi)
ffff8000001225f1:	02 84 0c 07 08 00 00 	add    0x807(%rsp,%rcx,1),%al
ffff8000001225f8:	1c 00                	sbb    $0x0,%al
ffff8000001225fa:	00 00                	add    %al,(%rax)
ffff8000001225fc:	1c 0f                	sbb    $0xf,%al
ffff8000001225fe:	00 00                	add    %al,(%rax)
ffff800000122600:	8e dd                	mov    %ebp,%ds
ffff800000122602:	ff                   	(bad)  
ffff800000122603:	ff 67 00             	jmpq   *0x0(%rdi)
ffff800000122606:	00 00                	add    %al,(%rax)
ffff800000122608:	00 41 0e             	add    %al,0xe(%rcx)
ffff80000012260b:	10 86 02 43 0d 06    	adc    %al,0x60d4302(%rsi)
ffff800000122611:	02 62 0c             	add    0xc(%rdx),%ah
ffff800000122614:	07                   	(bad)  
ffff800000122615:	08 00                	or     %al,(%rax)
ffff800000122617:	00 1c 00             	add    %bl,(%rax,%rax,1)
ffff80000012261a:	00 00                	add    %al,(%rax)
ffff80000012261c:	3c 0f                	cmp    $0xf,%al
ffff80000012261e:	00 00                	add    %al,(%rax)
ffff800000122620:	d5                   	(bad)  
ffff800000122621:	dd ff                	(bad)  
ffff800000122623:	ff 96 00 00 00 00    	callq  *0x0(%rsi)
ffff800000122629:	41 0e                	rex.B (bad) 
ffff80000012262b:	10 86 02 43 0d 06    	adc    %al,0x60d4302(%rsi)
ffff800000122631:	02 91 0c 07 08 00    	add    0x8070c(%rcx),%dl
ffff800000122637:	00 1c 00             	add    %bl,(%rax,%rax,1)
ffff80000012263a:	00 00                	add    %al,(%rax)
ffff80000012263c:	5c                   	pop    %rsp
ffff80000012263d:	0f 00 00             	sldt   (%rax)
ffff800000122640:	4b de ff             	rex.WXB fdivrp %st,%st(7)
ffff800000122643:	ff 4a 00             	decl   0x0(%rdx)
ffff800000122646:	00 00                	add    %al,(%rax)
ffff800000122648:	00 41 0e             	add    %al,0xe(%rcx)
ffff80000012264b:	10 86 02 43 0d 06    	adc    %al,0x60d4302(%rsi)
ffff800000122651:	02 45 0c             	add    0xc(%rbp),%al
ffff800000122654:	07                   	(bad)  
ffff800000122655:	08 00                	or     %al,(%rax)
ffff800000122657:	00 1c 00             	add    %bl,(%rax,%rax,1)
ffff80000012265a:	00 00                	add    %al,(%rax)
ffff80000012265c:	7c 0f                	jl     ffff80000012266d <pause+0x1290>
ffff80000012265e:	00 00                	add    %al,(%rax)
ffff800000122660:	75 de                	jne    ffff800000122640 <pause+0x1263>
ffff800000122662:	ff                   	(bad)  
ffff800000122663:	ff                   	(bad)  
ffff800000122664:	f9                   	stc    
ffff800000122665:	00 00                	add    %al,(%rax)
ffff800000122667:	00 00                	add    %al,(%rax)
ffff800000122669:	41 0e                	rex.B (bad) 
ffff80000012266b:	10 86 02 43 0d 06    	adc    %al,0x60d4302(%rsi)
ffff800000122671:	02 f4                	add    %ah,%dh
ffff800000122673:	0c 07                	or     $0x7,%al
ffff800000122675:	08 00                	or     %al,(%rax)
ffff800000122677:	00 1c 00             	add    %bl,(%rax,%rax,1)
ffff80000012267a:	00 00                	add    %al,(%rax)
ffff80000012267c:	9c                   	pushfq 
ffff80000012267d:	0f 00 00             	sldt   (%rax)
ffff800000122680:	4e df ff             	rex.WRX (bad) 
ffff800000122683:	ff                   	(bad)  
ffff800000122684:	78 02                	js     ffff800000122688 <pause+0x12ab>
ffff800000122686:	00 00                	add    %al,(%rax)
ffff800000122688:	00 41 0e             	add    %al,0xe(%rcx)
ffff80000012268b:	10 86 02 43 0d 06    	adc    %al,0x60d4302(%rsi)
ffff800000122691:	03 73 02             	add    0x2(%rbx),%esi
ffff800000122694:	0c 07                	or     $0x7,%al
ffff800000122696:	08 00                	or     %al,(%rax)
ffff800000122698:	1c 00                	sbb    $0x0,%al
ffff80000012269a:	00 00                	add    %al,(%rax)
ffff80000012269c:	bc 0f 00 00 a6       	mov    $0xa600000f,%esp
ffff8000001226a1:	e1 ff                	loope  ffff8000001226a2 <pause+0x12c5>
ffff8000001226a3:	ff 82 01 00 00 00    	incl   0x1(%rdx)
ffff8000001226a9:	41 0e                	rex.B (bad) 
ffff8000001226ab:	10 86 02 43 0d 06    	adc    %al,0x60d4302(%rsi)
ffff8000001226b1:	03 7d 01             	add    0x1(%rbp),%edi
ffff8000001226b4:	0c 07                	or     $0x7,%al
ffff8000001226b6:	08 00                	or     %al,(%rax)
ffff8000001226b8:	1c 00                	sbb    $0x0,%al
ffff8000001226ba:	00 00                	add    %al,(%rax)
ffff8000001226bc:	dc 0f                	fmull  (%rdi)
ffff8000001226be:	00 00                	add    %al,(%rax)
ffff8000001226c0:	08 e3                	or     %ah,%bl
ffff8000001226c2:	ff                   	(bad)  
ffff8000001226c3:	ff 0b                	decl   (%rbx)
ffff8000001226c5:	00 00                	add    %al,(%rax)
ffff8000001226c7:	00 00                	add    %al,(%rax)
ffff8000001226c9:	41 0e                	rex.B (bad) 
ffff8000001226cb:	10 86 02 43 0d 06    	adc    %al,0x60d4302(%rsi)
ffff8000001226d1:	46 0c 07             	rex.RX or $0x7,%al
ffff8000001226d4:	08 00                	or     %al,(%rax)
ffff8000001226d6:	00 00                	add    %al,(%rax)
ffff8000001226d8:	1c 00                	sbb    $0x0,%al
ffff8000001226da:	00 00                	add    %al,(%rax)
ffff8000001226dc:	fc                   	cld    
ffff8000001226dd:	0f 00 00             	sldt   (%rax)
ffff8000001226e0:	f3 e2 ff             	repz loop ffff8000001226e2 <pause+0x1305>
ffff8000001226e3:	ff 9b 00 00 00 00    	lcall  *0x0(%rbx)
ffff8000001226e9:	41 0e                	rex.B (bad) 
ffff8000001226eb:	10 86 02 43 0d 06    	adc    %al,0x60d4302(%rsi)
ffff8000001226f1:	02 96 0c 07 08 00    	add    0x8070c(%rsi),%dl
ffff8000001226f7:	00 1c 00             	add    %bl,(%rax,%rax,1)
ffff8000001226fa:	00 00                	add    %al,(%rax)
ffff8000001226fc:	1c 10                	sbb    $0x10,%al
ffff8000001226fe:	00 00                	add    %al,(%rax)
ffff800000122700:	6e                   	outsb  %ds:(%rsi),(%dx)
ffff800000122701:	e3 ff                	jrcxz  ffff800000122702 <pause+0x1325>
ffff800000122703:	ff 5a 00             	lcall  *0x0(%rdx)
ffff800000122706:	00 00                	add    %al,(%rax)
ffff800000122708:	00 41 0e             	add    %al,0xe(%rcx)
ffff80000012270b:	10 86 02 43 0d 06    	adc    %al,0x60d4302(%rsi)
ffff800000122711:	02 55 0c             	add    0xc(%rbp),%dl
ffff800000122714:	07                   	(bad)  
ffff800000122715:	08 00                	or     %al,(%rax)
ffff800000122717:	00 1c 00             	add    %bl,(%rax,%rax,1)
ffff80000012271a:	00 00                	add    %al,(%rax)
ffff80000012271c:	3c 10                	cmp    $0x10,%al
ffff80000012271e:	00 00                	add    %al,(%rax)
ffff800000122720:	a8 e3                	test   $0xe3,%al
ffff800000122722:	ff                   	(bad)  
ffff800000122723:	ff 59 00             	lcall  *0x0(%rcx)
ffff800000122726:	00 00                	add    %al,(%rax)
ffff800000122728:	00 41 0e             	add    %al,0xe(%rcx)
ffff80000012272b:	10 86 02 43 0d 06    	adc    %al,0x60d4302(%rsi)
ffff800000122731:	02 54 0c 07          	add    0x7(%rsp,%rcx,1),%dl
ffff800000122735:	08 00                	or     %al,(%rax)
ffff800000122737:	00 1c 00             	add    %bl,(%rax,%rax,1)
ffff80000012273a:	00 00                	add    %al,(%rax)
ffff80000012273c:	5c                   	pop    %rsp
ffff80000012273d:	10 00                	adc    %al,(%rax)
ffff80000012273f:	00 e1                	add    %ah,%cl
ffff800000122741:	e3 ff                	jrcxz  ffff800000122742 <pause+0x1365>
ffff800000122743:	ff                   	(bad)  
ffff800000122744:	3a 00                	cmp    (%rax),%al
ffff800000122746:	00 00                	add    %al,(%rax)
ffff800000122748:	00 41 0e             	add    %al,0xe(%rcx)
ffff80000012274b:	10 86 02 43 0d 06    	adc    %al,0x60d4302(%rsi)
ffff800000122751:	75 0c                	jne    ffff80000012275f <pause+0x1382>
ffff800000122753:	07                   	(bad)  
ffff800000122754:	08 00                	or     %al,(%rax)
ffff800000122756:	00 00                	add    %al,(%rax)
ffff800000122758:	1c 00                	sbb    $0x0,%al
ffff80000012275a:	00 00                	add    %al,(%rax)
ffff80000012275c:	7c 10                	jl     ffff80000012276e <pause+0x1391>
ffff80000012275e:	00 00                	add    %al,(%rax)
ffff800000122760:	fb                   	sti    
ffff800000122761:	e3 ff                	jrcxz  ffff800000122762 <pause+0x1385>
ffff800000122763:	ff 5e 00             	lcall  *0x0(%rsi)
ffff800000122766:	00 00                	add    %al,(%rax)
ffff800000122768:	00 41 0e             	add    %al,0xe(%rcx)
ffff80000012276b:	10 86 02 43 0d 06    	adc    %al,0x60d4302(%rsi)
ffff800000122771:	02 59 0c             	add    0xc(%rcx),%bl
ffff800000122774:	07                   	(bad)  
ffff800000122775:	08 00                	or     %al,(%rax)
ffff800000122777:	00 1c 00             	add    %bl,(%rax,%rax,1)
ffff80000012277a:	00 00                	add    %al,(%rax)
ffff80000012277c:	9c                   	pushfq 
ffff80000012277d:	10 00                	adc    %al,(%rax)
ffff80000012277f:	00 39                	add    %bh,(%rcx)
ffff800000122781:	e4 ff                	in     $0xff,%al
ffff800000122783:	ff 2b                	ljmp   *(%rbx)
ffff800000122785:	00 00                	add    %al,(%rax)
ffff800000122787:	00 00                	add    %al,(%rax)
ffff800000122789:	41 0e                	rex.B (bad) 
ffff80000012278b:	10 86 02 43 0d 06    	adc    %al,0x60d4302(%rsi)
ffff800000122791:	66 0c 07             	data16 or $0x7,%al
ffff800000122794:	08 00                	or     %al,(%rax)
ffff800000122796:	00 00                	add    %al,(%rax)
ffff800000122798:	1c 00                	sbb    $0x0,%al
ffff80000012279a:	00 00                	add    %al,(%rax)
ffff80000012279c:	bc 10 00 00 44       	mov    $0x44000010,%esp
ffff8000001227a1:	e4 ff                	in     $0xff,%al
ffff8000001227a3:	ff c9                	dec    %ecx
ffff8000001227a5:	00 00                	add    %al,(%rax)
ffff8000001227a7:	00 00                	add    %al,(%rax)
ffff8000001227a9:	41 0e                	rex.B (bad) 
ffff8000001227ab:	10 86 02 43 0d 06    	adc    %al,0x60d4302(%rsi)
ffff8000001227b1:	02 c4                	add    %ah,%al
ffff8000001227b3:	0c 07                	or     $0x7,%al
ffff8000001227b5:	08 00                	or     %al,(%rax)
ffff8000001227b7:	00 1c 00             	add    %bl,(%rax,%rax,1)
ffff8000001227ba:	00 00                	add    %al,(%rax)
ffff8000001227bc:	dc 10                	fcoml  (%rax)
ffff8000001227be:	00 00                	add    %al,(%rax)
ffff8000001227c0:	ed                   	in     (%dx),%eax
ffff8000001227c1:	e4 ff                	in     $0xff,%al
ffff8000001227c3:	ff 37                	pushq  (%rdi)
ffff8000001227c5:	00 00                	add    %al,(%rax)
ffff8000001227c7:	00 00                	add    %al,(%rax)
ffff8000001227c9:	41 0e                	rex.B (bad) 
ffff8000001227cb:	10 86 02 43 0d 06    	adc    %al,0x60d4302(%rsi)
ffff8000001227d1:	72 0c                	jb     ffff8000001227df <pause+0x1402>
ffff8000001227d3:	07                   	(bad)  
ffff8000001227d4:	08 00                	or     %al,(%rax)
ffff8000001227d6:	00 00                	add    %al,(%rax)
ffff8000001227d8:	1c 00                	sbb    $0x0,%al
ffff8000001227da:	00 00                	add    %al,(%rax)
ffff8000001227dc:	fc                   	cld    
ffff8000001227dd:	10 00                	adc    %al,(%rax)
ffff8000001227df:	00 04 e5 ff ff 52 00 	add    %al,0x52ffff(,%riz,8)
ffff8000001227e6:	00 00                	add    %al,(%rax)
ffff8000001227e8:	00 41 0e             	add    %al,0xe(%rcx)
ffff8000001227eb:	10 86 02 43 0d 06    	adc    %al,0x60d4302(%rsi)
ffff8000001227f1:	02 4d 0c             	add    0xc(%rbp),%cl
ffff8000001227f4:	07                   	(bad)  
ffff8000001227f5:	08 00                	or     %al,(%rax)
ffff8000001227f7:	00 1c 00             	add    %bl,(%rax,%rax,1)
ffff8000001227fa:	00 00                	add    %al,(%rax)
ffff8000001227fc:	1c 11                	sbb    $0x11,%al
ffff8000001227fe:	00 00                	add    %al,(%rax)
ffff800000122800:	36 e5 ff             	ss in  $0xff,%eax
ffff800000122803:	ff 35 00 00 00 00    	pushq  0x0(%rip)        # ffff800000122809 <pause+0x142c>
ffff800000122809:	41 0e                	rex.B (bad) 
ffff80000012280b:	10 86 02 43 0d 06    	adc    %al,0x60d4302(%rsi)
ffff800000122811:	70 0c                	jo     ffff80000012281f <pause+0x1442>
ffff800000122813:	07                   	(bad)  
ffff800000122814:	08 00                	or     %al,(%rax)
ffff800000122816:	00 00                	add    %al,(%rax)
ffff800000122818:	1c 00                	sbb    $0x0,%al
ffff80000012281a:	00 00                	add    %al,(%rax)
ffff80000012281c:	3c 11                	cmp    $0x11,%al
ffff80000012281e:	00 00                	add    %al,(%rax)
ffff800000122820:	4b e5 ff             	rex.WXB in $0xff,%eax
ffff800000122823:	ff 25 00 00 00 00    	jmpq   *0x0(%rip)        # ffff800000122829 <pause+0x144c>
ffff800000122829:	41 0e                	rex.B (bad) 
ffff80000012282b:	10 86 02 43 0d 06    	adc    %al,0x60d4302(%rsi)
ffff800000122831:	60                   	(bad)  
ffff800000122832:	0c 07                	or     $0x7,%al
ffff800000122834:	08 00                	or     %al,(%rax)
ffff800000122836:	00 00                	add    %al,(%rax)
ffff800000122838:	1c 00                	sbb    $0x0,%al
ffff80000012283a:	00 00                	add    %al,(%rax)
ffff80000012283c:	5c                   	pop    %rsp
ffff80000012283d:	11 00                	adc    %eax,(%rax)
ffff80000012283f:	00 50 e5             	add    %dl,-0x1b(%rax)
ffff800000122842:	ff                   	(bad)  
ffff800000122843:	ff 2e                	ljmp   *(%rsi)
ffff800000122845:	00 00                	add    %al,(%rax)
ffff800000122847:	00 00                	add    %al,(%rax)
ffff800000122849:	41 0e                	rex.B (bad) 
ffff80000012284b:	10 86 02 43 0d 06    	adc    %al,0x60d4302(%rsi)
ffff800000122851:	69 0c 07 08 00 00 00 	imul   $0x8,(%rdi,%rax,1),%ecx
ffff800000122858:	1c 00                	sbb    $0x0,%al
ffff80000012285a:	00 00                	add    %al,(%rax)
ffff80000012285c:	7c 11                	jl     ffff80000012286f <pause+0x1492>
ffff80000012285e:	00 00                	add    %al,(%rax)
ffff800000122860:	5e                   	pop    %rsi
ffff800000122861:	e5 ff                	in     $0xff,%eax
ffff800000122863:	ff 0b                	decl   (%rbx)
ffff800000122865:	01 00                	add    %eax,(%rax)
ffff800000122867:	00 00                	add    %al,(%rax)
ffff800000122869:	41 0e                	rex.B (bad) 
ffff80000012286b:	10 86 02 43 0d 06    	adc    %al,0x60d4302(%rsi)
ffff800000122871:	03 06                	add    (%rsi),%eax
ffff800000122873:	01 0c 07             	add    %ecx,(%rdi,%rax,1)
ffff800000122876:	08 00                	or     %al,(%rax)
ffff800000122878:	1c 00                	sbb    $0x0,%al
ffff80000012287a:	00 00                	add    %al,(%rax)
ffff80000012287c:	9c                   	pushfq 
ffff80000012287d:	11 00                	adc    %eax,(%rax)
ffff80000012287f:	00 49 e6             	add    %cl,-0x1a(%rcx)
ffff800000122882:	ff                   	(bad)  
ffff800000122883:	ff                   	(bad)  
ffff800000122884:	be 00 00 00 00       	mov    $0x0,%esi
ffff800000122889:	41 0e                	rex.B (bad) 
ffff80000012288b:	10 86 02 43 0d 06    	adc    %al,0x60d4302(%rsi)
ffff800000122891:	02 b9 0c 07 08 00    	add    0x8070c(%rcx),%bh
ffff800000122897:	00 1c 00             	add    %bl,(%rax,%rax,1)
ffff80000012289a:	00 00                	add    %al,(%rax)
ffff80000012289c:	bc 11 00 00 e7       	mov    $0xe7000011,%esp
ffff8000001228a1:	e6 ff                	out    %al,$0xff
ffff8000001228a3:	ff 10                	callq  *(%rax)
ffff8000001228a5:	01 00                	add    %eax,(%rax)
ffff8000001228a7:	00 00                	add    %al,(%rax)
ffff8000001228a9:	41 0e                	rex.B (bad) 
ffff8000001228ab:	10 86 02 43 0d 06    	adc    %al,0x60d4302(%rsi)
ffff8000001228b1:	03 0b                	add    (%rbx),%ecx
ffff8000001228b3:	01 0c 07             	add    %ecx,(%rdi,%rax,1)
ffff8000001228b6:	08 00                	or     %al,(%rax)
ffff8000001228b8:	1c 00                	sbb    $0x0,%al
ffff8000001228ba:	00 00                	add    %al,(%rax)
ffff8000001228bc:	dc 11                	fcoml  (%rcx)
ffff8000001228be:	00 00                	add    %al,(%rax)
ffff8000001228c0:	d7                   	xlat   %ds:(%rbx)
ffff8000001228c1:	e7 ff                	out    %eax,$0xff
ffff8000001228c3:	ff 4d 00             	decl   0x0(%rbp)
ffff8000001228c6:	00 00                	add    %al,(%rax)
ffff8000001228c8:	00 41 0e             	add    %al,0xe(%rcx)
ffff8000001228cb:	10 86 02 43 0d 06    	adc    %al,0x60d4302(%rsi)
ffff8000001228d1:	00 00                	add    %al,(%rax)
ffff8000001228d3:	00 00                	add    %al,(%rax)
ffff8000001228d5:	00 00                	add    %al,(%rax)
	...

Disassembly of section .data:

ffff8000001228e0 <init_jumper_bin>:
ffff8000001228e0:	b8 00 10 8e d8       	mov    $0xd88e1000,%eax
ffff8000001228e5:	0f 01 16             	lgdt   (%rsi)
ffff8000001228e8:	2a 00                	sub    (%rax),%al
ffff8000001228ea:	66 b8 3b 00          	mov    $0x3b,%ax
ffff8000001228ee:	00 40 0f             	add    %al,0xf(%rax)
ffff8000001228f1:	22 c0                	and    %al,%al
ffff8000001228f3:	66 ea                	data16 (bad) 
ffff8000001228f5:	1b 00                	sbb    (%rax),%eax
ffff8000001228f7:	01 00                	add    %eax,(%rax)
ffff8000001228f9:	08 00                	or     %al,(%rax)
ffff8000001228fb:	66 b8 10 00          	mov    $0x10,%ax
ffff8000001228ff:	8e d8                	mov    %eax,%ds
ffff800000122901:	e9 68 00 0f 00       	jmpq   ffff80000021296e <img_end+0xef132>
ffff800000122906:	00 00                	add    %al,(%rax)
ffff800000122908:	00 00                	add    %al,(%rax)
ffff80000012290a:	17                   	(bad)  
ffff80000012290b:	00 30                	add    %dh,(%rax)
ffff80000012290d:	00 01                	add    %al,(%rcx)
	...
ffff800000122917:	00 ff                	add    %bh,%bh
ffff800000122919:	ff 00                	incl   (%rax)
ffff80000012291b:	00 00                	add    %al,(%rax)
ffff80000012291d:	9a                   	(bad)  
ffff80000012291e:	cf                   	iret   
ffff80000012291f:	00 ff                	add    %bh,%bh
ffff800000122921:	ff 00                	incl   (%rax)
ffff800000122923:	00 00                	add    %al,(%rax)
ffff800000122925:	92                   	xchg   %eax,%edx
ffff800000122926:	cf                   	iret   
	...

ffff800000122928 <init_jumper_bin_len>:
ffff800000122928:	48 00 00             	rex.W add %al,(%rax)
	...

ffff800000122940 <key_mapping_table>:
ffff800000122940:	00 00                	add    %al,(%rax)
ffff800000122942:	1b 1b                	sbb    (%rbx),%ebx
ffff800000122944:	31 21                	xor    %esp,(%rcx)
ffff800000122946:	32 40 33             	xor    0x33(%rax),%al
ffff800000122949:	23 34 24             	and    (%rsp),%esi
ffff80000012294c:	35 25 36 5e 37       	xor    $0x375e3625,%eax
ffff800000122951:	26 38 2a             	cmp    %ch,%es:(%rdx)
ffff800000122954:	39 28                	cmp    %ebp,(%rax)
ffff800000122956:	30 29                	xor    %ch,(%rcx)
ffff800000122958:	2d 5f 3d 2b 08       	sub    $0x82b3d5f,%eax
ffff80000012295d:	08 09                	or     %cl,(%rcx)
ffff80000012295f:	09 71 51             	or     %esi,0x51(%rcx)
ffff800000122962:	77 57                	ja     ffff8000001229bb <key_mapping_table+0x7b>
ffff800000122964:	65 45 72 52          	gs rex.RB jb ffff8000001229ba <key_mapping_table+0x7a>
ffff800000122968:	74 54                	je     ffff8000001229be <key_mapping_table+0x7e>
ffff80000012296a:	79 59                	jns    ffff8000001229c5 <key_mapping_table+0x85>
ffff80000012296c:	75 55                	jne    ffff8000001229c3 <key_mapping_table+0x83>
ffff80000012296e:	69 49 6f 4f 70 50 5b 	imul   $0x5b50704f,0x6f(%rcx),%ecx
ffff800000122975:	7b 5d                	jnp    ffff8000001229d4 <key_mapping_table+0x94>
ffff800000122977:	7d 0a                	jge    ffff800000122983 <key_mapping_table+0x43>
ffff800000122979:	0a 81 81 61 41 73    	or     0x73416181(%rcx),%al
ffff80000012297f:	53                   	push   %rbx
ffff800000122980:	64 44                	fs rex.R
ffff800000122982:	66 46                	data16 rex.RX
ffff800000122984:	67 47 68 48 6a 4a 6b 	addr32 rex.RXB pushq $0x6b4a6a48
ffff80000012298b:	4b 6c                	rex.WXB insb (%dx),%es:(%rdi)
ffff80000012298d:	4c 3b 3a             	cmp    (%rdx),%r15
ffff800000122990:	27                   	(bad)  
ffff800000122991:	22 60 7e             	and    0x7e(%rax),%ah
ffff800000122994:	82                   	(bad)  
ffff800000122995:	82                   	(bad)  
ffff800000122996:	5c                   	pop    %rsp
ffff800000122997:	7c 7a                	jl     ffff800000122a13 <next_pid+0x3>
ffff800000122999:	5a                   	pop    %rdx
ffff80000012299a:	78 58                	js     ffff8000001229f4 <key_mapping_table+0xb4>
ffff80000012299c:	63 43 76             	movslq 0x76(%rbx),%eax
ffff80000012299f:	56                   	push   %rsi
ffff8000001229a0:	62 42 6e 4e 6d       	(bad)  {%k6}
ffff8000001229a5:	4d 2c 3c             	rex.WRB sub $0x3c,%al
ffff8000001229a8:	2e 3e 2f             	cs ds (bad) 
ffff8000001229ab:	3f                   	(bad)  
ffff8000001229ac:	83 83 2a 2a 85 85 20 	addl   $0x20,-0x7a7ad5d6(%rbx)
ffff8000001229b3:	20 86 86 87 87 88    	and    %al,-0x7778787a(%rsi)
ffff8000001229b9:	88 89 89 8a 8a 8b    	mov    %cl,-0x74757577(%rcx)
ffff8000001229bf:	8b 8c 8c 8d 8d 8e 8e 	mov    -0x71717273(%rsp,%rcx,4),%ecx
ffff8000001229c6:	8f                   	(bad)  
ffff8000001229c7:	8f                   	(bad)  
ffff8000001229c8:	90                   	nop
ffff8000001229c9:	90                   	nop
ffff8000001229ca:	91                   	xchg   %eax,%ecx
ffff8000001229cb:	91                   	xchg   %eax,%ecx
ffff8000001229cc:	92                   	xchg   %eax,%edx
ffff8000001229cd:	92                   	xchg   %eax,%edx
ffff8000001229ce:	93                   	xchg   %eax,%ebx
ffff8000001229cf:	37                   	(bad)  
ffff8000001229d0:	94                   	xchg   %eax,%esp
ffff8000001229d1:	38 95 39 2d 2d 96    	cmp    %dl,-0x69d2d2c7(%rbp)
ffff8000001229d7:	34 97                	xor    $0x97,%al
ffff8000001229d9:	35 98 36 2b 2b       	xor    $0x2b2b3698,%eax
ffff8000001229de:	99                   	cltd   
ffff8000001229df:	31 9a 32 9b 33 9c    	xor    %ebx,-0x63cc64ce(%rdx)
ffff8000001229e5:	30 9d 2e 00 00 00    	xor    %bl,0x2e(%rbp)
ffff8000001229eb:	00 00                	add    %al,(%rax)
ffff8000001229ed:	00 9e 9e 9f 9f 00    	add    %bl,0x9f9f9e(%rsi)
	...

ffff800000122a00 <cmd_table>:
ffff800000122a00:	c0 14 12 00          	rclb   $0x0,(%rdx,%rdx,1)
ffff800000122a04:	00 80 ff ff e3 f0    	add    %al,-0xf1c0001(%rax)
ffff800000122a0a:	11 00                	adc    %eax,(%rax)
ffff800000122a0c:	00 80 ff ff 02 00    	add    %al,0x2ffff(%rax)

ffff800000122a10 <next_pid>:
ffff800000122a10:	02 00                	add    (%rax),%al
	...

Disassembly of section .bss:

ffff800000122a20 <tmp_intr_count.1785>:
	...

ffff800000122a28 <ap_on_flag>:
ffff800000122a28:	00 00                	add    %al,(%rax)
	...

ffff800000122a2c <ap_on_count>:
ffff800000122a2c:	00 00                	add    %al,(%rax)
	...

ffff800000122a30 <lapic_vaddr>:
	...

ffff800000122a40 <kbd_manager>:
	...

ffff800000122a60 <key_queue>:
	...

ffff800000122a80 <key_queue_buf>:
	...

ffff800000122bb0 <jiffies>:
	...

ffff800000122bb8 <alloc_pointer>:
	...

ffff800000122bc0 <spinlock_printk>:
	...

ffff800000122be0 <mygdt>:
	...

ffff800000122e00 <vga_console>:
	...

ffff800000122e20 <myidt>:
	...

ffff800000123480 <isr_routines>:
	...

ffff8000001237a0 <mymachine>:
	...

ffff8000001237c8 <kernel_pml4>:
	...

ffff8000001237e0 <scheduler>:
	...

Disassembly of section .comment:

0000000000000000 <.comment>:
   0:	47                   	rex.RXB
   1:	43                   	rex.XB
   2:	43 3a 20             	rex.XB cmp (%r8),%spl
   5:	28 47 4e             	sub    %al,0x4e(%rdi)
   8:	55                   	push   %rbp
   9:	29 20                	sub    %esp,(%rax)
   b:	36 2e 31 2e          	ss xor %ebp,%cs:(%rsi)
   f:	30 00                	xor    %al,(%rax)
